; Listing generated by Microsoft (R) Optimizing Compiler Version 19.24.28316.0 

	TITLE	C:\Users\Vlad\LP\Laba1LP\Find.cpp
	.686P
	.XMM
	include listing.inc
	.model	flat

INCLUDELIB MSVCRTD
INCLUDELIB OLDNAMES

msvcjmc	SEGMENT
__BD3EDE1B_vcruntime_new@h DB 01H
__09340588_corecrt_math@h DB 01H
__24E9E95F_stdlib@h DB 01H
__EC2FBCF1_cstdlib DB 01H
__C0436A37_cmath DB 01H
__F66CEB67_corecrt_stdio_config@h DB 01H
__101834BA_corecrt_wstdio@h DB 01H
__AD6A91B7_stdio@h DB 01H
__4877352E_type_traits DB 01H
__B0C4CEA9_malloc@h DB 01H
__CFCEF810_vcruntime_exception@h DB 01H
__CB7CF65A_exception DB 01H
__367CC694_corecrt_memcpy_s@h DB 01H
__35D7DDB3_corecrt_memory@h DB 01H
__DC9673E3_corecrt_wstring@h DB 01H
__A29A7DFB_string@h DB 01H
__5467428D_corecrt_wconio@h DB 01H
__4442441F_corecrt_wio@h DB 01H
__45F4AF76_corecrt_wtime@h DB 01H
__186FF47F_stat@h DB 01H
__534C724A_wchar@h DB 01H
__CDF80030_limits DB 01H
__45864D8F_xutility DB 01H
__B1B75AB9_xmemory DB 01H
__C564DC25_xstring DB 01H
__4232CC07_stdexcept DB 01H
__34C7AB85_xcall_once@h DB 01H
__8B9AB9A5_system_error DB 01H
__60622685_vcruntime_typeinfo@h DB 01H
__3559BE96_typeinfo DB 01H
__71560CBE_memory DB 01H
__5D135BB1_xfacet DB 01H
__7242C389_ctype@h DB 01H
__2AD05D5E_xlocinfo DB 01H
__1A5AA814_xlocale DB 01H
__13352A4D_xiosbase DB 01H
__84DDCE03_xlocnum DB 01H
__735DEEF4_ios DB 01H
__59CC846B_Find@cpp DB 01H
__6A9A47EA_istream DB 01H
__094A72D0_ostream DB 01H
__409274BB_streambuf DB 01H
__0111D5B6_iosfwd DB 01H
__DB22397A_utility DB 01H
__2C3DAE68_xstddef DB 01H
__C1707A8C_xatomic@h DB 01H
msvcjmc	ENDS
PUBLIC	?__empty_global_delete@@YAXPAX@Z		; __empty_global_delete
PUBLIC	?__empty_global_delete@@YAXPAXI@Z		; __empty_global_delete
PUBLIC	?FindNum@@YAHHH_N@Z				; FindNum
PUBLIC	__JustMyCode_Default
EXTRN	@__CheckForDebuggerJustMyCode@4:PROC
EXTRN	__RTC_CheckEsp:PROC
EXTRN	__RTC_InitBase:PROC
EXTRN	__RTC_Shutdown:PROC
;	COMDAT rtc$TMZ
rtc$TMZ	SEGMENT
__RTC_Shutdown.rtc$TMZ DD FLAT:__RTC_Shutdown
rtc$TMZ	ENDS
;	COMDAT rtc$IMZ
rtc$IMZ	SEGMENT
__RTC_InitBase.rtc$IMZ DD FLAT:__RTC_InitBase
rtc$IMZ	ENDS
; Function compile flags: /Odt
;	COMDAT __JustMyCode_Default
_TEXT	SEGMENT
__JustMyCode_Default PROC				; COMDAT
  00000	55		 push	 ebp
  00001	8b ec		 mov	 ebp, esp
  00003	5d		 pop	 ebp
  00004	c3		 ret	 0
__JustMyCode_Default ENDP
_TEXT	ENDS
; Function compile flags: /Odtp /RTCsu /ZI
; File C:\Users\Vlad\LP\Laba1LP\Find.cpp
;	COMDAT ?FindNum@@YAHHH_N@Z
_TEXT	SEGMENT
_i$1 = -20						; size = 4
_numDays$ = -8						; size = 4
_Day$ = 8						; size = 4
_Mounth$ = 12						; size = 4
_leapYear$ = 16						; size = 1
?FindNum@@YAHHH_N@Z PROC				; FindNum, COMDAT

; 4    : int FindNum(int Day, int Mounth, bool leapYear) {

  00000	55		 push	 ebp
  00001	8b ec		 mov	 ebp, esp
  00003	81 ec d8 00 00
	00		 sub	 esp, 216		; 000000d8H
  00009	53		 push	 ebx
  0000a	56		 push	 esi
  0000b	57		 push	 edi
  0000c	8d bd 28 ff ff
	ff		 lea	 edi, DWORD PTR [ebp-216]
  00012	b9 36 00 00 00	 mov	 ecx, 54			; 00000036H
  00017	b8 cc cc cc cc	 mov	 eax, -858993460		; ccccccccH
  0001c	f3 ab		 rep stosd
  0001e	b9 00 00 00 00	 mov	 ecx, OFFSET __59CC846B_Find@cpp
  00023	e8 00 00 00 00	 call	 @__CheckForDebuggerJustMyCode@4

; 5    : 	int numDays = Day;

  00028	8b 45 08	 mov	 eax, DWORD PTR _Day$[ebp]
  0002b	89 45 f8	 mov	 DWORD PTR _numDays$[ebp], eax

; 6    : 	for (int i = 1; i < Mounth; i++) {

  0002e	c7 45 ec 01 00
	00 00		 mov	 DWORD PTR _i$1[ebp], 1
  00035	eb 09		 jmp	 SHORT $LN4@FindNum
$LN2@FindNum:
  00037	8b 45 ec	 mov	 eax, DWORD PTR _i$1[ebp]
  0003a	83 c0 01	 add	 eax, 1
  0003d	89 45 ec	 mov	 DWORD PTR _i$1[ebp], eax
$LN4@FindNum:
  00040	8b 45 ec	 mov	 eax, DWORD PTR _i$1[ebp]
  00043	3b 45 0c	 cmp	 eax, DWORD PTR _Mounth$[ebp]
  00046	0f 8d 8e 00 00
	00		 jge	 $LN3@FindNum

; 7    : 		if (i == 4 || i == 6 || i == 9 || i == 11)

  0004c	83 7d ec 04	 cmp	 DWORD PTR _i$1[ebp], 4
  00050	74 12		 je	 SHORT $LN7@FindNum
  00052	83 7d ec 06	 cmp	 DWORD PTR _i$1[ebp], 6
  00056	74 0c		 je	 SHORT $LN7@FindNum
  00058	83 7d ec 09	 cmp	 DWORD PTR _i$1[ebp], 9
  0005c	74 06		 je	 SHORT $LN7@FindNum
  0005e	83 7d ec 0b	 cmp	 DWORD PTR _i$1[ebp], 11	; 0000000bH
  00062	75 0b		 jne	 SHORT $LN5@FindNum
$LN7@FindNum:

; 8    : 			numDays += 30;

  00064	8b 45 f8	 mov	 eax, DWORD PTR _numDays$[ebp]
  00067	83 c0 1e	 add	 eax, 30			; 0000001eH
  0006a	89 45 f8	 mov	 DWORD PTR _numDays$[ebp], eax
  0006d	eb 66		 jmp	 SHORT $LN6@FindNum
$LN5@FindNum:

; 9    : 		else if (i == 1 || i == 3 || i == 5 || i == 7 || i == 8 || i == 10 || i == 12)

  0006f	83 7d ec 01	 cmp	 DWORD PTR _i$1[ebp], 1
  00073	74 24		 je	 SHORT $LN10@FindNum
  00075	83 7d ec 03	 cmp	 DWORD PTR _i$1[ebp], 3
  00079	74 1e		 je	 SHORT $LN10@FindNum
  0007b	83 7d ec 05	 cmp	 DWORD PTR _i$1[ebp], 5
  0007f	74 18		 je	 SHORT $LN10@FindNum
  00081	83 7d ec 07	 cmp	 DWORD PTR _i$1[ebp], 7
  00085	74 12		 je	 SHORT $LN10@FindNum
  00087	83 7d ec 08	 cmp	 DWORD PTR _i$1[ebp], 8
  0008b	74 0c		 je	 SHORT $LN10@FindNum
  0008d	83 7d ec 0a	 cmp	 DWORD PTR _i$1[ebp], 10	; 0000000aH
  00091	74 06		 je	 SHORT $LN10@FindNum
  00093	83 7d ec 0c	 cmp	 DWORD PTR _i$1[ebp], 12	; 0000000cH
  00097	75 0b		 jne	 SHORT $LN8@FindNum
$LN10@FindNum:

; 10   : 			numDays += 31;

  00099	8b 45 f8	 mov	 eax, DWORD PTR _numDays$[ebp]
  0009c	83 c0 1f	 add	 eax, 31			; 0000001fH
  0009f	89 45 f8	 mov	 DWORD PTR _numDays$[ebp], eax
  000a2	eb 31		 jmp	 SHORT $LN6@FindNum
$LN8@FindNum:

; 11   : 		else if (i == 2 && leapYear == false)

  000a4	83 7d ec 02	 cmp	 DWORD PTR _i$1[ebp], 2
  000a8	75 13		 jne	 SHORT $LN11@FindNum
  000aa	0f b6 45 10	 movzx	 eax, BYTE PTR _leapYear$[ebp]
  000ae	85 c0		 test	 eax, eax
  000b0	75 0b		 jne	 SHORT $LN11@FindNum

; 12   : 			numDays += 28;

  000b2	8b 45 f8	 mov	 eax, DWORD PTR _numDays$[ebp]
  000b5	83 c0 1c	 add	 eax, 28			; 0000001cH
  000b8	89 45 f8	 mov	 DWORD PTR _numDays$[ebp], eax
  000bb	eb 18		 jmp	 SHORT $LN6@FindNum
$LN11@FindNum:

; 13   : 		else if (i == 2 && leapYear == true)

  000bd	83 7d ec 02	 cmp	 DWORD PTR _i$1[ebp], 2
  000c1	75 12		 jne	 SHORT $LN6@FindNum
  000c3	0f b6 45 10	 movzx	 eax, BYTE PTR _leapYear$[ebp]
  000c7	83 f8 01	 cmp	 eax, 1
  000ca	75 09		 jne	 SHORT $LN6@FindNum

; 14   : 			numDays += 29;

  000cc	8b 45 f8	 mov	 eax, DWORD PTR _numDays$[ebp]
  000cf	83 c0 1d	 add	 eax, 29			; 0000001dH
  000d2	89 45 f8	 mov	 DWORD PTR _numDays$[ebp], eax
$LN6@FindNum:

; 15   : 		}

  000d5	e9 5d ff ff ff	 jmp	 $LN2@FindNum
$LN3@FindNum:

; 16   : 	return numDays;

  000da	8b 45 f8	 mov	 eax, DWORD PTR _numDays$[ebp]

; 17   : }

  000dd	5f		 pop	 edi
  000de	5e		 pop	 esi
  000df	5b		 pop	 ebx
  000e0	81 c4 d8 00 00
	00		 add	 esp, 216		; 000000d8H
  000e6	3b ec		 cmp	 ebp, esp
  000e8	e8 00 00 00 00	 call	 __RTC_CheckEsp
  000ed	8b e5		 mov	 esp, ebp
  000ef	5d		 pop	 ebp
  000f0	c3		 ret	 0
?FindNum@@YAHHH_N@Z ENDP				; FindNum
_TEXT	ENDS
; Function compile flags: /Odtp /RTCsu /ZI
; File C:\Users\Vlad\LP\Laba1LP\Find.cpp
;	COMDAT ?__empty_global_delete@@YAXPAXI@Z
_TEXT	SEGMENT
___formal$ = 8						; size = 4
___formal$ = 12						; size = 4
?__empty_global_delete@@YAXPAXI@Z PROC			; __empty_global_delete, COMDAT

  00000	55		 push	 ebp
  00001	8b ec		 mov	 ebp, esp
  00003	81 ec c0 00 00
	00		 sub	 esp, 192		; 000000c0H
  00009	53		 push	 ebx
  0000a	56		 push	 esi
  0000b	57		 push	 edi
  0000c	8d bd 40 ff ff
	ff		 lea	 edi, DWORD PTR [ebp-192]
  00012	b9 30 00 00 00	 mov	 ecx, 48			; 00000030H
  00017	b8 cc cc cc cc	 mov	 eax, -858993460		; ccccccccH
  0001c	f3 ab		 rep stosd
  0001e	b9 00 00 00 00	 mov	 ecx, OFFSET __59CC846B_Find@cpp
  00023	e8 00 00 00 00	 call	 @__CheckForDebuggerJustMyCode@4
  00028	5f		 pop	 edi
  00029	5e		 pop	 esi
  0002a	5b		 pop	 ebx
  0002b	81 c4 c0 00 00
	00		 add	 esp, 192		; 000000c0H
  00031	3b ec		 cmp	 ebp, esp
  00033	e8 00 00 00 00	 call	 __RTC_CheckEsp
  00038	8b e5		 mov	 esp, ebp
  0003a	5d		 pop	 ebp
  0003b	c3		 ret	 0
?__empty_global_delete@@YAXPAXI@Z ENDP			; __empty_global_delete
_TEXT	ENDS
; Function compile flags: /Odtp /RTCsu /ZI
; File C:\Users\Vlad\LP\Laba1LP\Find.cpp
;	COMDAT ?__empty_global_delete@@YAXPAX@Z
_TEXT	SEGMENT
___formal$ = 8						; size = 4
?__empty_global_delete@@YAXPAX@Z PROC			; __empty_global_delete, COMDAT

  00000	55		 push	 ebp
  00001	8b ec		 mov	 ebp, esp
  00003	81 ec c0 00 00
	00		 sub	 esp, 192		; 000000c0H
  00009	53		 push	 ebx
  0000a	56		 push	 esi
  0000b	57		 push	 edi
  0000c	8d bd 40 ff ff
	ff		 lea	 edi, DWORD PTR [ebp-192]
  00012	b9 30 00 00 00	 mov	 ecx, 48			; 00000030H
  00017	b8 cc cc cc cc	 mov	 eax, -858993460		; ccccccccH
  0001c	f3 ab		 rep stosd
  0001e	b9 00 00 00 00	 mov	 ecx, OFFSET __59CC846B_Find@cpp
  00023	e8 00 00 00 00	 call	 @__CheckForDebuggerJustMyCode@4
  00028	5f		 pop	 edi
  00029	5e		 pop	 esi
  0002a	5b		 pop	 ebx
  0002b	81 c4 c0 00 00
	00		 add	 esp, 192		; 000000c0H
  00031	3b ec		 cmp	 ebp, esp
  00033	e8 00 00 00 00	 call	 __RTC_CheckEsp
  00038	8b e5		 mov	 esp, ebp
  0003a	5d		 pop	 ebp
  0003b	c3		 ret	 0
?__empty_global_delete@@YAXPAX@Z ENDP			; __empty_global_delete
_TEXT	ENDS
END
