; Listing generated by Microsoft (R) Optimizing Compiler Version 19.24.28316.0 

	TITLE	C:\Users\Vlad\LP\Laba1LP\Laba1LP.cpp
	.686P
	.XMM
	include listing.inc
	.model	flat

INCLUDELIB MSVCRTD
INCLUDELIB OLDNAMES

msvcjmc	SEGMENT
__BD3EDE1B_vcruntime_new@h DB 01H
__09340588_corecrt_math@h DB 01H
__24E9E95F_stdlib@h DB 01H
__EC2FBCF1_cstdlib DB 01H
__C0436A37_cmath DB 01H
__F66CEB67_corecrt_stdio_config@h DB 01H
__101834BA_corecrt_wstdio@h DB 01H
__AD6A91B7_stdio@h DB 01H
__4877352E_type_traits DB 01H
__B0C4CEA9_malloc@h DB 01H
__CFCEF810_vcruntime_exception@h DB 01H
__CB7CF65A_exception DB 01H
__367CC694_corecrt_memcpy_s@h DB 01H
__35D7DDB3_corecrt_memory@h DB 01H
__DC9673E3_corecrt_wstring@h DB 01H
__A29A7DFB_string@h DB 01H
__5467428D_corecrt_wconio@h DB 01H
__4442441F_corecrt_wio@h DB 01H
__45F4AF76_corecrt_wtime@h DB 01H
__186FF47F_stat@h DB 01H
__534C724A_wchar@h DB 01H
__CDF80030_limits DB 01H
__45864D8F_xutility DB 01H
__B1B75AB9_xmemory DB 01H
__C564DC25_xstring DB 01H
__4232CC07_stdexcept DB 01H
__34C7AB85_xcall_once@h DB 01H
__8B9AB9A5_system_error DB 01H
__60622685_vcruntime_typeinfo@h DB 01H
__3559BE96_typeinfo DB 01H
__71560CBE_memory DB 01H
__5D135BB1_xfacet DB 01H
__7242C389_ctype@h DB 01H
__2AD05D5E_xlocinfo DB 01H
__1A5AA814_xlocale DB 01H
__13352A4D_xiosbase DB 01H
__84DDCE03_xlocnum DB 01H
__735DEEF4_ios DB 01H
__05858A22_string DB 01H
__6EC763AE_Laba1LP@cpp DB 01H
__A934846A_sstream DB 01H
__6A9A47EA_istream DB 01H
__094A72D0_ostream DB 01H
__409274BB_streambuf DB 01H
__0111D5B6_iosfwd DB 01H
__DB22397A_utility DB 01H
__2C3DAE68_xstddef DB 01H
__C1707A8C_xatomic@h DB 01H
msvcjmc	ENDS
PUBLIC	?__empty_global_delete@@YAXPAX@Z		; __empty_global_delete
PUBLIC	?__empty_global_delete@@YAXPAXI@Z		; __empty_global_delete
PUBLIC	??2@YAPAXIPAX@Z					; operator new
PUBLIC	___local_stdio_printf_options
PUBLIC	__vfprintf_l
PUBLIC	_printf
PUBLIC	??0exception@std@@QAE@QBDH@Z			; std::exception::exception
PUBLIC	??0exception@std@@QAE@ABV01@@Z			; std::exception::exception
PUBLIC	??1exception@std@@UAE@XZ			; std::exception::~exception
PUBLIC	?what@exception@std@@UBEPBDXZ			; std::exception::what
PUBLIC	??_Gexception@std@@UAEPAXI@Z			; std::exception::`scalar deleting destructor'
PUBLIC	??0bad_alloc@std@@AAE@QBD@Z			; std::bad_alloc::bad_alloc
PUBLIC	??1bad_alloc@std@@UAE@XZ			; std::bad_alloc::~bad_alloc
PUBLIC	??0bad_alloc@std@@QAE@ABV01@@Z			; std::bad_alloc::bad_alloc
PUBLIC	??_Gbad_alloc@std@@UAEPAXI@Z			; std::bad_alloc::`scalar deleting destructor'
PUBLIC	??0bad_array_new_length@std@@QAE@XZ		; std::bad_array_new_length::bad_array_new_length
PUBLIC	??1bad_array_new_length@std@@UAE@XZ		; std::bad_array_new_length::~bad_array_new_length
PUBLIC	??0bad_array_new_length@std@@QAE@ABV01@@Z	; std::bad_array_new_length::bad_array_new_length
PUBLIC	??_Gbad_array_new_length@std@@UAEPAXI@Z		; std::bad_array_new_length::`scalar deleting destructor'
PUBLIC	?_Throw_bad_array_new_length@std@@YAXXZ		; std::_Throw_bad_array_new_length
PUBLIC	?max@?$numeric_limits@H@std@@SAHXZ		; std::numeric_limits<int>::max
PUBLIC	?_Allocate@_Default_allocate_traits@std@@SAPAXI@Z ; std::_Default_allocate_traits::_Allocate
PUBLIC	?_Adjust_manually_vector_aligned@std@@YAXAAPAXAAI@Z ; std::_Adjust_manually_vector_aligned
PUBLIC	??0_Container_proxy@std@@QAE@PAU_Container_base12@1@@Z ; std::_Container_proxy::_Container_proxy
PUBLIC	??0_Container_base12@std@@QAE@XZ		; std::_Container_base12::_Container_base12
PUBLIC	?_Orphan_all@_Container_base12@std@@QAEXXZ	; std::_Container_base12::_Orphan_all
PUBLIC	??$_Construct_in_place@U_Container_proxy@std@@PAU_Container_base12@2@@std@@YAXAAU_Container_proxy@0@$$QAPAU_Container_base12@0@@Z ; std::_Construct_in_place<std::_Container_proxy,std::_Container_base12 *>
PUBLIC	?copy@?$_Narrow_char_traits@DH@std@@SAPADQADQBDI@Z ; std::_Narrow_char_traits<char,int>::copy
PUBLIC	?assign@?$_Narrow_char_traits@DH@std@@SAXAADABD@Z ; std::_Narrow_char_traits<char,int>::assign
PUBLIC	?eq@?$_Narrow_char_traits@DH@std@@SA_NABD0@Z	; std::_Narrow_char_traits<char,int>::eq
PUBLIC	?to_char_type@?$_Narrow_char_traits@DH@std@@SADABH@Z ; std::_Narrow_char_traits<char,int>::to_char_type
PUBLIC	?to_int_type@?$_Narrow_char_traits@DH@std@@SAHABD@Z ; std::_Narrow_char_traits<char,int>::to_int_type
PUBLIC	?eq_int_type@?$_Narrow_char_traits@DH@std@@SA_NABH0@Z ; std::_Narrow_char_traits<char,int>::eq_int_type
PUBLIC	?not_eof@?$_Narrow_char_traits@DH@std@@SAHABH@Z	; std::_Narrow_char_traits<char,int>::not_eof
PUBLIC	?eof@?$_Narrow_char_traits@DH@std@@SAHXZ	; std::_Narrow_char_traits<char,int>::eof
PUBLIC	??$_Min_value@I@std@@YAABIABI0@Z		; std::_Min_value<unsigned int>
PUBLIC	??0?$allocator@D@std@@QAE@XZ			; std::allocator<char>::allocator<char>
PUBLIC	?deallocate@?$allocator@D@std@@QAEXQADI@Z	; std::allocator<char>::deallocate
PUBLIC	?allocate@?$allocator@D@std@@QAEPADI@Z		; std::allocator<char>::allocate
PUBLIC	?max_size@?$_Default_allocator_traits@V?$allocator@D@std@@@std@@SAIABV?$allocator@D@2@@Z ; std::_Default_allocator_traits<std::allocator<char> >::max_size
PUBLIC	??0?$_String_val@U?$_Simple_types@D@std@@@std@@QAE@XZ ; std::_String_val<std::_Simple_types<char> >::_String_val<std::_Simple_types<char> >
PUBLIC	?_Myptr@?$_String_val@U?$_Simple_types@D@std@@@std@@QAEPADXZ ; std::_String_val<std::_Simple_types<char> >::_Myptr
PUBLIC	?_Myptr@?$_String_val@U?$_Simple_types@D@std@@@std@@QBEPBDXZ ; std::_String_val<std::_Simple_types<char> >::_Myptr
PUBLIC	?_Large_string_engaged@?$_String_val@U?$_Simple_types@D@std@@@std@@QBE_NXZ ; std::_String_val<std::_Simple_types<char> >::_Large_string_engaged
PUBLIC	?_Check_offset@?$_String_val@U?$_Simple_types@D@std@@@std@@QBEXI@Z ; std::_String_val<std::_Simple_types<char> >::_Check_offset
PUBLIC	?_Xran@?$_String_val@U?$_Simple_types@D@std@@@std@@SAXXZ ; std::_String_val<std::_Simple_types<char> >::_Xran
PUBLIC	??0_Bxty@?$_String_val@U?$_Simple_types@D@std@@@std@@QAE@XZ ; std::_String_val<std::_Simple_types<char> >::_Bxty::_Bxty
PUBLIC	??1_Bxty@?$_String_val@U?$_Simple_types@D@std@@@std@@QAE@XZ ; std::_String_val<std::_Simple_types<char> >::_Bxty::~_Bxty
PUBLIC	??1?$_String_val@U?$_Simple_types@D@std@@@std@@QAE@XZ ; std::_String_val<std::_Simple_types<char> >::~_String_val<std::_Simple_types<char> >
PUBLIC	??0?$basic_string@DU?$char_traits@D@std@@V?$allocator@D@2@@std@@QAE@XZ ; std::basic_string<char,std::char_traits<char>,std::allocator<char> >::basic_string<char,std::char_traits<char>,std::allocator<char> >
PUBLIC	??1?$basic_string@DU?$char_traits@D@std@@V?$allocator@D@2@@std@@QAE@XZ ; std::basic_string<char,std::char_traits<char>,std::allocator<char> >::~basic_string<char,std::char_traits<char>,std::allocator<char> >
PUBLIC	?erase@?$basic_string@DU?$char_traits@D@std@@V?$allocator@D@2@@std@@QAEAAV12@I@Z ; std::basic_string<char,std::char_traits<char>,std::allocator<char> >::erase
PUBLIC	?push_back@?$basic_string@DU?$char_traits@D@std@@V?$allocator@D@2@@std@@QAEXD@Z ; std::basic_string<char,std::char_traits<char>,std::allocator<char> >::push_back
PUBLIC	?c_str@?$basic_string@DU?$char_traits@D@std@@V?$allocator@D@2@@std@@QBEPBDXZ ; std::basic_string<char,std::char_traits<char>,std::allocator<char> >::c_str
PUBLIC	?size@?$basic_string@DU?$char_traits@D@std@@V?$allocator@D@2@@std@@QBEIXZ ; std::basic_string<char,std::char_traits<char>,std::allocator<char> >::size
PUBLIC	?max_size@?$basic_string@DU?$char_traits@D@std@@V?$allocator@D@2@@std@@QBEIXZ ; std::basic_string<char,std::char_traits<char>,std::allocator<char> >::max_size
PUBLIC	?get_allocator@?$basic_string@DU?$char_traits@D@std@@V?$allocator@D@2@@std@@QBE?AV?$allocator@D@2@XZ ; std::basic_string<char,std::char_traits<char>,std::allocator<char> >::get_allocator
PUBLIC	?_Calculate_growth@?$basic_string@DU?$char_traits@D@std@@V?$allocator@D@2@@std@@CAIIII@Z ; std::basic_string<char,std::char_traits<char>,std::allocator<char> >::_Calculate_growth
PUBLIC	?_Calculate_growth@?$basic_string@DU?$char_traits@D@std@@V?$allocator@D@2@@std@@ABEII@Z ; std::basic_string<char,std::char_traits<char>,std::allocator<char> >::_Calculate_growth
PUBLIC	?_Eos@?$basic_string@DU?$char_traits@D@std@@V?$allocator@D@2@@std@@AAEXI@Z ; std::basic_string<char,std::char_traits<char>,std::allocator<char> >::_Eos
PUBLIC	?_Tidy_init@?$basic_string@DU?$char_traits@D@std@@V?$allocator@D@2@@std@@AAEXXZ ; std::basic_string<char,std::char_traits<char>,std::allocator<char> >::_Tidy_init
PUBLIC	?_Tidy_deallocate@?$basic_string@DU?$char_traits@D@std@@V?$allocator@D@2@@std@@AAEXXZ ; std::basic_string<char,std::char_traits<char>,std::allocator<char> >::_Tidy_deallocate
PUBLIC	?_Xlen@?$basic_string@DU?$char_traits@D@std@@V?$allocator@D@2@@std@@CAXXZ ; std::basic_string<char,std::char_traits<char>,std::allocator<char> >::_Xlen
PUBLIC	?_Getal@?$basic_string@DU?$char_traits@D@std@@V?$allocator@D@2@@std@@AAEAAV?$allocator@D@2@XZ ; std::basic_string<char,std::char_traits<char>,std::allocator<char> >::_Getal
PUBLIC	?_Getal@?$basic_string@DU?$char_traits@D@std@@V?$allocator@D@2@@std@@ABEABV?$allocator@D@2@XZ ; std::basic_string<char,std::char_traits<char>,std::allocator<char> >::_Getal
PUBLIC	?_Get_first@?$_Compressed_pair@V?$allocator@D@std@@V?$_String_val@U?$_Simple_types@D@std@@@2@$00@std@@QAEAAV?$allocator@D@2@XZ ; std::_Compressed_pair<std::allocator<char>,std::_String_val<std::_Simple_types<char> >,1>::_Get_first
PUBLIC	?_Get_first@?$_Compressed_pair@V?$allocator@D@std@@V?$_String_val@U?$_Simple_types@D@std@@@2@$00@std@@QBEABV?$allocator@D@2@XZ ; std::_Compressed_pair<std::allocator<char>,std::_String_val<std::_Simple_types<char> >,1>::_Get_first
PUBLIC	??1?$_Compressed_pair@V?$allocator@D@std@@V?$_String_val@U?$_Simple_types@D@std@@@2@$00@std@@QAE@XZ ; std::_Compressed_pair<std::allocator<char>,std::_String_val<std::_Simple_types<char> >,1>::~_Compressed_pair<std::allocator<char>,std::_String_val<std::_Simple_types<char> >,1>
PUBLIC	??0bad_cast@std@@QAE@XZ				; std::bad_cast::bad_cast
PUBLIC	??1bad_cast@std@@UAE@XZ				; std::bad_cast::~bad_cast
PUBLIC	??0bad_cast@std@@QAE@ABV01@@Z			; std::bad_cast::bad_cast
PUBLIC	??_Gbad_cast@std@@UAEPAXI@Z			; std::bad_cast::`scalar deleting destructor'
PUBLIC	?_Throw_bad_cast@std@@YAXXZ			; std::_Throw_bad_cast
PUBLIC	??1locale@std@@QAE@XZ				; std::locale::~locale
PUBLIC	?_Getfacet@locale@std@@QBEPBVfacet@12@I@Z	; std::locale::_Getfacet
PUBLIC	??$use_facet@V?$ctype@D@std@@@std@@YAABV?$ctype@D@0@ABVlocale@0@@Z ; std::use_facet<std::ctype<char> >
PUBLIC	??0?$fpos@U_Mbstatet@@@std@@QAE@_J@Z		; std::fpos<_Mbstatet>::fpos<_Mbstatet>
PUBLIC	??B?$fpos@U_Mbstatet@@@std@@QBE_JXZ		; std::fpos<_Mbstatet>::operator __int64
PUBLIC	_main
PUBLIC	??$?5DU?$char_traits@D@std@@V?$allocator@D@1@@std@@YAAAV?$basic_istream@DU?$char_traits@D@std@@@0@AAV10@AAV?$basic_string@DU?$char_traits@D@std@@V?$allocator@D@2@@0@@Z ; std::operator>><char,std::char_traits<char>,std::allocator<char> >
PUBLIC	??$?5DU?$char_traits@D@std@@V?$allocator@D@1@@std@@YAAAV?$basic_istream@DU?$char_traits@D@std@@@0@$$QAV10@AAV?$basic_string@DU?$char_traits@D@std@@V?$allocator@D@2@@0@@Z ; std::operator>><char,std::char_traits<char>,std::allocator<char> >
PUBLIC	??0?$basic_stringstream@DU?$char_traits@D@std@@V?$allocator@D@2@@std@@QAE@ABV?$basic_string@DU?$char_traits@D@std@@V?$allocator@D@2@@1@H@Z ; std::basic_stringstream<char,std::char_traits<char>,std::allocator<char> >::basic_stringstream<char,std::char_traits<char>,std::allocator<char> >
PUBLIC	??1?$basic_stringstream@DU?$char_traits@D@std@@V?$allocator@D@2@@std@@UAE@XZ ; std::basic_stringstream<char,std::char_traits<char>,std::allocator<char> >::~basic_stringstream<char,std::char_traits<char>,std::allocator<char> >
PUBLIC	??0?$basic_stringbuf@DU?$char_traits@D@std@@V?$allocator@D@2@@std@@QAE@ABV?$basic_string@DU?$char_traits@D@std@@V?$allocator@D@2@@1@H@Z ; std::basic_stringbuf<char,std::char_traits<char>,std::allocator<char> >::basic_stringbuf<char,std::char_traits<char>,std::allocator<char> >
PUBLIC	??1?$basic_stringbuf@DU?$char_traits@D@std@@V?$allocator@D@2@@std@@UAE@XZ ; std::basic_stringbuf<char,std::char_traits<char>,std::allocator<char> >::~basic_stringbuf<char,std::char_traits<char>,std::allocator<char> >
PUBLIC	?overflow@?$basic_stringbuf@DU?$char_traits@D@std@@V?$allocator@D@2@@std@@MAEHH@Z ; std::basic_stringbuf<char,std::char_traits<char>,std::allocator<char> >::overflow
PUBLIC	?pbackfail@?$basic_stringbuf@DU?$char_traits@D@std@@V?$allocator@D@2@@std@@MAEHH@Z ; std::basic_stringbuf<char,std::char_traits<char>,std::allocator<char> >::pbackfail
PUBLIC	?underflow@?$basic_stringbuf@DU?$char_traits@D@std@@V?$allocator@D@2@@std@@MAEHXZ ; std::basic_stringbuf<char,std::char_traits<char>,std::allocator<char> >::underflow
PUBLIC	?seekoff@?$basic_stringbuf@DU?$char_traits@D@std@@V?$allocator@D@2@@std@@MAE?AV?$fpos@U_Mbstatet@@@2@_JHH@Z ; std::basic_stringbuf<char,std::char_traits<char>,std::allocator<char> >::seekoff
PUBLIC	?seekpos@?$basic_stringbuf@DU?$char_traits@D@std@@V?$allocator@D@2@@std@@MAE?AV?$fpos@U_Mbstatet@@@2@V32@H@Z ; std::basic_stringbuf<char,std::char_traits<char>,std::allocator<char> >::seekpos
PUBLIC	?_Init@?$basic_stringbuf@DU?$char_traits@D@std@@V?$allocator@D@2@@std@@IAEXPBDIH@Z ; std::basic_stringbuf<char,std::char_traits<char>,std::allocator<char> >::_Init
PUBLIC	?_Tidy@?$basic_stringbuf@DU?$char_traits@D@std@@V?$allocator@D@2@@std@@IAEXXZ ; std::basic_stringbuf<char,std::char_traits<char>,std::allocator<char> >::_Tidy
PUBLIC	?_Getstate@?$basic_stringbuf@DU?$char_traits@D@std@@V?$allocator@D@2@@std@@CAHH@Z ; std::basic_stringbuf<char,std::char_traits<char>,std::allocator<char> >::_Getstate
PUBLIC	??_G?$basic_stringbuf@DU?$char_traits@D@std@@V?$allocator@D@2@@std@@UAEPAXI@Z ; std::basic_stringbuf<char,std::char_traits<char>,std::allocator<char> >::`scalar deleting destructor'
PUBLIC	?__autoclassinit2@?$basic_stringstream@DU?$char_traits@D@std@@V?$allocator@D@2@@std@@QAEXI@Z ; std::basic_stringstream<char,std::char_traits<char>,std::allocator<char> >::__autoclassinit2
PUBLIC	??_G?$basic_stringstream@DU?$char_traits@D@std@@V?$allocator@D@2@@std@@UAEPAXI@Z ; std::basic_stringstream<char,std::char_traits<char>,std::allocator<char> >::`scalar deleting destructor'
PUBLIC	??_D?$basic_stringstream@DU?$char_traits@D@std@@V?$allocator@D@2@@std@@QAEXXZ ; std::basic_stringstream<char,std::char_traits<char>,std::allocator<char> >::`vbase destructor'
PUBLIC	??$_Max_value@PAD@std@@YAABQADABQAD0@Z		; std::_Max_value<char *>
PUBLIC	??$_Unfancy@D@std@@YAPADPAD@Z			; std::_Unfancy<char>
PUBLIC	?pointer_to@?$pointer_traits@PAD@std@@SAPADAAD@Z ; std::pointer_traits<char *>::pointer_to
PUBLIC	??$addressof@V?$basic_stringbuf@DU?$char_traits@D@std@@V?$allocator@D@2@@std@@@std@@YAPAV?$basic_stringbuf@DU?$char_traits@D@std@@V?$allocator@D@2@@0@AAV10@@Z ; std::addressof<std::basic_stringbuf<char,std::char_traits<char>,std::allocator<char> > >
PUBLIC	?allocate@?$allocator@U_Container_proxy@std@@@std@@QAEPAU_Container_proxy@2@I@Z ; std::allocator<std::_Container_proxy>::allocate
PUBLIC	??$_Delete_plain_internal@V?$allocator@U_Container_proxy@std@@@std@@@std@@YAXAAV?$allocator@U_Container_proxy@std@@@0@QAU_Container_proxy@0@@Z ; std::_Delete_plain_internal<std::allocator<std::_Container_proxy> >
PUBLIC	??$_Alloc_proxy@V?$allocator@U_Container_proxy@std@@@std@@@_Container_base12@std@@QAEX$$QAV?$allocator@U_Container_proxy@std@@@1@@Z ; std::_Container_base12::_Alloc_proxy<std::allocator<std::_Container_proxy> >
PUBLIC	??$?0D@?$allocator@U_Container_proxy@std@@@std@@QAE@ABV?$allocator@D@1@@Z ; std::allocator<std::_Container_proxy>::allocator<std::_Container_proxy><char>
PUBLIC	??$?0$$V@?$_Compressed_pair@V?$allocator@D@std@@V?$_String_val@U?$_Simple_types@D@std@@@2@$00@std@@QAE@U_Zero_then_variadic_args_t@1@@Z ; std::_Compressed_pair<std::allocator<char>,std::_String_val<std::_Simple_types<char> >,1>::_Compressed_pair<std::allocator<char>,std::_String_val<std::_Simple_types<char> >,1><>
PUBLIC	??$_Unfancy@U_Container_proxy@std@@@std@@YAPAU_Container_proxy@0@PAU10@@Z ; std::_Unfancy<std::_Container_proxy>
PUBLIC	??$addressof@D@std@@YAPADAAD@Z			; std::addressof<char>
PUBLIC	??$_Destroy_in_place@PAD@std@@YAXAAPAD@Z	; std::_Destroy_in_place<char *>
PUBLIC	??$_Max_value@I@std@@YAABIABI0@Z		; std::_Max_value<unsigned int>
PUBLIC	??R<lambda_15711c68e099a15a58f4d77303cb286d>@@QBEXQADQBDID@Z ; <lambda_15711c68e099a15a58f4d77303cb286d>::operator()
PUBLIC	??$_Reallocate_grow_by@V<lambda_15711c68e099a15a58f4d77303cb286d>@@D@?$basic_string@DU?$char_traits@D@std@@V?$allocator@D@2@@std@@AAEAAV01@IV<lambda_15711c68e099a15a58f4d77303cb286d>@@D@Z ; std::basic_string<char,std::char_traits<char>,std::allocator<char> >::_Reallocate_grow_by<<lambda_15711c68e099a15a58f4d77303cb286d>,char>
PUBLIC	??$_Construct_in_place@PADABQAD@std@@YAXAAPADABQAD@Z ; std::_Construct_in_place<char *,char * const &>
PUBLIC	??$_Get_size_of_n@$00@std@@YAII@Z		; std::_Get_size_of_n<1>
PUBLIC	??$_Allocate@$07U_Default_allocate_traits@std@@$0A@@std@@YAPAXI@Z ; std::_Allocate<8,std::_Default_allocate_traits,0>
PUBLIC	??$_Deallocate@$07$0A@@std@@YAXPAXI@Z		; std::_Deallocate<8,0>
PUBLIC	??$_Get_size_of_n@$07@std@@YAII@Z		; std::_Get_size_of_n<8>
PUBLIC	??$addressof@U_Container_proxy@std@@@std@@YAPAU_Container_proxy@0@AAU10@@Z ; std::addressof<std::_Container_proxy>
PUBLIC	??$forward@PAU_Container_base12@std@@@std@@YA$$QAPAU_Container_base12@0@AAPAU10@@Z ; std::forward<std::_Container_base12 *>
PUBLIC	??R?$default_delete@V_Facet_base@std@@@std@@QBEXPAV_Facet_base@1@@Z ; std::default_delete<std::_Facet_base>::operator()
PUBLIC	??1?$unique_ptr@V_Facet_base@std@@U?$default_delete@V_Facet_base@std@@@2@@std@@QAE@XZ ; std::unique_ptr<std::_Facet_base,std::default_delete<std::_Facet_base> >::~unique_ptr<std::_Facet_base,std::default_delete<std::_Facet_base> >
PUBLIC	?release@?$unique_ptr@V_Facet_base@std@@U?$default_delete@V_Facet_base@std@@@2@@std@@QAEPAV_Facet_base@2@XZ ; std::unique_ptr<std::_Facet_base,std::default_delete<std::_Facet_base> >::release
PUBLIC	?_Get_first@?$_Compressed_pair@U?$default_delete@V_Facet_base@std@@@std@@PAV_Facet_base@2@$00@std@@QAEAAU?$default_delete@V_Facet_base@std@@@2@XZ ; std::_Compressed_pair<std::default_delete<std::_Facet_base>,std::_Facet_base *,1>::_Get_first
PUBLIC	?__autoclassinit2@?$unique_ptr@V_Facet_base@std@@U?$default_delete@V_Facet_base@std@@@2@@std@@QAEXI@Z ; std::unique_ptr<std::_Facet_base,std::default_delete<std::_Facet_base> >::__autoclassinit2
PUBLIC	??$?0U?$default_delete@V_Facet_base@std@@@std@@$0A@@?$unique_ptr@V_Facet_base@std@@U?$default_delete@V_Facet_base@std@@@2@@std@@QAE@PAV_Facet_base@1@@Z ; std::unique_ptr<std::_Facet_base,std::default_delete<std::_Facet_base> >::unique_ptr<std::_Facet_base,std::default_delete<std::_Facet_base> ><std::default_delete<std::_Facet_base>,0>
PUBLIC	??$move@AAV?$basic_istream@DU?$char_traits@D@std@@@std@@@std@@YA$$QAV?$basic_istream@DU?$char_traits@D@std@@@0@AAV10@@Z ; std::move<std::basic_istream<char,std::char_traits<char> > &>
PUBLIC	??0_Sentry_base@?$basic_istream@DU?$char_traits@D@std@@@std@@QAE@AAV12@@Z ; std::basic_istream<char,std::char_traits<char> >::_Sentry_base::_Sentry_base
PUBLIC	??1_Sentry_base@?$basic_istream@DU?$char_traits@D@std@@@std@@QAE@XZ ; std::basic_istream<char,std::char_traits<char> >::_Sentry_base::~_Sentry_base
PUBLIC	??0sentry@?$basic_istream@DU?$char_traits@D@std@@@std@@QAE@AAV12@_N@Z ; std::basic_istream<char,std::char_traits<char> >::sentry::sentry
PUBLIC	??Bsentry@?$basic_istream@DU?$char_traits@D@std@@@std@@QBE_NXZ ; std::basic_istream<char,std::char_traits<char> >::sentry::operator bool
PUBLIC	??1sentry@?$basic_istream@DU?$char_traits@D@std@@@std@@QAE@XZ ; std::basic_istream<char,std::char_traits<char> >::sentry::~sentry
PUBLIC	??$_Deallocate_plain@V?$allocator@U_Container_proxy@std@@@std@@@std@@YAXAAV?$allocator@U_Container_proxy@std@@@0@QAU_Container_proxy@0@@Z ; std::_Deallocate_plain<std::allocator<std::_Container_proxy> >
PUBLIC	??$addressof@PAD@std@@YAPAPADAAPAD@Z		; std::addressof<char *>
PUBLIC	??$forward@ABQAD@std@@YAABQADABQAD@Z		; std::forward<char * const &>
PUBLIC	??$_Allocate_manually_vector_aligned@U_Default_allocate_traits@std@@@std@@YAPAXI@Z ; std::_Allocate_manually_vector_aligned<std::_Default_allocate_traits>
PUBLIC	??$exchange@PAV_Facet_base@std@@PAV12@@std@@YAPAV_Facet_base@0@AAPAV10@$$QAPAV10@@Z ; std::exchange<std::_Facet_base *,std::_Facet_base *>
PUBLIC	??$?0AAPAV_Facet_base@std@@@?$_Compressed_pair@U?$default_delete@V_Facet_base@std@@@std@@PAV_Facet_base@2@$00@std@@QAE@U_Zero_then_variadic_args_t@1@AAPAV_Facet_base@1@@Z ; std::_Compressed_pair<std::default_delete<std::_Facet_base>,std::_Facet_base *,1>::_Compressed_pair<std::default_delete<std::_Facet_base>,std::_Facet_base *,1><std::_Facet_base * &>
PUBLIC	?deallocate@?$_Default_allocator_traits@V?$allocator@U_Container_proxy@std@@@std@@@std@@SAXAAV?$allocator@U_Container_proxy@std@@@2@QAU_Container_proxy@2@I@Z ; std::_Default_allocator_traits<std::allocator<std::_Container_proxy> >::deallocate
PUBLIC	??$forward@AAPAV_Facet_base@std@@@std@@YAAAPAV_Facet_base@0@AAPAV10@@Z ; std::forward<std::_Facet_base * &>
PUBLIC	??_E?$basic_stringstream@DU?$char_traits@D@std@@V?$allocator@D@2@@std@@$4PPPPPPPM@A@AEPAXI@Z ; std::basic_stringstream<char,std::char_traits<char>,std::allocator<char> >::`vector deleting destructor'
PUBLIC	__JustMyCode_Default
PUBLIC	?_OptionsStorage@?1??__local_stdio_printf_options@@9@4_KA ; `__local_stdio_printf_options'::`2'::_OptionsStorage
PUBLIC	??_7exception@std@@6B@				; std::exception::`vftable'
PUBLIC	??_C@_0BC@EOODALEL@Unknown?5exception@		; `string'
PUBLIC	??_7bad_alloc@std@@6B@				; std::bad_alloc::`vftable'
PUBLIC	??_7bad_array_new_length@std@@6B@		; std::bad_array_new_length::`vftable'
PUBLIC	??_C@_0BF@KINCDENJ@bad?5array?5new?5length@	; `string'
PUBLIC	__TI3?AVbad_array_new_length@std@@
PUBLIC	__CTA3?AVbad_array_new_length@std@@
PUBLIC	??_R0?AVbad_array_new_length@std@@@8		; std::bad_array_new_length `RTTI Type Descriptor'
PUBLIC	__CT??_R0?AVbad_array_new_length@std@@@8??0bad_array_new_length@std@@QAE@ABV01@@Z12
PUBLIC	??_R0?AVbad_alloc@std@@@8			; std::bad_alloc `RTTI Type Descriptor'
PUBLIC	__CT??_R0?AVbad_alloc@std@@@8??0bad_alloc@std@@QAE@ABV01@@Z12
PUBLIC	??_R0?AVexception@std@@@8			; std::exception `RTTI Type Descriptor'
PUBLIC	__CT??_R0?AVexception@std@@@8??0exception@std@@QAE@ABV01@@Z12
PUBLIC	?__LINE__Var@?0??_Adjust_manually_vector_aligned@std@@YAXAAPAXAAI@Z@4JA ; `std::_Adjust_manually_vector_aligned'::`1'::__LINE__Var
PUBLIC	??_C@_0BB@FCMFBGOM@invalid?5argument@		; `string'
PUBLIC	??_C@_02DKCKIIND@?$CFs@				; `string'
PUBLIC	??_C@_0GI@JKOMEBKC@C?3?2Program?5Files?5?$CIx86?$CJ?2Microsof@ ; `string'
PUBLIC	??_C@_1NA@OANNLGA@?$AAC?$AA?3?$AA?2?$AAP?$AAr?$AAo?$AAg?$AAr?$AAa?$AAm?$AA?5?$AAF?$AAi?$AAl?$AAe@ ; `string'
PUBLIC	??_C@_1EK@NIFDJFDG@?$AAs?$AAt?$AAd?$AA?3?$AA?3?$AA_?$AAA?$AAd?$AAj?$AAu?$AAs?$AAt?$AA_?$AAm?$AAa@ ; `string'
PUBLIC	??_C@_1CG@JNLFBNGN@?$AA?$CC?$AAi?$AAn?$AAv?$AAa?$AAl?$AAi?$AAd?$AA?5?$AAa?$AAr?$AAg?$AAu?$AAm?$AAe@ ; `string'
PUBLIC	??_7bad_cast@std@@6B@				; std::bad_cast::`vftable'
PUBLIC	??_C@_08EPJLHIJG@bad?5cast@			; `string'
PUBLIC	__TI2?AVbad_cast@std@@
PUBLIC	__CTA2?AVbad_cast@std@@
PUBLIC	??_R0?AVbad_cast@std@@@8			; std::bad_cast `RTTI Type Descriptor'
PUBLIC	__CT??_R0?AVbad_cast@std@@@8??0bad_cast@std@@QAE@ABV01@@Z12
PUBLIC	??_7?$basic_stringbuf@DU?$char_traits@D@std@@V?$allocator@D@2@@std@@6B@ ; std::basic_stringbuf<char,std::char_traits<char>,std::allocator<char> >::`vftable'
PUBLIC	??_7?$basic_stringstream@DU?$char_traits@D@std@@V?$allocator@D@2@@std@@6B@ ; std::basic_stringstream<char,std::char_traits<char>,std::allocator<char> >::`vftable'
PUBLIC	??_8?$basic_stringstream@DU?$char_traits@D@std@@V?$allocator@D@2@@std@@7B?$basic_istream@DU?$char_traits@D@std@@@1@@ ; std::basic_stringstream<char,std::char_traits<char>,std::allocator<char> >::`vbtable'
PUBLIC	??_8?$basic_stringstream@DU?$char_traits@D@std@@V?$allocator@D@2@@std@@7B?$basic_ostream@DU?$char_traits@D@std@@@1@@ ; std::basic_stringstream<char,std::char_traits<char>,std::allocator<char> >::`vbtable'
PUBLIC	??_C@_03OJJHGHEE@Rus@				; `string'
PUBLIC	??_C@_0BM@GLGNCEEH@?B?b?e?d?h?r?e?5?D?e?m?$PM?0?5?L?e?q?$PP?v?5?h?5?C?n?d?3?6@ ; `string'
PUBLIC	??_C@_0CN@OBMGJBED@?M?e?5?o?p?$OA?b?h?k?$PM?m?$PL?i?5?t?n?p?l?$OA?r?0?h?g?l?e?m?h?r?e?5?t@ ; `string'
PUBLIC	??_C@_01EEMJAFIK@?6@				; `string'
PUBLIC	??_C@_05BEPLPCJI@?$CFc?$CFd?4@			; `string'
PUBLIC	??_C@_03NIOBFDP@?$CFd?4@			; `string'
PUBLIC	??_C@_03PMGGPEJJ@?$CFd?6@			; `string'
PUBLIC	??_C@_0DK@DFCFPGAI@?6?5?$CFd?5?$PP?b?k?$PP?e?r?q?$PP?5?b?e?q?n?j?n?q?m?$PL?l?5?c?n?d?n?l?6@ ; `string'
PUBLIC	??_C@_0ED@KEHCHDNG@?6?$CFd?5?m?e?5?$PP?b?k?$PP?e?r?q?$PP?5?b?h?q?n?j?n?q?m?$PL?l?5?c?n?d?n@ ; `string'
PUBLIC	??_C@_0BI@CFPLBAOH@invalid?5string?5position@	; `string'
PUBLIC	?_Psave@?$_Facetptr@V?$ctype@D@std@@@std@@2PBVfacet@locale@2@B ; std::_Facetptr<std::ctype<char> >::_Psave
PUBLIC	??_C@_0BA@JFNIOLAK@string?5too?5long@		; `string'
PUBLIC	??_C@_1EO@GFNCMDLA@?$AAs?$AAt?$AAd?$AA?3?$AA?3?$AA_?$AAA?$AAl?$AAl?$AAo?$AAc?$AAa?$AAt?$AAe?$AA_@ ; `string'
PUBLIC	??_R4exception@std@@6B@				; std::exception::`RTTI Complete Object Locator'
PUBLIC	??_R3exception@std@@8				; std::exception::`RTTI Class Hierarchy Descriptor'
PUBLIC	??_R2exception@std@@8				; std::exception::`RTTI Base Class Array'
PUBLIC	??_R1A@?0A@EA@exception@std@@8			; std::exception::`RTTI Base Class Descriptor at (0,-1,0,64)'
PUBLIC	??_R4bad_alloc@std@@6B@				; std::bad_alloc::`RTTI Complete Object Locator'
PUBLIC	??_R3bad_alloc@std@@8				; std::bad_alloc::`RTTI Class Hierarchy Descriptor'
PUBLIC	??_R2bad_alloc@std@@8				; std::bad_alloc::`RTTI Base Class Array'
PUBLIC	??_R1A@?0A@EA@bad_alloc@std@@8			; std::bad_alloc::`RTTI Base Class Descriptor at (0,-1,0,64)'
PUBLIC	??_R4bad_array_new_length@std@@6B@		; std::bad_array_new_length::`RTTI Complete Object Locator'
PUBLIC	??_R3bad_array_new_length@std@@8		; std::bad_array_new_length::`RTTI Class Hierarchy Descriptor'
PUBLIC	??_R2bad_array_new_length@std@@8		; std::bad_array_new_length::`RTTI Base Class Array'
PUBLIC	??_R1A@?0A@EA@bad_array_new_length@std@@8	; std::bad_array_new_length::`RTTI Base Class Descriptor at (0,-1,0,64)'
PUBLIC	??_R4?$basic_stringbuf@DU?$char_traits@D@std@@V?$allocator@D@2@@std@@6B@ ; std::basic_stringbuf<char,std::char_traits<char>,std::allocator<char> >::`RTTI Complete Object Locator'
PUBLIC	??_R0?AV?$basic_stringbuf@DU?$char_traits@D@std@@V?$allocator@D@2@@std@@@8 ; std::basic_stringbuf<char,std::char_traits<char>,std::allocator<char> > `RTTI Type Descriptor'
PUBLIC	??_R3?$basic_stringbuf@DU?$char_traits@D@std@@V?$allocator@D@2@@std@@8 ; std::basic_stringbuf<char,std::char_traits<char>,std::allocator<char> >::`RTTI Class Hierarchy Descriptor'
PUBLIC	??_R2?$basic_stringbuf@DU?$char_traits@D@std@@V?$allocator@D@2@@std@@8 ; std::basic_stringbuf<char,std::char_traits<char>,std::allocator<char> >::`RTTI Base Class Array'
PUBLIC	??_R1A@?0A@EA@?$basic_stringbuf@DU?$char_traits@D@std@@V?$allocator@D@2@@std@@8 ; std::basic_stringbuf<char,std::char_traits<char>,std::allocator<char> >::`RTTI Base Class Descriptor at (0,-1,0,64)'
PUBLIC	??_R1A@?0A@EA@?$basic_streambuf@DU?$char_traits@D@std@@@std@@8 ; std::basic_streambuf<char,std::char_traits<char> >::`RTTI Base Class Descriptor at (0,-1,0,64)'
PUBLIC	??_R0?AV?$basic_streambuf@DU?$char_traits@D@std@@@std@@@8 ; std::basic_streambuf<char,std::char_traits<char> > `RTTI Type Descriptor'
PUBLIC	??_R3?$basic_streambuf@DU?$char_traits@D@std@@@std@@8 ; std::basic_streambuf<char,std::char_traits<char> >::`RTTI Class Hierarchy Descriptor'
PUBLIC	??_R2?$basic_streambuf@DU?$char_traits@D@std@@@std@@8 ; std::basic_streambuf<char,std::char_traits<char> >::`RTTI Base Class Array'
PUBLIC	??_R4?$basic_stringstream@DU?$char_traits@D@std@@V?$allocator@D@2@@std@@6B@ ; std::basic_stringstream<char,std::char_traits<char>,std::allocator<char> >::`RTTI Complete Object Locator'
PUBLIC	??_R0?AV?$basic_stringstream@DU?$char_traits@D@std@@V?$allocator@D@2@@std@@@8 ; std::basic_stringstream<char,std::char_traits<char>,std::allocator<char> > `RTTI Type Descriptor'
PUBLIC	??_R3?$basic_stringstream@DU?$char_traits@D@std@@V?$allocator@D@2@@std@@8 ; std::basic_stringstream<char,std::char_traits<char>,std::allocator<char> >::`RTTI Class Hierarchy Descriptor'
PUBLIC	??_R2?$basic_stringstream@DU?$char_traits@D@std@@V?$allocator@D@2@@std@@8 ; std::basic_stringstream<char,std::char_traits<char>,std::allocator<char> >::`RTTI Base Class Array'
PUBLIC	??_R1A@?0A@EA@?$basic_stringstream@DU?$char_traits@D@std@@V?$allocator@D@2@@std@@8 ; std::basic_stringstream<char,std::char_traits<char>,std::allocator<char> >::`RTTI Base Class Descriptor at (0,-1,0,64)'
PUBLIC	??_R1A@?0A@EA@?$basic_iostream@DU?$char_traits@D@std@@@std@@8 ; std::basic_iostream<char,std::char_traits<char> >::`RTTI Base Class Descriptor at (0,-1,0,64)'
PUBLIC	??_R0?AV?$basic_iostream@DU?$char_traits@D@std@@@std@@@8 ; std::basic_iostream<char,std::char_traits<char> > `RTTI Type Descriptor'
PUBLIC	??_R3?$basic_iostream@DU?$char_traits@D@std@@@std@@8 ; std::basic_iostream<char,std::char_traits<char> >::`RTTI Class Hierarchy Descriptor'
PUBLIC	??_R2?$basic_iostream@DU?$char_traits@D@std@@@std@@8 ; std::basic_iostream<char,std::char_traits<char> >::`RTTI Base Class Array'
PUBLIC	??_R1A@?0A@EA@?$basic_istream@DU?$char_traits@D@std@@@std@@8 ; std::basic_istream<char,std::char_traits<char> >::`RTTI Base Class Descriptor at (0,-1,0,64)'
PUBLIC	??_R0?AV?$basic_istream@DU?$char_traits@D@std@@@std@@@8 ; std::basic_istream<char,std::char_traits<char> > `RTTI Type Descriptor'
PUBLIC	??_R3?$basic_istream@DU?$char_traits@D@std@@@std@@8 ; std::basic_istream<char,std::char_traits<char> >::`RTTI Class Hierarchy Descriptor'
PUBLIC	??_R2?$basic_istream@DU?$char_traits@D@std@@@std@@8 ; std::basic_istream<char,std::char_traits<char> >::`RTTI Base Class Array'
PUBLIC	??_R1A@A@3FA@?$basic_ios@DU?$char_traits@D@std@@@std@@8 ; std::basic_ios<char,std::char_traits<char> >::`RTTI Base Class Descriptor at (0,0,4,80)'
PUBLIC	??_R0?AV?$basic_ios@DU?$char_traits@D@std@@@std@@@8 ; std::basic_ios<char,std::char_traits<char> > `RTTI Type Descriptor'
PUBLIC	??_R3?$basic_ios@DU?$char_traits@D@std@@@std@@8	; std::basic_ios<char,std::char_traits<char> >::`RTTI Class Hierarchy Descriptor'
PUBLIC	??_R2?$basic_ios@DU?$char_traits@D@std@@@std@@8	; std::basic_ios<char,std::char_traits<char> >::`RTTI Base Class Array'
PUBLIC	??_R1A@?0A@EA@?$basic_ios@DU?$char_traits@D@std@@@std@@8 ; std::basic_ios<char,std::char_traits<char> >::`RTTI Base Class Descriptor at (0,-1,0,64)'
PUBLIC	??_R1A@?0A@EA@ios_base@std@@8			; std::ios_base::`RTTI Base Class Descriptor at (0,-1,0,64)'
PUBLIC	??_R0?AVios_base@std@@@8			; std::ios_base `RTTI Type Descriptor'
PUBLIC	??_R3ios_base@std@@8				; std::ios_base::`RTTI Class Hierarchy Descriptor'
PUBLIC	??_R2ios_base@std@@8				; std::ios_base::`RTTI Base Class Array'
PUBLIC	??_R17?0A@EA@?$_Iosb@H@std@@8			; std::_Iosb<int>::`RTTI Base Class Descriptor at (8,-1,0,64)'
PUBLIC	??_R0?AV?$_Iosb@H@std@@@8			; std::_Iosb<int> `RTTI Type Descriptor'
PUBLIC	??_R3?$_Iosb@H@std@@8				; std::_Iosb<int>::`RTTI Class Hierarchy Descriptor'
PUBLIC	??_R2?$_Iosb@H@std@@8				; std::_Iosb<int>::`RTTI Base Class Array'
PUBLIC	??_R1A@?0A@EA@?$_Iosb@H@std@@8			; std::_Iosb<int>::`RTTI Base Class Descriptor at (0,-1,0,64)'
PUBLIC	??_R1A@A@3EA@ios_base@std@@8			; std::ios_base::`RTTI Base Class Descriptor at (0,0,4,64)'
PUBLIC	??_R17A@3EA@?$_Iosb@H@std@@8			; std::_Iosb<int>::`RTTI Base Class Descriptor at (8,0,4,64)'
PUBLIC	??_R1BA@?0A@EA@?$basic_ostream@DU?$char_traits@D@std@@@std@@8 ; std::basic_ostream<char,std::char_traits<char> >::`RTTI Base Class Descriptor at (16,-1,0,64)'
PUBLIC	??_R0?AV?$basic_ostream@DU?$char_traits@D@std@@@std@@@8 ; std::basic_ostream<char,std::char_traits<char> > `RTTI Type Descriptor'
PUBLIC	??_R3?$basic_ostream@DU?$char_traits@D@std@@@std@@8 ; std::basic_ostream<char,std::char_traits<char> >::`RTTI Class Hierarchy Descriptor'
PUBLIC	??_R2?$basic_ostream@DU?$char_traits@D@std@@@std@@8 ; std::basic_ostream<char,std::char_traits<char> >::`RTTI Base Class Array'
PUBLIC	??_R1A@?0A@EA@?$basic_ostream@DU?$char_traits@D@std@@@std@@8 ; std::basic_ostream<char,std::char_traits<char> >::`RTTI Base Class Descriptor at (0,-1,0,64)'
PUBLIC	??_R4bad_cast@std@@6B@				; std::bad_cast::`RTTI Complete Object Locator'
PUBLIC	??_R3bad_cast@std@@8				; std::bad_cast::`RTTI Class Hierarchy Descriptor'
PUBLIC	??_R2bad_cast@std@@8				; std::bad_cast::`RTTI Base Class Array'
PUBLIC	??_R1A@?0A@EA@bad_cast@std@@8			; std::bad_cast::`RTTI Base Class Descriptor at (0,-1,0,64)'
EXTRN	??2@YAPAXI@Z:PROC				; operator new
EXTRN	??3@YAXPAXI@Z:PROC				; operator delete
EXTRN	__imp___invalid_parameter:PROC
EXTRN	__imp___CrtDbgReport:PROC
EXTRN	__imp_??0_Lockit@std@@QAE@H@Z:PROC
EXTRN	__imp_??1_Lockit@std@@QAE@XZ:PROC
EXTRN	__imp____acrt_iob_func:PROC
EXTRN	__imp____stdio_common_vfprintf:PROC
EXTRN	___std_exception_copy:PROC
EXTRN	___std_exception_destroy:PROC
EXTRN	??_Eexception@std@@UAEPAXI@Z:PROC		; std::exception::`vector deleting destructor'
EXTRN	??_Ebad_alloc@std@@UAEPAXI@Z:PROC		; std::bad_alloc::`vector deleting destructor'
EXTRN	??_Ebad_array_new_length@std@@UAEPAXI@Z:PROC	; std::bad_array_new_length::`vector deleting destructor'
EXTRN	_memcpy:PROC
EXTRN	?_Xbad_alloc@std@@YAXXZ:PROC			; std::_Xbad_alloc
EXTRN	?_Xlength_error@std@@YAXPBD@Z:PROC		; std::_Xlength_error
EXTRN	?_Xout_of_range@std@@YAXPBD@Z:PROC		; std::_Xout_of_range
EXTRN	??_Ebad_cast@std@@UAEPAXI@Z:PROC		; std::bad_cast::`vector deleting destructor'
EXTRN	?_Facet_Register@std@@YAXPAV_Facet_base@1@@Z:PROC ; std::_Facet_Register
EXTRN	__imp__setlocale:PROC
EXTRN	__imp_??Bid@locale@std@@QAEIXZ:PROC
EXTRN	?_Getgloballocale@locale@std@@CAPAV_Locimp@12@XZ:PROC ; std::locale::_Getgloballocale
EXTRN	__imp_?is@?$ctype@D@std@@QBE_NFD@Z:PROC
EXTRN	__imp_?_Getcat@?$ctype@D@std@@SAIPAPBVfacet@locale@2@PBV42@@Z:PROC
EXTRN	__imp_?width@ios_base@std@@QBE_JXZ:PROC
EXTRN	__imp_?width@ios_base@std@@QAE_J_J@Z:PROC
EXTRN	__imp_?getloc@ios_base@std@@QBE?AVlocale@2@XZ:PROC
EXTRN	__imp_??0?$basic_streambuf@DU?$char_traits@D@std@@@std@@IAE@XZ:PROC
EXTRN	__imp_??1?$basic_streambuf@DU?$char_traits@D@std@@@std@@UAE@XZ:PROC
EXTRN	__imp_?sgetc@?$basic_streambuf@DU?$char_traits@D@std@@@std@@QAEHXZ:PROC
EXTRN	__imp_?snextc@?$basic_streambuf@DU?$char_traits@D@std@@@std@@QAEHXZ:PROC
EXTRN	__imp_?eback@?$basic_streambuf@DU?$char_traits@D@std@@@std@@IBEPADXZ:PROC
EXTRN	__imp_?gptr@?$basic_streambuf@DU?$char_traits@D@std@@@std@@IBEPADXZ:PROC
EXTRN	__imp_?pptr@?$basic_streambuf@DU?$char_traits@D@std@@@std@@IBEPADXZ:PROC
EXTRN	__imp_?egptr@?$basic_streambuf@DU?$char_traits@D@std@@@std@@IBEPADXZ:PROC
EXTRN	__imp_?gbump@?$basic_streambuf@DU?$char_traits@D@std@@@std@@IAEXH@Z:PROC
EXTRN	__imp_?setg@?$basic_streambuf@DU?$char_traits@D@std@@@std@@IAEXPAD00@Z:PROC
EXTRN	__imp_?epptr@?$basic_streambuf@DU?$char_traits@D@std@@@std@@IBEPADXZ:PROC
EXTRN	__imp_?setp@?$basic_streambuf@DU?$char_traits@D@std@@@std@@IAEXPAD0@Z:PROC
EXTRN	__imp_?setp@?$basic_streambuf@DU?$char_traits@D@std@@@std@@IAEXPAD00@Z:PROC
EXTRN	__imp_?_Pninc@?$basic_streambuf@DU?$char_traits@D@std@@@std@@IAEPADXZ:PROC
EXTRN	__imp_??1?$basic_ios@DU?$char_traits@D@std@@@std@@UAE@XZ:PROC
EXTRN	__imp_?setstate@?$basic_ios@DU?$char_traits@D@std@@@std@@QAEXH_N@Z:PROC
EXTRN	__imp_?rdbuf@?$basic_ios@DU?$char_traits@D@std@@@std@@QBEPAV?$basic_streambuf@DU?$char_traits@D@std@@@2@XZ:PROC
EXTRN	__imp_??0?$basic_ios@DU?$char_traits@D@std@@@std@@IAE@XZ:PROC
EXTRN	__imp_?_Ipfx@?$basic_istream@DU?$char_traits@D@std@@@std@@QAE_N_N@Z:PROC
EXTRN	__imp_??5?$basic_istream@DU?$char_traits@D@std@@@std@@QAEAAV01@AAH@Z:PROC
EXTRN	__imp_??0?$basic_iostream@DU?$char_traits@D@std@@@std@@QAE@PAV?$basic_streambuf@DU?$char_traits@D@std@@@1@@Z:PROC
EXTRN	__imp_??1?$basic_iostream@DU?$char_traits@D@std@@@std@@UAE@XZ:PROC
EXTRN	?LeapYear@@YA_NH@Z:PROC				; LeapYear
EXTRN	?FindNum@@YAHHH_N@Z:PROC			; FindNum
EXTRN	??_E?$basic_stringbuf@DU?$char_traits@D@std@@V?$allocator@D@2@@std@@UAEPAXI@Z:PROC ; std::basic_stringbuf<char,std::char_traits<char>,std::allocator<char> >::`vector deleting destructor'
EXTRN	??_E?$basic_stringstream@DU?$char_traits@D@std@@V?$allocator@D@2@@std@@UAEPAXI@Z:PROC ; std::basic_stringstream<char,std::char_traits<char>,std::allocator<char> >::`vector deleting destructor'
EXTRN	?_Lock@?$basic_streambuf@DU?$char_traits@D@std@@@std@@UAEXXZ:PROC ; std::basic_streambuf<char,std::char_traits<char> >::_Lock
EXTRN	?_Unlock@?$basic_streambuf@DU?$char_traits@D@std@@@std@@UAEXXZ:PROC ; std::basic_streambuf<char,std::char_traits<char> >::_Unlock
EXTRN	?imbue@?$basic_streambuf@DU?$char_traits@D@std@@@std@@MAEXABVlocale@2@@Z:PROC ; std::basic_streambuf<char,std::char_traits<char> >::imbue
EXTRN	?setbuf@?$basic_streambuf@DU?$char_traits@D@std@@@std@@MAEPAV12@PAD_J@Z:PROC ; std::basic_streambuf<char,std::char_traits<char> >::setbuf
EXTRN	?showmanyc@?$basic_streambuf@DU?$char_traits@D@std@@@std@@MAE_JXZ:PROC ; std::basic_streambuf<char,std::char_traits<char> >::showmanyc
EXTRN	?sync@?$basic_streambuf@DU?$char_traits@D@std@@@std@@MAEHXZ:PROC ; std::basic_streambuf<char,std::char_traits<char> >::sync
EXTRN	?uflow@?$basic_streambuf@DU?$char_traits@D@std@@@std@@MAEHXZ:PROC ; std::basic_streambuf<char,std::char_traits<char> >::uflow
EXTRN	?xsgetn@?$basic_streambuf@DU?$char_traits@D@std@@@std@@MAE_JPAD_J@Z:PROC ; std::basic_streambuf<char,std::char_traits<char> >::xsgetn
EXTRN	?xsputn@?$basic_streambuf@DU?$char_traits@D@std@@@std@@MAE_JPBD_J@Z:PROC ; std::basic_streambuf<char,std::char_traits<char> >::xsputn
EXTRN	@_RTC_CheckStackVars@8:PROC
EXTRN	@__CheckForDebuggerJustMyCode@4:PROC
EXTRN	@__security_check_cookie@4:PROC
EXTRN	__CxxThrowException@8:PROC
EXTRN	__RTC_CheckEsp:PROC
EXTRN	__RTC_InitBase:PROC
EXTRN	__RTC_Shutdown:PROC
EXTRN	___CxxFrameHandler3:PROC
EXTRN	_memset:PROC
EXTRN	??_7type_info@@6B@:QWORD			; type_info::`vftable'
EXTRN	__imp_?id@?$ctype@D@std@@2V0locale@2@A:DWORD
EXTRN	__imp_?cin@std@@3V?$basic_istream@DU?$char_traits@D@std@@@1@A:BYTE
EXTRN	___security_cookie:DWORD
;	COMDAT ?_OptionsStorage@?1??__local_stdio_printf_options@@9@4_KA
_BSS	SEGMENT
?_OptionsStorage@?1??__local_stdio_printf_options@@9@4_KA DQ 01H DUP (?) ; `__local_stdio_printf_options'::`2'::_OptionsStorage
_BSS	ENDS
;	COMDAT ?_Psave@?$_Facetptr@V?$ctype@D@std@@@std@@2PBVfacet@locale@2@B
_BSS	SEGMENT
?_Psave@?$_Facetptr@V?$ctype@D@std@@@std@@2PBVfacet@locale@2@B DD 01H DUP (?) ; std::_Facetptr<std::ctype<char> >::_Psave
_BSS	ENDS
;	COMDAT rtc$TMZ
rtc$TMZ	SEGMENT
__RTC_Shutdown.rtc$TMZ DD FLAT:__RTC_Shutdown
rtc$TMZ	ENDS
;	COMDAT rtc$IMZ
rtc$IMZ	SEGMENT
__RTC_InitBase.rtc$IMZ DD FLAT:__RTC_InitBase
rtc$IMZ	ENDS
;	COMDAT ??_R1A@?0A@EA@bad_cast@std@@8
rdata$r	SEGMENT
??_R1A@?0A@EA@bad_cast@std@@8 DD FLAT:??_R0?AVbad_cast@std@@@8 ; std::bad_cast::`RTTI Base Class Descriptor at (0,-1,0,64)'
	DD	01H
	DD	00H
	DD	0ffffffffH
	DD	00H
	DD	040H
	DD	FLAT:??_R3bad_cast@std@@8
rdata$r	ENDS
;	COMDAT ??_R2bad_cast@std@@8
rdata$r	SEGMENT
??_R2bad_cast@std@@8 DD FLAT:??_R1A@?0A@EA@bad_cast@std@@8 ; std::bad_cast::`RTTI Base Class Array'
	DD	FLAT:??_R1A@?0A@EA@exception@std@@8
rdata$r	ENDS
;	COMDAT ??_R3bad_cast@std@@8
rdata$r	SEGMENT
??_R3bad_cast@std@@8 DD 00H				; std::bad_cast::`RTTI Class Hierarchy Descriptor'
	DD	00H
	DD	02H
	DD	FLAT:??_R2bad_cast@std@@8
rdata$r	ENDS
;	COMDAT ??_R4bad_cast@std@@6B@
rdata$r	SEGMENT
??_R4bad_cast@std@@6B@ DD 00H				; std::bad_cast::`RTTI Complete Object Locator'
	DD	00H
	DD	00H
	DD	FLAT:??_R0?AVbad_cast@std@@@8
	DD	FLAT:??_R3bad_cast@std@@8
rdata$r	ENDS
;	COMDAT ??_R1A@?0A@EA@?$basic_ostream@DU?$char_traits@D@std@@@std@@8
rdata$r	SEGMENT
??_R1A@?0A@EA@?$basic_ostream@DU?$char_traits@D@std@@@std@@8 DD FLAT:??_R0?AV?$basic_ostream@DU?$char_traits@D@std@@@std@@@8 ; std::basic_ostream<char,std::char_traits<char> >::`RTTI Base Class Descriptor at (0,-1,0,64)'
	DD	03H
	DD	00H
	DD	0ffffffffH
	DD	00H
	DD	040H
	DD	FLAT:??_R3?$basic_ostream@DU?$char_traits@D@std@@@std@@8
rdata$r	ENDS
;	COMDAT ??_R2?$basic_ostream@DU?$char_traits@D@std@@@std@@8
rdata$r	SEGMENT
??_R2?$basic_ostream@DU?$char_traits@D@std@@@std@@8 DD FLAT:??_R1A@?0A@EA@?$basic_ostream@DU?$char_traits@D@std@@@std@@8 ; std::basic_ostream<char,std::char_traits<char> >::`RTTI Base Class Array'
	DD	FLAT:??_R1A@A@3FA@?$basic_ios@DU?$char_traits@D@std@@@std@@8
	DD	FLAT:??_R1A@A@3EA@ios_base@std@@8
	DD	FLAT:??_R17A@3EA@?$_Iosb@H@std@@8
rdata$r	ENDS
;	COMDAT ??_R3?$basic_ostream@DU?$char_traits@D@std@@@std@@8
rdata$r	SEGMENT
??_R3?$basic_ostream@DU?$char_traits@D@std@@@std@@8 DD 00H ; std::basic_ostream<char,std::char_traits<char> >::`RTTI Class Hierarchy Descriptor'
	DD	00H
	DD	04H
	DD	FLAT:??_R2?$basic_ostream@DU?$char_traits@D@std@@@std@@8
rdata$r	ENDS
;	COMDAT ??_R0?AV?$basic_ostream@DU?$char_traits@D@std@@@std@@@8
data$r	SEGMENT
??_R0?AV?$basic_ostream@DU?$char_traits@D@std@@@std@@@8 DD FLAT:??_7type_info@@6B@ ; std::basic_ostream<char,std::char_traits<char> > `RTTI Type Descriptor'
	DD	00H
	DB	'.?AV?$basic_ostream@DU?$char_traits@D@std@@@std@@', 00H
data$r	ENDS
;	COMDAT ??_R1BA@?0A@EA@?$basic_ostream@DU?$char_traits@D@std@@@std@@8
rdata$r	SEGMENT
??_R1BA@?0A@EA@?$basic_ostream@DU?$char_traits@D@std@@@std@@8 DD FLAT:??_R0?AV?$basic_ostream@DU?$char_traits@D@std@@@std@@@8 ; std::basic_ostream<char,std::char_traits<char> >::`RTTI Base Class Descriptor at (16,-1,0,64)'
	DD	03H
	DD	010H
	DD	0ffffffffH
	DD	00H
	DD	040H
	DD	FLAT:??_R3?$basic_ostream@DU?$char_traits@D@std@@@std@@8
rdata$r	ENDS
;	COMDAT ??_R17A@3EA@?$_Iosb@H@std@@8
rdata$r	SEGMENT
??_R17A@3EA@?$_Iosb@H@std@@8 DD FLAT:??_R0?AV?$_Iosb@H@std@@@8 ; std::_Iosb<int>::`RTTI Base Class Descriptor at (8,0,4,64)'
	DD	00H
	DD	08H
	DD	00H
	DD	04H
	DD	040H
	DD	FLAT:??_R3?$_Iosb@H@std@@8
rdata$r	ENDS
;	COMDAT ??_R1A@A@3EA@ios_base@std@@8
rdata$r	SEGMENT
??_R1A@A@3EA@ios_base@std@@8 DD FLAT:??_R0?AVios_base@std@@@8 ; std::ios_base::`RTTI Base Class Descriptor at (0,0,4,64)'
	DD	01H
	DD	00H
	DD	00H
	DD	04H
	DD	040H
	DD	FLAT:??_R3ios_base@std@@8
rdata$r	ENDS
;	COMDAT ??_R1A@?0A@EA@?$_Iosb@H@std@@8
rdata$r	SEGMENT
??_R1A@?0A@EA@?$_Iosb@H@std@@8 DD FLAT:??_R0?AV?$_Iosb@H@std@@@8 ; std::_Iosb<int>::`RTTI Base Class Descriptor at (0,-1,0,64)'
	DD	00H
	DD	00H
	DD	0ffffffffH
	DD	00H
	DD	040H
	DD	FLAT:??_R3?$_Iosb@H@std@@8
rdata$r	ENDS
;	COMDAT ??_R2?$_Iosb@H@std@@8
rdata$r	SEGMENT
??_R2?$_Iosb@H@std@@8 DD FLAT:??_R1A@?0A@EA@?$_Iosb@H@std@@8 ; std::_Iosb<int>::`RTTI Base Class Array'
rdata$r	ENDS
;	COMDAT ??_R3?$_Iosb@H@std@@8
rdata$r	SEGMENT
??_R3?$_Iosb@H@std@@8 DD 00H				; std::_Iosb<int>::`RTTI Class Hierarchy Descriptor'
	DD	00H
	DD	01H
	DD	FLAT:??_R2?$_Iosb@H@std@@8
rdata$r	ENDS
;	COMDAT ??_R0?AV?$_Iosb@H@std@@@8
data$r	SEGMENT
??_R0?AV?$_Iosb@H@std@@@8 DD FLAT:??_7type_info@@6B@	; std::_Iosb<int> `RTTI Type Descriptor'
	DD	00H
	DB	'.?AV?$_Iosb@H@std@@', 00H
data$r	ENDS
;	COMDAT ??_R17?0A@EA@?$_Iosb@H@std@@8
rdata$r	SEGMENT
??_R17?0A@EA@?$_Iosb@H@std@@8 DD FLAT:??_R0?AV?$_Iosb@H@std@@@8 ; std::_Iosb<int>::`RTTI Base Class Descriptor at (8,-1,0,64)'
	DD	00H
	DD	08H
	DD	0ffffffffH
	DD	00H
	DD	040H
	DD	FLAT:??_R3?$_Iosb@H@std@@8
rdata$r	ENDS
;	COMDAT ??_R2ios_base@std@@8
rdata$r	SEGMENT
??_R2ios_base@std@@8 DD FLAT:??_R1A@?0A@EA@ios_base@std@@8 ; std::ios_base::`RTTI Base Class Array'
	DD	FLAT:??_R17?0A@EA@?$_Iosb@H@std@@8
rdata$r	ENDS
;	COMDAT ??_R3ios_base@std@@8
rdata$r	SEGMENT
??_R3ios_base@std@@8 DD 00H				; std::ios_base::`RTTI Class Hierarchy Descriptor'
	DD	00H
	DD	02H
	DD	FLAT:??_R2ios_base@std@@8
rdata$r	ENDS
;	COMDAT ??_R0?AVios_base@std@@@8
data$r	SEGMENT
??_R0?AVios_base@std@@@8 DD FLAT:??_7type_info@@6B@	; std::ios_base `RTTI Type Descriptor'
	DD	00H
	DB	'.?AVios_base@std@@', 00H
data$r	ENDS
;	COMDAT ??_R1A@?0A@EA@ios_base@std@@8
rdata$r	SEGMENT
??_R1A@?0A@EA@ios_base@std@@8 DD FLAT:??_R0?AVios_base@std@@@8 ; std::ios_base::`RTTI Base Class Descriptor at (0,-1,0,64)'
	DD	01H
	DD	00H
	DD	0ffffffffH
	DD	00H
	DD	040H
	DD	FLAT:??_R3ios_base@std@@8
rdata$r	ENDS
;	COMDAT ??_R1A@?0A@EA@?$basic_ios@DU?$char_traits@D@std@@@std@@8
rdata$r	SEGMENT
??_R1A@?0A@EA@?$basic_ios@DU?$char_traits@D@std@@@std@@8 DD FLAT:??_R0?AV?$basic_ios@DU?$char_traits@D@std@@@std@@@8 ; std::basic_ios<char,std::char_traits<char> >::`RTTI Base Class Descriptor at (0,-1,0,64)'
	DD	02H
	DD	00H
	DD	0ffffffffH
	DD	00H
	DD	040H
	DD	FLAT:??_R3?$basic_ios@DU?$char_traits@D@std@@@std@@8
rdata$r	ENDS
;	COMDAT ??_R2?$basic_ios@DU?$char_traits@D@std@@@std@@8
rdata$r	SEGMENT
??_R2?$basic_ios@DU?$char_traits@D@std@@@std@@8 DD FLAT:??_R1A@?0A@EA@?$basic_ios@DU?$char_traits@D@std@@@std@@8 ; std::basic_ios<char,std::char_traits<char> >::`RTTI Base Class Array'
	DD	FLAT:??_R1A@?0A@EA@ios_base@std@@8
	DD	FLAT:??_R17?0A@EA@?$_Iosb@H@std@@8
rdata$r	ENDS
;	COMDAT ??_R3?$basic_ios@DU?$char_traits@D@std@@@std@@8
rdata$r	SEGMENT
??_R3?$basic_ios@DU?$char_traits@D@std@@@std@@8 DD 00H	; std::basic_ios<char,std::char_traits<char> >::`RTTI Class Hierarchy Descriptor'
	DD	00H
	DD	03H
	DD	FLAT:??_R2?$basic_ios@DU?$char_traits@D@std@@@std@@8
rdata$r	ENDS
;	COMDAT ??_R0?AV?$basic_ios@DU?$char_traits@D@std@@@std@@@8
data$r	SEGMENT
??_R0?AV?$basic_ios@DU?$char_traits@D@std@@@std@@@8 DD FLAT:??_7type_info@@6B@ ; std::basic_ios<char,std::char_traits<char> > `RTTI Type Descriptor'
	DD	00H
	DB	'.?AV?$basic_ios@DU?$char_traits@D@std@@@std@@', 00H
data$r	ENDS
;	COMDAT ??_R1A@A@3FA@?$basic_ios@DU?$char_traits@D@std@@@std@@8
rdata$r	SEGMENT
??_R1A@A@3FA@?$basic_ios@DU?$char_traits@D@std@@@std@@8 DD FLAT:??_R0?AV?$basic_ios@DU?$char_traits@D@std@@@std@@@8 ; std::basic_ios<char,std::char_traits<char> >::`RTTI Base Class Descriptor at (0,0,4,80)'
	DD	02H
	DD	00H
	DD	00H
	DD	04H
	DD	050H
	DD	FLAT:??_R3?$basic_ios@DU?$char_traits@D@std@@@std@@8
rdata$r	ENDS
;	COMDAT ??_R2?$basic_istream@DU?$char_traits@D@std@@@std@@8
rdata$r	SEGMENT
??_R2?$basic_istream@DU?$char_traits@D@std@@@std@@8 DD FLAT:??_R1A@?0A@EA@?$basic_istream@DU?$char_traits@D@std@@@std@@8 ; std::basic_istream<char,std::char_traits<char> >::`RTTI Base Class Array'
	DD	FLAT:??_R1A@A@3FA@?$basic_ios@DU?$char_traits@D@std@@@std@@8
	DD	FLAT:??_R1A@A@3EA@ios_base@std@@8
	DD	FLAT:??_R17A@3EA@?$_Iosb@H@std@@8
rdata$r	ENDS
;	COMDAT ??_R3?$basic_istream@DU?$char_traits@D@std@@@std@@8
rdata$r	SEGMENT
??_R3?$basic_istream@DU?$char_traits@D@std@@@std@@8 DD 00H ; std::basic_istream<char,std::char_traits<char> >::`RTTI Class Hierarchy Descriptor'
	DD	00H
	DD	04H
	DD	FLAT:??_R2?$basic_istream@DU?$char_traits@D@std@@@std@@8
rdata$r	ENDS
;	COMDAT ??_R0?AV?$basic_istream@DU?$char_traits@D@std@@@std@@@8
data$r	SEGMENT
??_R0?AV?$basic_istream@DU?$char_traits@D@std@@@std@@@8 DD FLAT:??_7type_info@@6B@ ; std::basic_istream<char,std::char_traits<char> > `RTTI Type Descriptor'
	DD	00H
	DB	'.?AV?$basic_istream@DU?$char_traits@D@std@@@std@@', 00H
data$r	ENDS
;	COMDAT ??_R1A@?0A@EA@?$basic_istream@DU?$char_traits@D@std@@@std@@8
rdata$r	SEGMENT
??_R1A@?0A@EA@?$basic_istream@DU?$char_traits@D@std@@@std@@8 DD FLAT:??_R0?AV?$basic_istream@DU?$char_traits@D@std@@@std@@@8 ; std::basic_istream<char,std::char_traits<char> >::`RTTI Base Class Descriptor at (0,-1,0,64)'
	DD	03H
	DD	00H
	DD	0ffffffffH
	DD	00H
	DD	040H
	DD	FLAT:??_R3?$basic_istream@DU?$char_traits@D@std@@@std@@8
rdata$r	ENDS
;	COMDAT ??_R2?$basic_iostream@DU?$char_traits@D@std@@@std@@8
rdata$r	SEGMENT
??_R2?$basic_iostream@DU?$char_traits@D@std@@@std@@8 DD FLAT:??_R1A@?0A@EA@?$basic_iostream@DU?$char_traits@D@std@@@std@@8 ; std::basic_iostream<char,std::char_traits<char> >::`RTTI Base Class Array'
	DD	FLAT:??_R1A@?0A@EA@?$basic_istream@DU?$char_traits@D@std@@@std@@8
	DD	FLAT:??_R1A@A@3FA@?$basic_ios@DU?$char_traits@D@std@@@std@@8
	DD	FLAT:??_R1A@A@3EA@ios_base@std@@8
	DD	FLAT:??_R17A@3EA@?$_Iosb@H@std@@8
	DD	FLAT:??_R1BA@?0A@EA@?$basic_ostream@DU?$char_traits@D@std@@@std@@8
	DD	FLAT:??_R1A@A@3FA@?$basic_ios@DU?$char_traits@D@std@@@std@@8
	DD	FLAT:??_R1A@A@3EA@ios_base@std@@8
	DD	FLAT:??_R17A@3EA@?$_Iosb@H@std@@8
rdata$r	ENDS
;	COMDAT ??_R3?$basic_iostream@DU?$char_traits@D@std@@@std@@8
rdata$r	SEGMENT
??_R3?$basic_iostream@DU?$char_traits@D@std@@@std@@8 DD 00H ; std::basic_iostream<char,std::char_traits<char> >::`RTTI Class Hierarchy Descriptor'
	DD	03H
	DD	09H
	DD	FLAT:??_R2?$basic_iostream@DU?$char_traits@D@std@@@std@@8
rdata$r	ENDS
;	COMDAT ??_R0?AV?$basic_iostream@DU?$char_traits@D@std@@@std@@@8
data$r	SEGMENT
??_R0?AV?$basic_iostream@DU?$char_traits@D@std@@@std@@@8 DD FLAT:??_7type_info@@6B@ ; std::basic_iostream<char,std::char_traits<char> > `RTTI Type Descriptor'
	DD	00H
	DB	'.?AV?$basic_iostream@DU?$char_traits@D@std@@@std@@', 00H
data$r	ENDS
;	COMDAT ??_R1A@?0A@EA@?$basic_iostream@DU?$char_traits@D@std@@@std@@8
rdata$r	SEGMENT
??_R1A@?0A@EA@?$basic_iostream@DU?$char_traits@D@std@@@std@@8 DD FLAT:??_R0?AV?$basic_iostream@DU?$char_traits@D@std@@@std@@@8 ; std::basic_iostream<char,std::char_traits<char> >::`RTTI Base Class Descriptor at (0,-1,0,64)'
	DD	08H
	DD	00H
	DD	0ffffffffH
	DD	00H
	DD	040H
	DD	FLAT:??_R3?$basic_iostream@DU?$char_traits@D@std@@@std@@8
rdata$r	ENDS
;	COMDAT ??_R1A@?0A@EA@?$basic_stringstream@DU?$char_traits@D@std@@V?$allocator@D@2@@std@@8
rdata$r	SEGMENT
??_R1A@?0A@EA@?$basic_stringstream@DU?$char_traits@D@std@@V?$allocator@D@2@@std@@8 DD FLAT:??_R0?AV?$basic_stringstream@DU?$char_traits@D@std@@V?$allocator@D@2@@std@@@8 ; std::basic_stringstream<char,std::char_traits<char>,std::allocator<char> >::`RTTI Base Class Descriptor at (0,-1,0,64)'
	DD	09H
	DD	00H
	DD	0ffffffffH
	DD	00H
	DD	040H
	DD	FLAT:??_R3?$basic_stringstream@DU?$char_traits@D@std@@V?$allocator@D@2@@std@@8
rdata$r	ENDS
;	COMDAT ??_R2?$basic_stringstream@DU?$char_traits@D@std@@V?$allocator@D@2@@std@@8
rdata$r	SEGMENT
??_R2?$basic_stringstream@DU?$char_traits@D@std@@V?$allocator@D@2@@std@@8 DD FLAT:??_R1A@?0A@EA@?$basic_stringstream@DU?$char_traits@D@std@@V?$allocator@D@2@@std@@8 ; std::basic_stringstream<char,std::char_traits<char>,std::allocator<char> >::`RTTI Base Class Array'
	DD	FLAT:??_R1A@?0A@EA@?$basic_iostream@DU?$char_traits@D@std@@@std@@8
	DD	FLAT:??_R1A@?0A@EA@?$basic_istream@DU?$char_traits@D@std@@@std@@8
	DD	FLAT:??_R1A@A@3FA@?$basic_ios@DU?$char_traits@D@std@@@std@@8
	DD	FLAT:??_R1A@A@3EA@ios_base@std@@8
	DD	FLAT:??_R17A@3EA@?$_Iosb@H@std@@8
	DD	FLAT:??_R1BA@?0A@EA@?$basic_ostream@DU?$char_traits@D@std@@@std@@8
	DD	FLAT:??_R1A@A@3FA@?$basic_ios@DU?$char_traits@D@std@@@std@@8
	DD	FLAT:??_R1A@A@3EA@ios_base@std@@8
	DD	FLAT:??_R17A@3EA@?$_Iosb@H@std@@8
rdata$r	ENDS
;	COMDAT ??_R3?$basic_stringstream@DU?$char_traits@D@std@@V?$allocator@D@2@@std@@8
rdata$r	SEGMENT
??_R3?$basic_stringstream@DU?$char_traits@D@std@@V?$allocator@D@2@@std@@8 DD 00H ; std::basic_stringstream<char,std::char_traits<char>,std::allocator<char> >::`RTTI Class Hierarchy Descriptor'
	DD	03H
	DD	0aH
	DD	FLAT:??_R2?$basic_stringstream@DU?$char_traits@D@std@@V?$allocator@D@2@@std@@8
rdata$r	ENDS
;	COMDAT ??_R0?AV?$basic_stringstream@DU?$char_traits@D@std@@V?$allocator@D@2@@std@@@8
data$r	SEGMENT
??_R0?AV?$basic_stringstream@DU?$char_traits@D@std@@V?$allocator@D@2@@std@@@8 DD FLAT:??_7type_info@@6B@ ; std::basic_stringstream<char,std::char_traits<char>,std::allocator<char> > `RTTI Type Descriptor'
	DD	00H
	DB	'.?AV?$basic_stringstream@DU?$char_traits@D@std@@V?$alloc'
	DB	'ator@D@2@@std@@', 00H
data$r	ENDS
;	COMDAT ??_R4?$basic_stringstream@DU?$char_traits@D@std@@V?$allocator@D@2@@std@@6B@
rdata$r	SEGMENT
??_R4?$basic_stringstream@DU?$char_traits@D@std@@V?$allocator@D@2@@std@@6B@ DD 00H ; std::basic_stringstream<char,std::char_traits<char>,std::allocator<char> >::`RTTI Complete Object Locator'
	DD	068H
	DD	04H
	DD	FLAT:??_R0?AV?$basic_stringstream@DU?$char_traits@D@std@@V?$allocator@D@2@@std@@@8
	DD	FLAT:??_R3?$basic_stringstream@DU?$char_traits@D@std@@V?$allocator@D@2@@std@@8
rdata$r	ENDS
;	COMDAT ??_R2?$basic_streambuf@DU?$char_traits@D@std@@@std@@8
rdata$r	SEGMENT
??_R2?$basic_streambuf@DU?$char_traits@D@std@@@std@@8 DD FLAT:??_R1A@?0A@EA@?$basic_streambuf@DU?$char_traits@D@std@@@std@@8 ; std::basic_streambuf<char,std::char_traits<char> >::`RTTI Base Class Array'
rdata$r	ENDS
;	COMDAT ??_R3?$basic_streambuf@DU?$char_traits@D@std@@@std@@8
rdata$r	SEGMENT
??_R3?$basic_streambuf@DU?$char_traits@D@std@@@std@@8 DD 00H ; std::basic_streambuf<char,std::char_traits<char> >::`RTTI Class Hierarchy Descriptor'
	DD	00H
	DD	01H
	DD	FLAT:??_R2?$basic_streambuf@DU?$char_traits@D@std@@@std@@8
rdata$r	ENDS
;	COMDAT ??_R0?AV?$basic_streambuf@DU?$char_traits@D@std@@@std@@@8
data$r	SEGMENT
??_R0?AV?$basic_streambuf@DU?$char_traits@D@std@@@std@@@8 DD FLAT:??_7type_info@@6B@ ; std::basic_streambuf<char,std::char_traits<char> > `RTTI Type Descriptor'
	DD	00H
	DB	'.?AV?$basic_streambuf@DU?$char_traits@D@std@@@std@@', 00H
data$r	ENDS
;	COMDAT ??_R1A@?0A@EA@?$basic_streambuf@DU?$char_traits@D@std@@@std@@8
rdata$r	SEGMENT
??_R1A@?0A@EA@?$basic_streambuf@DU?$char_traits@D@std@@@std@@8 DD FLAT:??_R0?AV?$basic_streambuf@DU?$char_traits@D@std@@@std@@@8 ; std::basic_streambuf<char,std::char_traits<char> >::`RTTI Base Class Descriptor at (0,-1,0,64)'
	DD	00H
	DD	00H
	DD	0ffffffffH
	DD	00H
	DD	040H
	DD	FLAT:??_R3?$basic_streambuf@DU?$char_traits@D@std@@@std@@8
rdata$r	ENDS
;	COMDAT ??_R1A@?0A@EA@?$basic_stringbuf@DU?$char_traits@D@std@@V?$allocator@D@2@@std@@8
rdata$r	SEGMENT
??_R1A@?0A@EA@?$basic_stringbuf@DU?$char_traits@D@std@@V?$allocator@D@2@@std@@8 DD FLAT:??_R0?AV?$basic_stringbuf@DU?$char_traits@D@std@@V?$allocator@D@2@@std@@@8 ; std::basic_stringbuf<char,std::char_traits<char>,std::allocator<char> >::`RTTI Base Class Descriptor at (0,-1,0,64)'
	DD	01H
	DD	00H
	DD	0ffffffffH
	DD	00H
	DD	040H
	DD	FLAT:??_R3?$basic_stringbuf@DU?$char_traits@D@std@@V?$allocator@D@2@@std@@8
rdata$r	ENDS
;	COMDAT ??_R2?$basic_stringbuf@DU?$char_traits@D@std@@V?$allocator@D@2@@std@@8
rdata$r	SEGMENT
??_R2?$basic_stringbuf@DU?$char_traits@D@std@@V?$allocator@D@2@@std@@8 DD FLAT:??_R1A@?0A@EA@?$basic_stringbuf@DU?$char_traits@D@std@@V?$allocator@D@2@@std@@8 ; std::basic_stringbuf<char,std::char_traits<char>,std::allocator<char> >::`RTTI Base Class Array'
	DD	FLAT:??_R1A@?0A@EA@?$basic_streambuf@DU?$char_traits@D@std@@@std@@8
rdata$r	ENDS
;	COMDAT ??_R3?$basic_stringbuf@DU?$char_traits@D@std@@V?$allocator@D@2@@std@@8
rdata$r	SEGMENT
??_R3?$basic_stringbuf@DU?$char_traits@D@std@@V?$allocator@D@2@@std@@8 DD 00H ; std::basic_stringbuf<char,std::char_traits<char>,std::allocator<char> >::`RTTI Class Hierarchy Descriptor'
	DD	00H
	DD	02H
	DD	FLAT:??_R2?$basic_stringbuf@DU?$char_traits@D@std@@V?$allocator@D@2@@std@@8
rdata$r	ENDS
;	COMDAT ??_R0?AV?$basic_stringbuf@DU?$char_traits@D@std@@V?$allocator@D@2@@std@@@8
data$r	SEGMENT
??_R0?AV?$basic_stringbuf@DU?$char_traits@D@std@@V?$allocator@D@2@@std@@@8 DD FLAT:??_7type_info@@6B@ ; std::basic_stringbuf<char,std::char_traits<char>,std::allocator<char> > `RTTI Type Descriptor'
	DD	00H
	DB	'.?AV?$basic_stringbuf@DU?$char_traits@D@std@@V?$allocato'
	DB	'r@D@2@@std@@', 00H
data$r	ENDS
;	COMDAT ??_R4?$basic_stringbuf@DU?$char_traits@D@std@@V?$allocator@D@2@@std@@6B@
rdata$r	SEGMENT
??_R4?$basic_stringbuf@DU?$char_traits@D@std@@V?$allocator@D@2@@std@@6B@ DD 00H ; std::basic_stringbuf<char,std::char_traits<char>,std::allocator<char> >::`RTTI Complete Object Locator'
	DD	00H
	DD	00H
	DD	FLAT:??_R0?AV?$basic_stringbuf@DU?$char_traits@D@std@@V?$allocator@D@2@@std@@@8
	DD	FLAT:??_R3?$basic_stringbuf@DU?$char_traits@D@std@@V?$allocator@D@2@@std@@8
rdata$r	ENDS
;	COMDAT ??_R1A@?0A@EA@bad_array_new_length@std@@8
rdata$r	SEGMENT
??_R1A@?0A@EA@bad_array_new_length@std@@8 DD FLAT:??_R0?AVbad_array_new_length@std@@@8 ; std::bad_array_new_length::`RTTI Base Class Descriptor at (0,-1,0,64)'
	DD	02H
	DD	00H
	DD	0ffffffffH
	DD	00H
	DD	040H
	DD	FLAT:??_R3bad_array_new_length@std@@8
rdata$r	ENDS
;	COMDAT ??_R2bad_array_new_length@std@@8
rdata$r	SEGMENT
??_R2bad_array_new_length@std@@8 DD FLAT:??_R1A@?0A@EA@bad_array_new_length@std@@8 ; std::bad_array_new_length::`RTTI Base Class Array'
	DD	FLAT:??_R1A@?0A@EA@bad_alloc@std@@8
	DD	FLAT:??_R1A@?0A@EA@exception@std@@8
rdata$r	ENDS
;	COMDAT ??_R3bad_array_new_length@std@@8
rdata$r	SEGMENT
??_R3bad_array_new_length@std@@8 DD 00H			; std::bad_array_new_length::`RTTI Class Hierarchy Descriptor'
	DD	00H
	DD	03H
	DD	FLAT:??_R2bad_array_new_length@std@@8
rdata$r	ENDS
;	COMDAT ??_R4bad_array_new_length@std@@6B@
rdata$r	SEGMENT
??_R4bad_array_new_length@std@@6B@ DD 00H		; std::bad_array_new_length::`RTTI Complete Object Locator'
	DD	00H
	DD	00H
	DD	FLAT:??_R0?AVbad_array_new_length@std@@@8
	DD	FLAT:??_R3bad_array_new_length@std@@8
rdata$r	ENDS
;	COMDAT ??_R1A@?0A@EA@bad_alloc@std@@8
rdata$r	SEGMENT
??_R1A@?0A@EA@bad_alloc@std@@8 DD FLAT:??_R0?AVbad_alloc@std@@@8 ; std::bad_alloc::`RTTI Base Class Descriptor at (0,-1,0,64)'
	DD	01H
	DD	00H
	DD	0ffffffffH
	DD	00H
	DD	040H
	DD	FLAT:??_R3bad_alloc@std@@8
rdata$r	ENDS
;	COMDAT ??_R2bad_alloc@std@@8
rdata$r	SEGMENT
??_R2bad_alloc@std@@8 DD FLAT:??_R1A@?0A@EA@bad_alloc@std@@8 ; std::bad_alloc::`RTTI Base Class Array'
	DD	FLAT:??_R1A@?0A@EA@exception@std@@8
rdata$r	ENDS
;	COMDAT ??_R3bad_alloc@std@@8
rdata$r	SEGMENT
??_R3bad_alloc@std@@8 DD 00H				; std::bad_alloc::`RTTI Class Hierarchy Descriptor'
	DD	00H
	DD	02H
	DD	FLAT:??_R2bad_alloc@std@@8
rdata$r	ENDS
;	COMDAT ??_R4bad_alloc@std@@6B@
rdata$r	SEGMENT
??_R4bad_alloc@std@@6B@ DD 00H				; std::bad_alloc::`RTTI Complete Object Locator'
	DD	00H
	DD	00H
	DD	FLAT:??_R0?AVbad_alloc@std@@@8
	DD	FLAT:??_R3bad_alloc@std@@8
rdata$r	ENDS
;	COMDAT ??_R1A@?0A@EA@exception@std@@8
rdata$r	SEGMENT
??_R1A@?0A@EA@exception@std@@8 DD FLAT:??_R0?AVexception@std@@@8 ; std::exception::`RTTI Base Class Descriptor at (0,-1,0,64)'
	DD	00H
	DD	00H
	DD	0ffffffffH
	DD	00H
	DD	040H
	DD	FLAT:??_R3exception@std@@8
rdata$r	ENDS
;	COMDAT ??_R2exception@std@@8
rdata$r	SEGMENT
??_R2exception@std@@8 DD FLAT:??_R1A@?0A@EA@exception@std@@8 ; std::exception::`RTTI Base Class Array'
rdata$r	ENDS
;	COMDAT ??_R3exception@std@@8
rdata$r	SEGMENT
??_R3exception@std@@8 DD 00H				; std::exception::`RTTI Class Hierarchy Descriptor'
	DD	00H
	DD	01H
	DD	FLAT:??_R2exception@std@@8
rdata$r	ENDS
;	COMDAT ??_R4exception@std@@6B@
rdata$r	SEGMENT
??_R4exception@std@@6B@ DD 00H				; std::exception::`RTTI Complete Object Locator'
	DD	00H
	DD	00H
	DD	FLAT:??_R0?AVexception@std@@@8
	DD	FLAT:??_R3exception@std@@8
rdata$r	ENDS
;	COMDAT ??_C@_1EO@GFNCMDLA@?$AAs?$AAt?$AAd?$AA?3?$AA?3?$AA_?$AAA?$AAl?$AAl?$AAo?$AAc?$AAa?$AAt?$AAe?$AA_@
CONST	SEGMENT
??_C@_1EO@GFNCMDLA@?$AAs?$AAt?$AAd?$AA?3?$AA?3?$AA_?$AAA?$AAl?$AAl?$AAo?$AAc?$AAa?$AAt?$AAe?$AA_@ DB 's'
	DB	00H, 't', 00H, 'd', 00H, ':', 00H, ':', 00H, '_', 00H, 'A', 00H
	DB	'l', 00H, 'l', 00H, 'o', 00H, 'c', 00H, 'a', 00H, 't', 00H, 'e'
	DB	00H, '_', 00H, 'm', 00H, 'a', 00H, 'n', 00H, 'u', 00H, 'a', 00H
	DB	'l', 00H, 'l', 00H, 'y', 00H, '_', 00H, 'v', 00H, 'e', 00H, 'c'
	DB	00H, 't', 00H, 'o', 00H, 'r', 00H, '_', 00H, 'a', 00H, 'l', 00H
	DB	'i', 00H, 'g', 00H, 'n', 00H, 'e', 00H, 'd', 00H, 00H, 00H ; `string'
CONST	ENDS
;	COMDAT ??_C@_0BA@JFNIOLAK@string?5too?5long@
CONST	SEGMENT
??_C@_0BA@JFNIOLAK@string?5too?5long@ DB 'string too long', 00H ; `string'
CONST	ENDS
;	COMDAT ??_C@_0BI@CFPLBAOH@invalid?5string?5position@
CONST	SEGMENT
??_C@_0BI@CFPLBAOH@invalid?5string?5position@ DB 'invalid string position'
	DB	00H						; `string'
CONST	ENDS
;	COMDAT ??_C@_0ED@KEHCHDNG@?6?$CFd?5?m?e?5?$PP?b?k?$PP?e?r?q?$PP?5?b?h?q?n?j?n?q?m?$PL?l?5?c?n?d?n@
CONST	SEGMENT
??_C@_0ED@KEHCHDNG@?6?$CFd?5?m?e?5?$PP?b?k?$PP?e?r?q?$PP?5?b?h?q?n?j?n?q?m?$PL?l?5?c?n?d?n@ DB 0aH
	DB	'%d ', 0edH, 0e5H, ' ', 0ffH, 0e2H, 0ebH, 0ffH, 0e5H, 0f2H, 0f1H
	DB	0ffH, ' ', 0e2H, 0e8H, 0f1H, 0eeH, 0eaH, 0eeH, 0f1H, 0edH, 0fbH
	DB	0ecH, ' ', 0e3H, 0eeH, 0e4H, 0eeH, 0ecH, 0aH, 0aH, 0cfH, 0eeH, 0f0H
	DB	0ffH, 0e4H, 0eaH, 0eeH, 0e2H, 0fbH, 0e9H, ' ', 0edH, 0eeH, 0ecH
	DB	0e5H, 0f0H, ' ', 0e4H, 0edH, 0ffH, ' ', 0e2H, ' ', 0e3H, 0eeH, 0e4H
	DB	0f3H, ': %d', 0aH, 00H			; `string'
CONST	ENDS
;	COMDAT ??_C@_0DK@DFCFPGAI@?6?5?$CFd?5?$PP?b?k?$PP?e?r?q?$PP?5?b?e?q?n?j?n?q?m?$PL?l?5?c?n?d?n?l?6@
CONST	SEGMENT
??_C@_0DK@DFCFPGAI@?6?5?$CFd?5?$PP?b?k?$PP?e?r?q?$PP?5?b?e?q?n?j?n?q?m?$PL?l?5?c?n?d?n?l?6@ DB 0aH
	DB	' %d ', 0ffH, 0e2H, 0ebH, 0ffH, 0e5H, 0f2H, 0f1H, 0ffH, ' ', 0e2H
	DB	0e5H, 0f1H, 0eeH, 0eaH, 0eeH, 0f1H, 0edH, 0fbH, 0ecH, ' ', 0e3H
	DB	0eeH, 0e4H, 0eeH, 0ecH, 0aH, ' ', 0cfH, 0eeH, 0f0H, 0ffH, 0e4H
	DB	0eaH, 0eeH, 0e2H, 0fbH, 0e9H, ' ', 0edH, 0eeH, 0ecH, 0e5H, 0f0H
	DB	' ', 0e4H, 0edH, 0ffH, ': %d', 0aH, 00H	; `string'
CONST	ENDS
;	COMDAT ??_C@_03PMGGPEJJ@?$CFd?6@
CONST	SEGMENT
??_C@_03PMGGPEJJ@?$CFd?6@ DB '%d', 0aH, 00H		; `string'
CONST	ENDS
;	COMDAT ??_C@_03NIOBFDP@?$CFd?4@
CONST	SEGMENT
??_C@_03NIOBFDP@?$CFd?4@ DB '%d.', 00H			; `string'
CONST	ENDS
;	COMDAT ??_C@_05BEPLPCJI@?$CFc?$CFd?4@
CONST	SEGMENT
??_C@_05BEPLPCJI@?$CFc?$CFd?4@ DB '%c%d.', 00H		; `string'
CONST	ENDS
;	COMDAT ??_C@_01EEMJAFIK@?6@
CONST	SEGMENT
??_C@_01EEMJAFIK@?6@ DB 0aH, 00H			; `string'
CONST	ENDS
;	COMDAT ??_C@_0CN@OBMGJBED@?M?e?5?o?p?$OA?b?h?k?$PM?m?$PL?i?5?t?n?p?l?$OA?r?0?h?g?l?e?m?h?r?e?5?t@
CONST	SEGMENT
??_C@_0CN@OBMGJBED@?M?e?5?o?p?$OA?b?h?k?$PM?m?$PL?i?5?t?n?p?l?$OA?r?0?h?g?l?e?m?h?r?e?5?t@ DB 0cdH
	DB	0e5H, ' ', 0efH, 0f0H, 0e0H, 0e2H, 0e8H, 0ebH, 0fcH, 0edH, 0fbH
	DB	0e9H, ' ', 0f4H, 0eeH, 0f0H, 0ecH, 0e0H, 0f2H, ',', 0e8H, 0e7H
	DB	0ecH, 0e5H, 0edH, 0e8H, 0f2H, 0e5H, ' ', 0f4H, 0eeH, 0f0H, 0ecH
	DB	0e0H, 0f2H, ' ', 0e4H, 0e0H, 0f2H, 0fbH, 0aH, 0aH, 09H, 00H ; `string'
CONST	ENDS
;	COMDAT ??_C@_0BM@GLGNCEEH@?B?b?e?d?h?r?e?5?D?e?m?$PM?0?5?L?e?q?$PP?v?5?h?5?C?n?d?3?6@
CONST	SEGMENT
??_C@_0BM@GLGNCEEH@?B?b?e?d?h?r?e?5?D?e?m?$PM?0?5?L?e?q?$PP?v?5?h?5?C?n?d?3?6@ DB 0c2H
	DB	0e2H, 0e5H, 0e4H, 0e8H, 0f2H, 0e5H, ' ', 0c4H, 0e5H, 0edH, 0fcH
	DB	', ', 0ccH, 0e5H, 0f1H, 0ffH, 0f6H, ' ', 0e8H, ' ', 0c3H, 0eeH
	DB	0e4H, ':', 0aH, 00H				; `string'
CONST	ENDS
;	COMDAT ??_C@_03OJJHGHEE@Rus@
CONST	SEGMENT
??_C@_03OJJHGHEE@Rus@ DB 'Rus', 00H			; `string'
CONST	ENDS
;	COMDAT ??_8?$basic_stringstream@DU?$char_traits@D@std@@V?$allocator@D@2@@std@@7B?$basic_ostream@DU?$char_traits@D@std@@@1@@
CONST	SEGMENT
??_8?$basic_stringstream@DU?$char_traits@D@std@@V?$allocator@D@2@@std@@7B?$basic_ostream@DU?$char_traits@D@std@@@1@@ DD 00H ; std::basic_stringstream<char,std::char_traits<char>,std::allocator<char> >::`vbtable'
	DD	058H
CONST	ENDS
;	COMDAT ??_8?$basic_stringstream@DU?$char_traits@D@std@@V?$allocator@D@2@@std@@7B?$basic_istream@DU?$char_traits@D@std@@@1@@
CONST	SEGMENT
??_8?$basic_stringstream@DU?$char_traits@D@std@@V?$allocator@D@2@@std@@7B?$basic_istream@DU?$char_traits@D@std@@@1@@ DD 00H ; std::basic_stringstream<char,std::char_traits<char>,std::allocator<char> >::`vbtable'
	DD	068H
CONST	ENDS
;	COMDAT ??_7?$basic_stringstream@DU?$char_traits@D@std@@V?$allocator@D@2@@std@@6B@
CONST	SEGMENT
??_7?$basic_stringstream@DU?$char_traits@D@std@@V?$allocator@D@2@@std@@6B@ DD FLAT:??_R4?$basic_stringstream@DU?$char_traits@D@std@@V?$allocator@D@2@@std@@6B@ ; std::basic_stringstream<char,std::char_traits<char>,std::allocator<char> >::`vftable'
	DD	FLAT:??_E?$basic_stringstream@DU?$char_traits@D@std@@V?$allocator@D@2@@std@@$4PPPPPPPM@A@AEPAXI@Z
CONST	ENDS
;	COMDAT ??_7?$basic_stringbuf@DU?$char_traits@D@std@@V?$allocator@D@2@@std@@6B@
CONST	SEGMENT
??_7?$basic_stringbuf@DU?$char_traits@D@std@@V?$allocator@D@2@@std@@6B@ DD FLAT:??_R4?$basic_stringbuf@DU?$char_traits@D@std@@V?$allocator@D@2@@std@@6B@ ; std::basic_stringbuf<char,std::char_traits<char>,std::allocator<char> >::`vftable'
	DD	FLAT:??_E?$basic_stringbuf@DU?$char_traits@D@std@@V?$allocator@D@2@@std@@UAEPAXI@Z
	DD	FLAT:?_Lock@?$basic_streambuf@DU?$char_traits@D@std@@@std@@UAEXXZ
	DD	FLAT:?_Unlock@?$basic_streambuf@DU?$char_traits@D@std@@@std@@UAEXXZ
	DD	FLAT:?overflow@?$basic_stringbuf@DU?$char_traits@D@std@@V?$allocator@D@2@@std@@MAEHH@Z
	DD	FLAT:?pbackfail@?$basic_stringbuf@DU?$char_traits@D@std@@V?$allocator@D@2@@std@@MAEHH@Z
	DD	FLAT:?showmanyc@?$basic_streambuf@DU?$char_traits@D@std@@@std@@MAE_JXZ
	DD	FLAT:?underflow@?$basic_stringbuf@DU?$char_traits@D@std@@V?$allocator@D@2@@std@@MAEHXZ
	DD	FLAT:?uflow@?$basic_streambuf@DU?$char_traits@D@std@@@std@@MAEHXZ
	DD	FLAT:?xsgetn@?$basic_streambuf@DU?$char_traits@D@std@@@std@@MAE_JPAD_J@Z
	DD	FLAT:?xsputn@?$basic_streambuf@DU?$char_traits@D@std@@@std@@MAE_JPBD_J@Z
	DD	FLAT:?seekoff@?$basic_stringbuf@DU?$char_traits@D@std@@V?$allocator@D@2@@std@@MAE?AV?$fpos@U_Mbstatet@@@2@_JHH@Z
	DD	FLAT:?seekpos@?$basic_stringbuf@DU?$char_traits@D@std@@V?$allocator@D@2@@std@@MAE?AV?$fpos@U_Mbstatet@@@2@V32@H@Z
	DD	FLAT:?setbuf@?$basic_streambuf@DU?$char_traits@D@std@@@std@@MAEPAV12@PAD_J@Z
	DD	FLAT:?sync@?$basic_streambuf@DU?$char_traits@D@std@@@std@@MAEHXZ
	DD	FLAT:?imbue@?$basic_streambuf@DU?$char_traits@D@std@@@std@@MAEXABVlocale@2@@Z
CONST	ENDS
;	COMDAT __CT??_R0?AVbad_cast@std@@@8??0bad_cast@std@@QAE@ABV01@@Z12
xdata$x	SEGMENT
__CT??_R0?AVbad_cast@std@@@8??0bad_cast@std@@QAE@ABV01@@Z12 DD 00H
	DD	FLAT:??_R0?AVbad_cast@std@@@8
	DD	00H
	DD	0ffffffffH
	ORG $+4
	DD	0cH
	DD	FLAT:??0bad_cast@std@@QAE@ABV01@@Z
xdata$x	ENDS
;	COMDAT ??_R0?AVbad_cast@std@@@8
data$r	SEGMENT
??_R0?AVbad_cast@std@@@8 DD FLAT:??_7type_info@@6B@	; std::bad_cast `RTTI Type Descriptor'
	DD	00H
	DB	'.?AVbad_cast@std@@', 00H
data$r	ENDS
;	COMDAT __CTA2?AVbad_cast@std@@
xdata$x	SEGMENT
__CTA2?AVbad_cast@std@@ DD 02H
	DD	FLAT:__CT??_R0?AVbad_cast@std@@@8??0bad_cast@std@@QAE@ABV01@@Z12
	DD	FLAT:__CT??_R0?AVexception@std@@@8??0exception@std@@QAE@ABV01@@Z12
xdata$x	ENDS
;	COMDAT __TI2?AVbad_cast@std@@
xdata$x	SEGMENT
__TI2?AVbad_cast@std@@ DD 00H
	DD	FLAT:??1bad_cast@std@@UAE@XZ
	DD	00H
	DD	FLAT:__CTA2?AVbad_cast@std@@
xdata$x	ENDS
;	COMDAT ??_C@_08EPJLHIJG@bad?5cast@
CONST	SEGMENT
??_C@_08EPJLHIJG@bad?5cast@ DB 'bad cast', 00H		; `string'
CONST	ENDS
;	COMDAT ??_7bad_cast@std@@6B@
CONST	SEGMENT
??_7bad_cast@std@@6B@ DD FLAT:??_R4bad_cast@std@@6B@	; std::bad_cast::`vftable'
	DD	FLAT:??_Ebad_cast@std@@UAEPAXI@Z
	DD	FLAT:?what@exception@std@@UBEPBDXZ
CONST	ENDS
;	COMDAT ??_C@_1CG@JNLFBNGN@?$AA?$CC?$AAi?$AAn?$AAv?$AAa?$AAl?$AAi?$AAd?$AA?5?$AAa?$AAr?$AAg?$AAu?$AAm?$AAe@
CONST	SEGMENT
??_C@_1CG@JNLFBNGN@?$AA?$CC?$AAi?$AAn?$AAv?$AAa?$AAl?$AAi?$AAd?$AA?5?$AAa?$AAr?$AAg?$AAu?$AAm?$AAe@ DB '"'
	DB	00H, 'i', 00H, 'n', 00H, 'v', 00H, 'a', 00H, 'l', 00H, 'i', 00H
	DB	'd', 00H, ' ', 00H, 'a', 00H, 'r', 00H, 'g', 00H, 'u', 00H, 'm'
	DB	00H, 'e', 00H, 'n', 00H, 't', 00H, '"', 00H, 00H, 00H ; `string'
CONST	ENDS
;	COMDAT ??_C@_1EK@NIFDJFDG@?$AAs?$AAt?$AAd?$AA?3?$AA?3?$AA_?$AAA?$AAd?$AAj?$AAu?$AAs?$AAt?$AA_?$AAm?$AAa@
CONST	SEGMENT
??_C@_1EK@NIFDJFDG@?$AAs?$AAt?$AAd?$AA?3?$AA?3?$AA_?$AAA?$AAd?$AAj?$AAu?$AAs?$AAt?$AA_?$AAm?$AAa@ DB 's'
	DB	00H, 't', 00H, 'd', 00H, ':', 00H, ':', 00H, '_', 00H, 'A', 00H
	DB	'd', 00H, 'j', 00H, 'u', 00H, 's', 00H, 't', 00H, '_', 00H, 'm'
	DB	00H, 'a', 00H, 'n', 00H, 'u', 00H, 'a', 00H, 'l', 00H, 'l', 00H
	DB	'y', 00H, '_', 00H, 'v', 00H, 'e', 00H, 'c', 00H, 't', 00H, 'o'
	DB	00H, 'r', 00H, '_', 00H, 'a', 00H, 'l', 00H, 'i', 00H, 'g', 00H
	DB	'n', 00H, 'e', 00H, 'd', 00H, 00H, 00H	; `string'
CONST	ENDS
;	COMDAT ??_C@_1NA@OANNLGA@?$AAC?$AA?3?$AA?2?$AAP?$AAr?$AAo?$AAg?$AAr?$AAa?$AAm?$AA?5?$AAF?$AAi?$AAl?$AAe@
CONST	SEGMENT
??_C@_1NA@OANNLGA@?$AAC?$AA?3?$AA?2?$AAP?$AAr?$AAo?$AAg?$AAr?$AAa?$AAm?$AA?5?$AAF?$AAi?$AAl?$AAe@ DB 'C'
	DB	00H, ':', 00H, '\', 00H, 'P', 00H, 'r', 00H, 'o', 00H, 'g', 00H
	DB	'r', 00H, 'a', 00H, 'm', 00H, ' ', 00H, 'F', 00H, 'i', 00H, 'l'
	DB	00H, 'e', 00H, 's', 00H, ' ', 00H, '(', 00H, 'x', 00H, '8', 00H
	DB	'6', 00H, ')', 00H, '\', 00H, 'M', 00H, 'i', 00H, 'c', 00H, 'r'
	DB	00H, 'o', 00H, 's', 00H, 'o', 00H, 'f', 00H, 't', 00H, ' ', 00H
	DB	'V', 00H, 'i', 00H, 's', 00H, 'u', 00H, 'a', 00H, 'l', 00H, ' '
	DB	00H, 'S', 00H, 't', 00H, 'u', 00H, 'd', 00H, 'i', 00H, 'o', 00H
	DB	'\', 00H, '2', 00H, '0', 00H, '1', 00H, '9', 00H, '\', 00H, 'C'
	DB	00H, 'o', 00H, 'm', 00H, 'm', 00H, 'u', 00H, 'n', 00H, 'i', 00H
	DB	't', 00H, 'y', 00H, '\', 00H, 'V', 00H, 'C', 00H, '\', 00H, 'T'
	DB	00H, 'o', 00H, 'o', 00H, 'l', 00H, 's', 00H, '\', 00H, 'M', 00H
	DB	'S', 00H, 'V', 00H, 'C', 00H, '\', 00H, '1', 00H, '4', 00H, '.'
	DB	00H, '2', 00H, '4', 00H, '.', 00H, '2', 00H, '8', 00H, '3', 00H
	DB	'1', 00H, '4', 00H, '\', 00H, 'i', 00H, 'n', 00H, 'c', 00H, 'l'
	DB	00H, 'u', 00H, 'd', 00H, 'e', 00H, '\', 00H, 'x', 00H, 'm', 00H
	DB	'e', 00H, 'm', 00H, 'o', 00H, 'r', 00H, 'y', 00H, 00H, 00H ; `string'
CONST	ENDS
;	COMDAT ??_C@_0GI@JKOMEBKC@C?3?2Program?5Files?5?$CIx86?$CJ?2Microsof@
CONST	SEGMENT
??_C@_0GI@JKOMEBKC@C?3?2Program?5Files?5?$CIx86?$CJ?2Microsof@ DB 'C:\Pro'
	DB	'gram Files (x86)\Microsoft Visual Studio\2019\Community\VC\To'
	DB	'ols\MSVC\14.24.28314\include\xmemory', 00H	; `string'
CONST	ENDS
;	COMDAT ??_C@_02DKCKIIND@?$CFs@
CONST	SEGMENT
??_C@_02DKCKIIND@?$CFs@ DB '%s', 00H			; `string'
CONST	ENDS
;	COMDAT ??_C@_0BB@FCMFBGOM@invalid?5argument@
CONST	SEGMENT
??_C@_0BB@FCMFBGOM@invalid?5argument@ DB 'invalid argument', 00H ; `string'
CONST	ENDS
;	COMDAT ?__LINE__Var@?0??_Adjust_manually_vector_aligned@std@@YAXAAPAXAAI@Z@4JA
_DATA	SEGMENT
?__LINE__Var@?0??_Adjust_manually_vector_aligned@std@@YAXAAPAXAAI@Z@4JA DD 06aH ; `std::_Adjust_manually_vector_aligned'::`1'::__LINE__Var
_DATA	ENDS
;	COMDAT __CT??_R0?AVexception@std@@@8??0exception@std@@QAE@ABV01@@Z12
xdata$x	SEGMENT
__CT??_R0?AVexception@std@@@8??0exception@std@@QAE@ABV01@@Z12 DD 00H
	DD	FLAT:??_R0?AVexception@std@@@8
	DD	00H
	DD	0ffffffffH
	ORG $+4
	DD	0cH
	DD	FLAT:??0exception@std@@QAE@ABV01@@Z
xdata$x	ENDS
;	COMDAT ??_R0?AVexception@std@@@8
data$r	SEGMENT
??_R0?AVexception@std@@@8 DD FLAT:??_7type_info@@6B@	; std::exception `RTTI Type Descriptor'
	DD	00H
	DB	'.?AVexception@std@@', 00H
data$r	ENDS
;	COMDAT __CT??_R0?AVbad_alloc@std@@@8??0bad_alloc@std@@QAE@ABV01@@Z12
xdata$x	SEGMENT
__CT??_R0?AVbad_alloc@std@@@8??0bad_alloc@std@@QAE@ABV01@@Z12 DD 010H
	DD	FLAT:??_R0?AVbad_alloc@std@@@8
	DD	00H
	DD	0ffffffffH
	ORG $+4
	DD	0cH
	DD	FLAT:??0bad_alloc@std@@QAE@ABV01@@Z
xdata$x	ENDS
;	COMDAT ??_R0?AVbad_alloc@std@@@8
data$r	SEGMENT
??_R0?AVbad_alloc@std@@@8 DD FLAT:??_7type_info@@6B@	; std::bad_alloc `RTTI Type Descriptor'
	DD	00H
	DB	'.?AVbad_alloc@std@@', 00H
data$r	ENDS
;	COMDAT __CT??_R0?AVbad_array_new_length@std@@@8??0bad_array_new_length@std@@QAE@ABV01@@Z12
xdata$x	SEGMENT
__CT??_R0?AVbad_array_new_length@std@@@8??0bad_array_new_length@std@@QAE@ABV01@@Z12 DD 00H
	DD	FLAT:??_R0?AVbad_array_new_length@std@@@8
	DD	00H
	DD	0ffffffffH
	ORG $+4
	DD	0cH
	DD	FLAT:??0bad_array_new_length@std@@QAE@ABV01@@Z
xdata$x	ENDS
;	COMDAT ??_R0?AVbad_array_new_length@std@@@8
data$r	SEGMENT
??_R0?AVbad_array_new_length@std@@@8 DD FLAT:??_7type_info@@6B@ ; std::bad_array_new_length `RTTI Type Descriptor'
	DD	00H
	DB	'.?AVbad_array_new_length@std@@', 00H
data$r	ENDS
;	COMDAT __CTA3?AVbad_array_new_length@std@@
xdata$x	SEGMENT
__CTA3?AVbad_array_new_length@std@@ DD 03H
	DD	FLAT:__CT??_R0?AVbad_array_new_length@std@@@8??0bad_array_new_length@std@@QAE@ABV01@@Z12
	DD	FLAT:__CT??_R0?AVbad_alloc@std@@@8??0bad_alloc@std@@QAE@ABV01@@Z12
	DD	FLAT:__CT??_R0?AVexception@std@@@8??0exception@std@@QAE@ABV01@@Z12
xdata$x	ENDS
;	COMDAT __TI3?AVbad_array_new_length@std@@
xdata$x	SEGMENT
__TI3?AVbad_array_new_length@std@@ DD 00H
	DD	FLAT:??1bad_array_new_length@std@@UAE@XZ
	DD	00H
	DD	FLAT:__CTA3?AVbad_array_new_length@std@@
xdata$x	ENDS
;	COMDAT ??_C@_0BF@KINCDENJ@bad?5array?5new?5length@
CONST	SEGMENT
??_C@_0BF@KINCDENJ@bad?5array?5new?5length@ DB 'bad array new length', 00H ; `string'
CONST	ENDS
;	COMDAT ??_7bad_array_new_length@std@@6B@
CONST	SEGMENT
??_7bad_array_new_length@std@@6B@ DD FLAT:??_R4bad_array_new_length@std@@6B@ ; std::bad_array_new_length::`vftable'
	DD	FLAT:??_Ebad_array_new_length@std@@UAEPAXI@Z
	DD	FLAT:?what@exception@std@@UBEPBDXZ
CONST	ENDS
;	COMDAT ??_7bad_alloc@std@@6B@
CONST	SEGMENT
??_7bad_alloc@std@@6B@ DD FLAT:??_R4bad_alloc@std@@6B@	; std::bad_alloc::`vftable'
	DD	FLAT:??_Ebad_alloc@std@@UAEPAXI@Z
	DD	FLAT:?what@exception@std@@UBEPBDXZ
CONST	ENDS
;	COMDAT ??_C@_0BC@EOODALEL@Unknown?5exception@
CONST	SEGMENT
??_C@_0BC@EOODALEL@Unknown?5exception@ DB 'Unknown exception', 00H ; `string'
CONST	ENDS
;	COMDAT ??_7exception@std@@6B@
CONST	SEGMENT
??_7exception@std@@6B@ DD FLAT:??_R4exception@std@@6B@	; std::exception::`vftable'
	DD	FLAT:??_Eexception@std@@UAEPAXI@Z
	DD	FLAT:?what@exception@std@@UBEPBDXZ
CONST	ENDS
;	COMDAT xdata$x
xdata$x	SEGMENT
__ehfuncinfo$??$forward@AAPAV_Facet_base@std@@@std@@YAAAPAV_Facet_base@0@AAPAV10@@Z DD 019930522H
	DD	00H
	DD	00H
	DD	2 DUP(00H)
	DD	2 DUP(00H)
	DD	00H
	DD	05H
xdata$x	ENDS
;	COMDAT xdata$x
xdata$x	SEGMENT
__ehfuncinfo$??$?0AAPAV_Facet_base@std@@@?$_Compressed_pair@U?$default_delete@V_Facet_base@std@@@std@@PAV_Facet_base@2@$00@std@@QAE@U_Zero_then_variadic_args_t@1@AAPAV_Facet_base@1@@Z DD 019930522H
	DD	00H
	DD	00H
	DD	2 DUP(00H)
	DD	2 DUP(00H)
	DD	00H
	DD	05H
xdata$x	ENDS
;	COMDAT xdata$x
xdata$x	SEGMENT
__ehfuncinfo$??$forward@ABQAD@std@@YAABQADABQAD@Z DD 019930522H
	DD	00H
	DD	00H
	DD	2 DUP(00H)
	DD	2 DUP(00H)
	DD	00H
	DD	05H
xdata$x	ENDS
;	COMDAT xdata$x
xdata$x	SEGMENT
__ehfuncinfo$??$addressof@PAD@std@@YAPAPADAAPAD@Z DD 019930522H
	DD	00H
	DD	00H
	DD	2 DUP(00H)
	DD	2 DUP(00H)
	DD	00H
	DD	05H
xdata$x	ENDS
;	COMDAT xdata$x
xdata$x	SEGMENT
__ehfuncinfo$??$_Deallocate_plain@V?$allocator@U_Container_proxy@std@@@std@@@std@@YAXAAV?$allocator@U_Container_proxy@std@@@0@QAU_Container_proxy@0@@Z DD 019930522H
	DD	00H
	DD	00H
	DD	2 DUP(00H)
	DD	2 DUP(00H)
	DD	00H
	DD	05H
xdata$x	ENDS
;	COMDAT xdata$x
xdata$x	SEGMENT
__unwindtable$??0sentry@?$basic_istream@DU?$char_traits@D@std@@@std@@QAE@AAV12@_N@Z DD 0ffffffffH
	DD	FLAT:__unwindfunclet$??0sentry@?$basic_istream@DU?$char_traits@D@std@@@std@@QAE@AAV12@_N@Z$0
__ehfuncinfo$??0sentry@?$basic_istream@DU?$char_traits@D@std@@@std@@QAE@AAV12@_N@Z DD 019930522H
	DD	01H
	DD	FLAT:__unwindtable$??0sentry@?$basic_istream@DU?$char_traits@D@std@@@std@@QAE@AAV12@_N@Z
	DD	2 DUP(00H)
	DD	2 DUP(00H)
	DD	00H
	DD	01H
xdata$x	ENDS
;	COMDAT xdata$x
xdata$x	SEGMENT
__ehfuncinfo$??1_Sentry_base@?$basic_istream@DU?$char_traits@D@std@@@std@@QAE@XZ DD 019930522H
	DD	00H
	DD	00H
	DD	2 DUP(00H)
	DD	2 DUP(00H)
	DD	00H
	DD	05H
xdata$x	ENDS
;	COMDAT xdata$x
xdata$x	SEGMENT
__ehfuncinfo$??$move@AAV?$basic_istream@DU?$char_traits@D@std@@@std@@@std@@YA$$QAV?$basic_istream@DU?$char_traits@D@std@@@0@AAV10@@Z DD 019930522H
	DD	00H
	DD	00H
	DD	2 DUP(00H)
	DD	2 DUP(00H)
	DD	00H
	DD	05H
xdata$x	ENDS
;	COMDAT xdata$x
xdata$x	SEGMENT
__ehfuncinfo$??$?0U?$default_delete@V_Facet_base@std@@@std@@$0A@@?$unique_ptr@V_Facet_base@std@@U?$default_delete@V_Facet_base@std@@@2@@std@@QAE@PAV_Facet_base@1@@Z DD 019930522H
	DD	00H
	DD	00H
	DD	2 DUP(00H)
	DD	2 DUP(00H)
	DD	00H
	DD	05H
xdata$x	ENDS
;	COMDAT xdata$x
xdata$x	SEGMENT
__ehfuncinfo$?_Get_first@?$_Compressed_pair@U?$default_delete@V_Facet_base@std@@@std@@PAV_Facet_base@2@$00@std@@QAEAAU?$default_delete@V_Facet_base@std@@@2@XZ DD 019930522H
	DD	00H
	DD	00H
	DD	2 DUP(00H)
	DD	2 DUP(00H)
	DD	00H
	DD	05H
xdata$x	ENDS
;	COMDAT xdata$x
xdata$x	SEGMENT
__ehfuncinfo$?release@?$unique_ptr@V_Facet_base@std@@U?$default_delete@V_Facet_base@std@@@2@@std@@QAEPAV_Facet_base@2@XZ DD 019930522H
	DD	00H
	DD	00H
	DD	2 DUP(00H)
	DD	2 DUP(00H)
	DD	00H
	DD	05H
xdata$x	ENDS
;	COMDAT xdata$x
xdata$x	SEGMENT
__ehfuncinfo$??1?$unique_ptr@V_Facet_base@std@@U?$default_delete@V_Facet_base@std@@@2@@std@@QAE@XZ DD 019930522H
	DD	00H
	DD	00H
	DD	2 DUP(00H)
	DD	2 DUP(00H)
	DD	00H
	DD	05H
xdata$x	ENDS
;	COMDAT xdata$x
xdata$x	SEGMENT
__ehfuncinfo$??R?$default_delete@V_Facet_base@std@@@std@@QBEXPAV_Facet_base@1@@Z DD 019930522H
	DD	00H
	DD	00H
	DD	2 DUP(00H)
	DD	2 DUP(00H)
	DD	00H
	DD	05H
xdata$x	ENDS
;	COMDAT xdata$x
xdata$x	SEGMENT
__ehfuncinfo$??$forward@PAU_Container_base12@std@@@std@@YA$$QAPAU_Container_base12@0@AAPAU10@@Z DD 019930522H
	DD	00H
	DD	00H
	DD	2 DUP(00H)
	DD	2 DUP(00H)
	DD	00H
	DD	05H
xdata$x	ENDS
;	COMDAT xdata$x
xdata$x	SEGMENT
__ehfuncinfo$??$addressof@U_Container_proxy@std@@@std@@YAPAU_Container_proxy@0@AAU10@@Z DD 019930522H
	DD	00H
	DD	00H
	DD	2 DUP(00H)
	DD	2 DUP(00H)
	DD	00H
	DD	05H
xdata$x	ENDS
;	COMDAT xdata$x
xdata$x	SEGMENT
__ehfuncinfo$??$_Deallocate@$07$0A@@std@@YAXPAXI@Z DD 019930522H
	DD	00H
	DD	00H
	DD	2 DUP(00H)
	DD	2 DUP(00H)
	DD	00H
	DD	05H
xdata$x	ENDS
;	COMDAT xdata$x
xdata$x	SEGMENT
__ehfuncinfo$??$_Construct_in_place@PADABQAD@std@@YAXAAPADABQAD@Z DD 019930522H
	DD	00H
	DD	00H
	DD	2 DUP(00H)
	DD	2 DUP(00H)
	DD	00H
	DD	05H
xdata$x	ENDS
;	COMDAT xdata$x
xdata$x	SEGMENT
__ehfuncinfo$??$_Max_value@I@std@@YAABIABI0@Z DD 019930522H
	DD	00H
	DD	00H
	DD	2 DUP(00H)
	DD	2 DUP(00H)
	DD	00H
	DD	05H
xdata$x	ENDS
;	COMDAT xdata$x
xdata$x	SEGMENT
__ehfuncinfo$??$_Destroy_in_place@PAD@std@@YAXAAPAD@Z DD 019930522H
	DD	00H
	DD	00H
	DD	2 DUP(00H)
	DD	2 DUP(00H)
	DD	00H
	DD	05H
xdata$x	ENDS
;	COMDAT xdata$x
xdata$x	SEGMENT
__ehfuncinfo$??$addressof@D@std@@YAPADAAD@Z DD 019930522H
	DD	00H
	DD	00H
	DD	2 DUP(00H)
	DD	2 DUP(00H)
	DD	00H
	DD	05H
xdata$x	ENDS
;	COMDAT xdata$x
xdata$x	SEGMENT
__ehfuncinfo$??$_Unfancy@U_Container_proxy@std@@@std@@YAPAU_Container_proxy@0@PAU10@@Z DD 019930522H
	DD	00H
	DD	00H
	DD	2 DUP(00H)
	DD	2 DUP(00H)
	DD	00H
	DD	05H
xdata$x	ENDS
;	COMDAT xdata$x
xdata$x	SEGMENT
__ehfuncinfo$??$?0D@?$allocator@U_Container_proxy@std@@@std@@QAE@ABV?$allocator@D@1@@Z DD 019930522H
	DD	00H
	DD	00H
	DD	2 DUP(00H)
	DD	2 DUP(00H)
	DD	00H
	DD	05H
xdata$x	ENDS
;	COMDAT xdata$x
xdata$x	SEGMENT
__ehfuncinfo$??$_Delete_plain_internal@V?$allocator@U_Container_proxy@std@@@std@@@std@@YAXAAV?$allocator@U_Container_proxy@std@@@0@QAU_Container_proxy@0@@Z DD 019930522H
	DD	00H
	DD	00H
	DD	2 DUP(00H)
	DD	2 DUP(00H)
	DD	00H
	DD	05H
xdata$x	ENDS
;	COMDAT xdata$x
xdata$x	SEGMENT
__ehfuncinfo$??$addressof@V?$basic_stringbuf@DU?$char_traits@D@std@@V?$allocator@D@2@@std@@@std@@YAPAV?$basic_stringbuf@DU?$char_traits@D@std@@V?$allocator@D@2@@0@AAV10@@Z DD 019930522H
	DD	00H
	DD	00H
	DD	2 DUP(00H)
	DD	2 DUP(00H)
	DD	00H
	DD	05H
xdata$x	ENDS
;	COMDAT xdata$x
xdata$x	SEGMENT
__ehfuncinfo$?pointer_to@?$pointer_traits@PAD@std@@SAPADAAD@Z DD 019930522H
	DD	00H
	DD	00H
	DD	2 DUP(00H)
	DD	2 DUP(00H)
	DD	00H
	DD	05H
xdata$x	ENDS
;	COMDAT xdata$x
xdata$x	SEGMENT
__ehfuncinfo$??$_Unfancy@D@std@@YAPADPAD@Z DD 019930522H
	DD	00H
	DD	00H
	DD	2 DUP(00H)
	DD	2 DUP(00H)
	DD	00H
	DD	05H
xdata$x	ENDS
;	COMDAT xdata$x
xdata$x	SEGMENT
__ehfuncinfo$??$_Max_value@PAD@std@@YAABQADABQAD0@Z DD 019930522H
	DD	00H
	DD	00H
	DD	2 DUP(00H)
	DD	2 DUP(00H)
	DD	00H
	DD	05H
xdata$x	ENDS
;	COMDAT xdata$x
xdata$x	SEGMENT
__ehfuncinfo$?_Tidy@?$basic_stringbuf@DU?$char_traits@D@std@@V?$allocator@D@2@@std@@IAEXXZ DD 019930522H
	DD	00H
	DD	00H
	DD	2 DUP(00H)
	DD	2 DUP(00H)
	DD	00H
	DD	05H
xdata$x	ENDS
;	COMDAT xdata$x
xdata$x	SEGMENT
__ehfuncinfo$??1?$basic_stringbuf@DU?$char_traits@D@std@@V?$allocator@D@2@@std@@UAE@XZ DD 019930522H
	DD	00H
	DD	00H
	DD	2 DUP(00H)
	DD	2 DUP(00H)
	DD	00H
	DD	05H
xdata$x	ENDS
;	COMDAT xdata$x
xdata$x	SEGMENT
__unwindtable$??0?$basic_stringbuf@DU?$char_traits@D@std@@V?$allocator@D@2@@std@@QAE@ABV?$basic_string@DU?$char_traits@D@std@@V?$allocator@D@2@@1@H@Z DD 0ffffffffH
	DD	FLAT:__unwindfunclet$??0?$basic_stringbuf@DU?$char_traits@D@std@@V?$allocator@D@2@@std@@QAE@ABV?$basic_string@DU?$char_traits@D@std@@V?$allocator@D@2@@1@H@Z$0
__ehfuncinfo$??0?$basic_stringbuf@DU?$char_traits@D@std@@V?$allocator@D@2@@std@@QAE@ABV?$basic_string@DU?$char_traits@D@std@@V?$allocator@D@2@@1@H@Z DD 019930522H
	DD	01H
	DD	FLAT:__unwindtable$??0?$basic_stringbuf@DU?$char_traits@D@std@@V?$allocator@D@2@@std@@QAE@ABV?$basic_string@DU?$char_traits@D@std@@V?$allocator@D@2@@1@H@Z
	DD	2 DUP(00H)
	DD	2 DUP(00H)
	DD	00H
	DD	01H
xdata$x	ENDS
;	COMDAT xdata$x
xdata$x	SEGMENT
__ehfuncinfo$??1?$basic_stringstream@DU?$char_traits@D@std@@V?$allocator@D@2@@std@@UAE@XZ DD 019930522H
	DD	00H
	DD	00H
	DD	2 DUP(00H)
	DD	2 DUP(00H)
	DD	00H
	DD	05H
xdata$x	ENDS
;	COMDAT xdata$x
xdata$x	SEGMENT
__unwindtable$??0?$basic_stringstream@DU?$char_traits@D@std@@V?$allocator@D@2@@std@@QAE@ABV?$basic_string@DU?$char_traits@D@std@@V?$allocator@D@2@@1@H@Z DD 0ffffffffH
	DD	FLAT:__unwindfunclet$??0?$basic_stringstream@DU?$char_traits@D@std@@V?$allocator@D@2@@std@@QAE@ABV?$basic_string@DU?$char_traits@D@std@@V?$allocator@D@2@@1@H@Z$0
	DD	00H
	DD	FLAT:__unwindfunclet$??0?$basic_stringstream@DU?$char_traits@D@std@@V?$allocator@D@2@@std@@QAE@ABV?$basic_string@DU?$char_traits@D@std@@V?$allocator@D@2@@1@H@Z$1
__ehfuncinfo$??0?$basic_stringstream@DU?$char_traits@D@std@@V?$allocator@D@2@@std@@QAE@ABV?$basic_string@DU?$char_traits@D@std@@V?$allocator@D@2@@1@H@Z DD 019930522H
	DD	02H
	DD	FLAT:__unwindtable$??0?$basic_stringstream@DU?$char_traits@D@std@@V?$allocator@D@2@@std@@QAE@ABV?$basic_string@DU?$char_traits@D@std@@V?$allocator@D@2@@1@H@Z
	DD	2 DUP(00H)
	DD	2 DUP(00H)
	DD	00H
	DD	01H
xdata$x	ENDS
;	COMDAT xdata$x
xdata$x	SEGMENT
__catchsym$??$?5DU?$char_traits@D@std@@V?$allocator@D@1@@std@@YAAAV?$basic_istream@DU?$char_traits@D@std@@@0@$$QAV10@AAV?$basic_string@DU?$char_traits@D@std@@V?$allocator@D@2@@0@@Z$4 DD 040H
	DD	00H
	DD	00H
	DD	FLAT:__catch$??$?5DU?$char_traits@D@std@@V?$allocator@D@1@@std@@YAAAV?$basic_istream@DU?$char_traits@D@std@@@0@$$QAV10@AAV?$basic_string@DU?$char_traits@D@std@@V?$allocator@D@2@@0@@Z$0
__tryblocktable$??$?5DU?$char_traits@D@std@@V?$allocator@D@1@@std@@YAAAV?$basic_istream@DU?$char_traits@D@std@@@0@$$QAV10@AAV?$basic_string@DU?$char_traits@D@std@@V?$allocator@D@2@@0@@Z DD 02H
	DD	02H
	DD	03H
	DD	01H
	DD	FLAT:__catchsym$??$?5DU?$char_traits@D@std@@V?$allocator@D@1@@std@@YAAAV?$basic_istream@DU?$char_traits@D@std@@@0@$$QAV10@AAV?$basic_string@DU?$char_traits@D@std@@V?$allocator@D@2@@0@@Z$4
__unwindtable$??$?5DU?$char_traits@D@std@@V?$allocator@D@1@@std@@YAAAV?$basic_istream@DU?$char_traits@D@std@@@0@$$QAV10@AAV?$basic_string@DU?$char_traits@D@std@@V?$allocator@D@2@@0@@Z DD 0ffffffffH
	DD	FLAT:__unwindfunclet$??$?5DU?$char_traits@D@std@@V?$allocator@D@1@@std@@YAAAV?$basic_istream@DU?$char_traits@D@std@@@0@$$QAV10@AAV?$basic_string@DU?$char_traits@D@std@@V?$allocator@D@2@@0@@Z$2
	DD	00H
	DD	FLAT:__unwindfunclet$??$?5DU?$char_traits@D@std@@V?$allocator@D@1@@std@@YAAAV?$basic_istream@DU?$char_traits@D@std@@@0@$$QAV10@AAV?$basic_string@DU?$char_traits@D@std@@V?$allocator@D@2@@0@@Z$3
	DD	00H
	DD	00H
	DD	00H
	DD	00H
__ehfuncinfo$??$?5DU?$char_traits@D@std@@V?$allocator@D@1@@std@@YAAAV?$basic_istream@DU?$char_traits@D@std@@@0@$$QAV10@AAV?$basic_string@DU?$char_traits@D@std@@V?$allocator@D@2@@0@@Z DD 019930522H
	DD	04H
	DD	FLAT:__unwindtable$??$?5DU?$char_traits@D@std@@V?$allocator@D@1@@std@@YAAAV?$basic_istream@DU?$char_traits@D@std@@@0@$$QAV10@AAV?$basic_string@DU?$char_traits@D@std@@V?$allocator@D@2@@0@@Z
	DD	01H
	DD	FLAT:__tryblocktable$??$?5DU?$char_traits@D@std@@V?$allocator@D@1@@std@@YAAAV?$basic_istream@DU?$char_traits@D@std@@@0@$$QAV10@AAV?$basic_string@DU?$char_traits@D@std@@V?$allocator@D@2@@0@@Z
	DD	2 DUP(00H)
	DD	00H
	DD	01H
xdata$x	ENDS
;	COMDAT xdata$x
xdata$x	SEGMENT
__ehfuncinfo$_main DD 019930522H
	DD	06H
	DD	FLAT:__unwindtable$_main
	DD	2 DUP(00H)
	DD	2 DUP(00H)
	DD	00H
	DD	01H
__unwindtable$_main DD 0ffffffffH
	DD	FLAT:__unwindfunclet$_main$0
	DD	00H
	DD	FLAT:__unwindfunclet$_main$1
	DD	01H
	DD	FLAT:__unwindfunclet$_main$2
	DD	02H
	DD	FLAT:__unwindfunclet$_main$3
	DD	03H
	DD	FLAT:__unwindfunclet$_main$4
	DD	04H
	DD	FLAT:__unwindfunclet$_main$5
xdata$x	ENDS
;	COMDAT xdata$x
xdata$x	SEGMENT
__unwindtable$??$use_facet@V?$ctype@D@std@@@std@@YAABV?$ctype@D@0@ABVlocale@0@@Z DD 0ffffffffH
	DD	FLAT:__unwindfunclet$??$use_facet@V?$ctype@D@std@@@std@@YAABV?$ctype@D@0@ABVlocale@0@@Z$0
	DD	00H
	DD	FLAT:__unwindfunclet$??$use_facet@V?$ctype@D@std@@@std@@YAABV?$ctype@D@0@ABVlocale@0@@Z$1
__ehfuncinfo$??$use_facet@V?$ctype@D@std@@@std@@YAABV?$ctype@D@0@ABVlocale@0@@Z DD 019930522H
	DD	02H
	DD	FLAT:__unwindtable$??$use_facet@V?$ctype@D@std@@@std@@YAABV?$ctype@D@0@ABVlocale@0@@Z
	DD	2 DUP(00H)
	DD	2 DUP(00H)
	DD	00H
	DD	01H
xdata$x	ENDS
;	COMDAT xdata$x
xdata$x	SEGMENT
__ehfuncinfo$??1locale@std@@QAE@XZ DD 019930522H
	DD	00H
	DD	00H
	DD	2 DUP(00H)
	DD	2 DUP(00H)
	DD	00H
	DD	05H
xdata$x	ENDS
;	COMDAT xdata$x
xdata$x	SEGMENT
__ehfuncinfo$??0bad_cast@std@@QAE@XZ DD 019930522H
	DD	00H
	DD	00H
	DD	2 DUP(00H)
	DD	2 DUP(00H)
	DD	00H
	DD	05H
xdata$x	ENDS
;	COMDAT xdata$x
xdata$x	SEGMENT
__ehfuncinfo$?_Get_first@?$_Compressed_pair@V?$allocator@D@std@@V?$_String_val@U?$_Simple_types@D@std@@@2@$00@std@@QBEABV?$allocator@D@2@XZ DD 019930522H
	DD	00H
	DD	00H
	DD	2 DUP(00H)
	DD	2 DUP(00H)
	DD	00H
	DD	05H
xdata$x	ENDS
;	COMDAT xdata$x
xdata$x	SEGMENT
__ehfuncinfo$?_Get_first@?$_Compressed_pair@V?$allocator@D@std@@V?$_String_val@U?$_Simple_types@D@std@@@2@$00@std@@QAEAAV?$allocator@D@2@XZ DD 019930522H
	DD	00H
	DD	00H
	DD	2 DUP(00H)
	DD	2 DUP(00H)
	DD	00H
	DD	05H
xdata$x	ENDS
;	COMDAT xdata$x
xdata$x	SEGMENT
__ehfuncinfo$?_Getal@?$basic_string@DU?$char_traits@D@std@@V?$allocator@D@2@@std@@ABEABV?$allocator@D@2@XZ DD 019930522H
	DD	00H
	DD	00H
	DD	2 DUP(00H)
	DD	2 DUP(00H)
	DD	00H
	DD	05H
xdata$x	ENDS
;	COMDAT xdata$x
xdata$x	SEGMENT
__ehfuncinfo$?_Getal@?$basic_string@DU?$char_traits@D@std@@V?$allocator@D@2@@std@@AAEAAV?$allocator@D@2@XZ DD 019930522H
	DD	00H
	DD	00H
	DD	2 DUP(00H)
	DD	2 DUP(00H)
	DD	00H
	DD	05H
xdata$x	ENDS
;	COMDAT xdata$x
xdata$x	SEGMENT
__ehfuncinfo$?_Tidy_deallocate@?$basic_string@DU?$char_traits@D@std@@V?$allocator@D@2@@std@@AAEXXZ DD 019930522H
	DD	00H
	DD	00H
	DD	2 DUP(00H)
	DD	2 DUP(00H)
	DD	00H
	DD	05H
xdata$x	ENDS
;	COMDAT xdata$x
xdata$x	SEGMENT
__ehfuncinfo$?_Tidy_init@?$basic_string@DU?$char_traits@D@std@@V?$allocator@D@2@@std@@AAEXXZ DD 019930522H
	DD	00H
	DD	00H
	DD	2 DUP(00H)
	DD	2 DUP(00H)
	DD	00H
	DD	05H
xdata$x	ENDS
;	COMDAT xdata$x
xdata$x	SEGMENT
__ehfuncinfo$?_Calculate_growth@?$basic_string@DU?$char_traits@D@std@@V?$allocator@D@2@@std@@ABEII@Z DD 019930522H
	DD	00H
	DD	00H
	DD	2 DUP(00H)
	DD	2 DUP(00H)
	DD	00H
	DD	05H
xdata$x	ENDS
;	COMDAT xdata$x
xdata$x	SEGMENT
__ehfuncinfo$?_Calculate_growth@?$basic_string@DU?$char_traits@D@std@@V?$allocator@D@2@@std@@CAIIII@Z DD 019930522H
	DD	00H
	DD	00H
	DD	2 DUP(00H)
	DD	2 DUP(00H)
	DD	00H
	DD	05H
xdata$x	ENDS
;	COMDAT xdata$x
xdata$x	SEGMENT
__ehfuncinfo$?get_allocator@?$basic_string@DU?$char_traits@D@std@@V?$allocator@D@2@@std@@QBE?AV?$allocator@D@2@XZ DD 019930522H
	DD	00H
	DD	00H
	DD	2 DUP(00H)
	DD	2 DUP(00H)
	DD	00H
	DD	05H
xdata$x	ENDS
;	COMDAT xdata$x
xdata$x	SEGMENT
__ehfuncinfo$?max_size@?$basic_string@DU?$char_traits@D@std@@V?$allocator@D@2@@std@@QBEIXZ DD 019930522H
	DD	00H
	DD	00H
	DD	2 DUP(00H)
	DD	2 DUP(00H)
	DD	00H
	DD	05H
xdata$x	ENDS
;	COMDAT xdata$x
xdata$x	SEGMENT
__ehfuncinfo$?size@?$basic_string@DU?$char_traits@D@std@@V?$allocator@D@2@@std@@QBEIXZ DD 019930522H
	DD	00H
	DD	00H
	DD	2 DUP(00H)
	DD	2 DUP(00H)
	DD	00H
	DD	05H
xdata$x	ENDS
;	COMDAT xdata$x
xdata$x	SEGMENT
__ehfuncinfo$?c_str@?$basic_string@DU?$char_traits@D@std@@V?$allocator@D@2@@std@@QBEPBDXZ DD 019930522H
	DD	00H
	DD	00H
	DD	2 DUP(00H)
	DD	2 DUP(00H)
	DD	00H
	DD	05H
xdata$x	ENDS
;	COMDAT xdata$x
xdata$x	SEGMENT
__ehfuncinfo$??1?$basic_string@DU?$char_traits@D@std@@V?$allocator@D@2@@std@@QAE@XZ DD 019930522H
	DD	00H
	DD	00H
	DD	2 DUP(00H)
	DD	2 DUP(00H)
	DD	00H
	DD	05H
xdata$x	ENDS
;	COMDAT xdata$x
xdata$x	SEGMENT
__ehfuncinfo$??0?$basic_string@DU?$char_traits@D@std@@V?$allocator@D@2@@std@@QAE@XZ DD 019930522H
	DD	00H
	DD	00H
	DD	2 DUP(00H)
	DD	2 DUP(00H)
	DD	00H
	DD	05H
xdata$x	ENDS
;	COMDAT xdata$x
xdata$x	SEGMENT
__ehfuncinfo$??1_Bxty@?$_String_val@U?$_Simple_types@D@std@@@std@@QAE@XZ DD 019930522H
	DD	00H
	DD	00H
	DD	2 DUP(00H)
	DD	2 DUP(00H)
	DD	00H
	DD	05H
xdata$x	ENDS
;	COMDAT xdata$x
xdata$x	SEGMENT
__ehfuncinfo$?max_size@?$_Default_allocator_traits@V?$allocator@D@std@@@std@@SAIABV?$allocator@D@2@@Z DD 019930522H
	DD	00H
	DD	00H
	DD	2 DUP(00H)
	DD	2 DUP(00H)
	DD	00H
	DD	05H
xdata$x	ENDS
;	COMDAT xdata$x
xdata$x	SEGMENT
__ehfuncinfo$??0?$allocator@D@std@@QAE@XZ DD 019930522H
	DD	00H
	DD	00H
	DD	2 DUP(00H)
	DD	2 DUP(00H)
	DD	00H
	DD	05H
xdata$x	ENDS
;	COMDAT xdata$x
xdata$x	SEGMENT
__ehfuncinfo$??$_Min_value@I@std@@YAABIABI0@Z DD 019930522H
	DD	00H
	DD	00H
	DD	2 DUP(00H)
	DD	2 DUP(00H)
	DD	00H
	DD	05H
xdata$x	ENDS
;	COMDAT xdata$x
xdata$x	SEGMENT
__ehfuncinfo$?eof@?$_Narrow_char_traits@DH@std@@SAHXZ DD 019930522H
	DD	00H
	DD	00H
	DD	2 DUP(00H)
	DD	2 DUP(00H)
	DD	00H
	DD	05H
xdata$x	ENDS
;	COMDAT xdata$x
xdata$x	SEGMENT
__ehfuncinfo$?not_eof@?$_Narrow_char_traits@DH@std@@SAHABH@Z DD 019930522H
	DD	00H
	DD	00H
	DD	2 DUP(00H)
	DD	2 DUP(00H)
	DD	00H
	DD	05H
xdata$x	ENDS
;	COMDAT xdata$x
xdata$x	SEGMENT
__ehfuncinfo$?eq_int_type@?$_Narrow_char_traits@DH@std@@SA_NABH0@Z DD 019930522H
	DD	00H
	DD	00H
	DD	2 DUP(00H)
	DD	2 DUP(00H)
	DD	00H
	DD	05H
xdata$x	ENDS
;	COMDAT xdata$x
xdata$x	SEGMENT
__ehfuncinfo$?to_int_type@?$_Narrow_char_traits@DH@std@@SAHABD@Z DD 019930522H
	DD	00H
	DD	00H
	DD	2 DUP(00H)
	DD	2 DUP(00H)
	DD	00H
	DD	05H
xdata$x	ENDS
;	COMDAT xdata$x
xdata$x	SEGMENT
__ehfuncinfo$?to_char_type@?$_Narrow_char_traits@DH@std@@SADABH@Z DD 019930522H
	DD	00H
	DD	00H
	DD	2 DUP(00H)
	DD	2 DUP(00H)
	DD	00H
	DD	05H
xdata$x	ENDS
;	COMDAT xdata$x
xdata$x	SEGMENT
__ehfuncinfo$?eq@?$_Narrow_char_traits@DH@std@@SA_NABD0@Z DD 019930522H
	DD	00H
	DD	00H
	DD	2 DUP(00H)
	DD	2 DUP(00H)
	DD	00H
	DD	05H
xdata$x	ENDS
;	COMDAT xdata$x
xdata$x	SEGMENT
__ehfuncinfo$?assign@?$_Narrow_char_traits@DH@std@@SAXAADABD@Z DD 019930522H
	DD	00H
	DD	00H
	DD	2 DUP(00H)
	DD	2 DUP(00H)
	DD	00H
	DD	05H
xdata$x	ENDS
;	COMDAT xdata$x
xdata$x	SEGMENT
__ehfuncinfo$?copy@?$_Narrow_char_traits@DH@std@@SAPADQADQBDI@Z DD 019930522H
	DD	00H
	DD	00H
	DD	2 DUP(00H)
	DD	2 DUP(00H)
	DD	00H
	DD	05H
xdata$x	ENDS
;	COMDAT xdata$x
xdata$x	SEGMENT
__ehfuncinfo$??$_Construct_in_place@U_Container_proxy@std@@PAU_Container_base12@2@@std@@YAXAAU_Container_proxy@0@$$QAPAU_Container_base12@0@@Z DD 019930522H
	DD	00H
	DD	00H
	DD	2 DUP(00H)
	DD	2 DUP(00H)
	DD	00H
	DD	05H
xdata$x	ENDS
;	COMDAT xdata$x
xdata$x	SEGMENT
__ehfuncinfo$?_Orphan_all@_Container_base12@std@@QAEXXZ DD 019930522H
	DD	00H
	DD	00H
	DD	2 DUP(00H)
	DD	2 DUP(00H)
	DD	00H
	DD	05H
xdata$x	ENDS
;	COMDAT xdata$x
xdata$x	SEGMENT
__ehfuncinfo$??0_Container_base12@std@@QAE@XZ DD 019930522H
	DD	00H
	DD	00H
	DD	2 DUP(00H)
	DD	2 DUP(00H)
	DD	00H
	DD	05H
xdata$x	ENDS
;	COMDAT xdata$x
xdata$x	SEGMENT
__ehfuncinfo$??0_Container_proxy@std@@QAE@PAU_Container_base12@1@@Z DD 019930522H
	DD	00H
	DD	00H
	DD	2 DUP(00H)
	DD	2 DUP(00H)
	DD	00H
	DD	05H
xdata$x	ENDS
;	COMDAT xdata$x
xdata$x	SEGMENT
__ehfuncinfo$?max@?$numeric_limits@H@std@@SAHXZ DD 019930522H
	DD	00H
	DD	00H
	DD	2 DUP(00H)
	DD	2 DUP(00H)
	DD	00H
	DD	05H
xdata$x	ENDS
;	COMDAT xdata$x
xdata$x	SEGMENT
__ehfuncinfo$??0bad_array_new_length@std@@QAE@XZ DD 019930522H
	DD	00H
	DD	00H
	DD	2 DUP(00H)
	DD	2 DUP(00H)
	DD	00H
	DD	05H
xdata$x	ENDS
;	COMDAT xdata$x
xdata$x	SEGMENT
__ehfuncinfo$??0bad_alloc@std@@AAE@QBD@Z DD 019930522H
	DD	00H
	DD	00H
	DD	2 DUP(00H)
	DD	2 DUP(00H)
	DD	00H
	DD	05H
xdata$x	ENDS
;	COMDAT xdata$x
xdata$x	SEGMENT
__ehfuncinfo$??1exception@std@@UAE@XZ DD 019930522H
	DD	00H
	DD	00H
	DD	2 DUP(00H)
	DD	2 DUP(00H)
	DD	00H
	DD	05H
xdata$x	ENDS
;	COMDAT xdata$x
xdata$x	SEGMENT
__ehfuncinfo$??0exception@std@@QAE@ABV01@@Z DD 019930522H
	DD	00H
	DD	00H
	DD	2 DUP(00H)
	DD	2 DUP(00H)
	DD	00H
	DD	05H
xdata$x	ENDS
;	COMDAT xdata$x
xdata$x	SEGMENT
__ehfuncinfo$??0exception@std@@QAE@QBDH@Z DD 019930522H
	DD	00H
	DD	00H
	DD	2 DUP(00H)
	DD	2 DUP(00H)
	DD	00H
	DD	05H
xdata$x	ENDS
;	COMDAT xdata$x
xdata$x	SEGMENT
__ehfuncinfo$??2@YAPAXIPAX@Z DD 019930522H
	DD	00H
	DD	00H
	DD	2 DUP(00H)
	DD	2 DUP(00H)
	DD	00H
	DD	05H
xdata$x	ENDS
; Function compile flags: /Odt
;	COMDAT __JustMyCode_Default
_TEXT	SEGMENT
__JustMyCode_Default PROC				; COMDAT
  00000	55		 push	 ebp
  00001	8b ec		 mov	 ebp, esp
  00003	5d		 pop	 ebp
  00004	c3		 ret	 0
__JustMyCode_Default ENDP
_TEXT	ENDS
; Function compile flags: /Odsp /RTCsu /ZI
;	COMDAT ??_E?$basic_stringstream@DU?$char_traits@D@std@@V?$allocator@D@2@@std@@$4PPPPPPPM@A@AEPAXI@Z
_TEXT	SEGMENT
??_E?$basic_stringstream@DU?$char_traits@D@std@@V?$allocator@D@2@@std@@$4PPPPPPPM@A@AEPAXI@Z PROC ; std::basic_stringstream<char,std::char_traits<char>,std::allocator<char> >::`vector deleting destructor', COMDAT
  00000	2b 49 fc	 sub	 ecx, DWORD PTR [ecx-4]
  00003	e9 00 00 00 00	 jmp	 ??_E?$basic_stringstream@DU?$char_traits@D@std@@V?$allocator@D@2@@std@@UAEPAXI@Z
??_E?$basic_stringstream@DU?$char_traits@D@std@@V?$allocator@D@2@@std@@$4PPPPPPPM@A@AEPAXI@Z ENDP ; std::basic_stringstream<char,std::char_traits<char>,std::allocator<char> >::`vector deleting destructor'
_TEXT	ENDS
; Function compile flags: /Odtp /RTCsu /ZI
; File C:\Program Files (x86)\Microsoft Visual Studio\2019\Community\VC\Tools\MSVC\14.24.28314\include\type_traits
;	COMDAT ??$forward@AAPAV_Facet_base@std@@@std@@YAAAPAV_Facet_base@0@AAPAV10@@Z
_TEXT	SEGMENT
__$EHRec$ = -12						; size = 12
__Arg$ = 8						; size = 4
??$forward@AAPAV_Facet_base@std@@@std@@YAAAPAV_Facet_base@0@AAPAV10@@Z PROC ; std::forward<std::_Facet_base * &>, COMDAT

; 1426 :     remove_reference_t<_Ty>& _Arg) noexcept { // forward an lvalue as either an lvalue or an rvalue

  00000	55		 push	 ebp
  00001	8b ec		 mov	 ebp, esp
  00003	6a ff		 push	 -1
  00005	68 00 00 00 00	 push	 __ehhandler$??$forward@AAPAV_Facet_base@std@@@std@@YAAAPAV_Facet_base@0@AAPAV10@@Z
  0000a	64 a1 00 00 00
	00		 mov	 eax, DWORD PTR fs:0
  00010	50		 push	 eax
  00011	81 ec c0 00 00
	00		 sub	 esp, 192		; 000000c0H
  00017	53		 push	 ebx
  00018	56		 push	 esi
  00019	57		 push	 edi
  0001a	8d bd 34 ff ff
	ff		 lea	 edi, DWORD PTR [ebp-204]
  00020	b9 30 00 00 00	 mov	 ecx, 48			; 00000030H
  00025	b8 cc cc cc cc	 mov	 eax, -858993460		; ccccccccH
  0002a	f3 ab		 rep stosd
  0002c	a1 00 00 00 00	 mov	 eax, DWORD PTR ___security_cookie
  00031	33 c5		 xor	 eax, ebp
  00033	50		 push	 eax
  00034	8d 45 f4	 lea	 eax, DWORD PTR __$EHRec$[ebp]
  00037	64 a3 00 00 00
	00		 mov	 DWORD PTR fs:0, eax
  0003d	b9 00 00 00 00	 mov	 ecx, OFFSET __4877352E_type_traits
  00042	e8 00 00 00 00	 call	 @__CheckForDebuggerJustMyCode@4

; 1427 :     return static_cast<_Ty&&>(_Arg);

  00047	8b 45 08	 mov	 eax, DWORD PTR __Arg$[ebp]

; 1428 : }

  0004a	8b 4d f4	 mov	 ecx, DWORD PTR __$EHRec$[ebp]
  0004d	64 89 0d 00 00
	00 00		 mov	 DWORD PTR fs:0, ecx
  00054	59		 pop	 ecx
  00055	5f		 pop	 edi
  00056	5e		 pop	 esi
  00057	5b		 pop	 ebx
  00058	81 c4 cc 00 00
	00		 add	 esp, 204		; 000000ccH
  0005e	3b ec		 cmp	 ebp, esp
  00060	e8 00 00 00 00	 call	 __RTC_CheckEsp
  00065	8b e5		 mov	 esp, ebp
  00067	5d		 pop	 ebp
  00068	c3		 ret	 0
_TEXT	ENDS
;	COMDAT text$x
text$x	SEGMENT
__ehhandler$??$forward@AAPAV_Facet_base@std@@@std@@YAAAPAV_Facet_base@0@AAPAV10@@Z:
  00000	8b 54 24 08	 mov	 edx, DWORD PTR [esp+8]
  00004	8d 42 0c	 lea	 eax, DWORD PTR [edx+12]
  00007	8b 8a 30 ff ff
	ff		 mov	 ecx, DWORD PTR [edx-208]
  0000d	33 c8		 xor	 ecx, eax
  0000f	e8 00 00 00 00	 call	 @__security_check_cookie@4
  00014	b8 00 00 00 00	 mov	 eax, OFFSET __ehfuncinfo$??$forward@AAPAV_Facet_base@std@@@std@@YAAAPAV_Facet_base@0@AAPAV10@@Z
  00019	e9 00 00 00 00	 jmp	 ___CxxFrameHandler3
text$x	ENDS
??$forward@AAPAV_Facet_base@std@@@std@@YAAAPAV_Facet_base@0@AAPAV10@@Z ENDP ; std::forward<std::_Facet_base * &>
; Function compile flags: /Odtp /RTCsu /ZI
; File C:\Program Files (x86)\Microsoft Visual Studio\2019\Community\VC\Tools\MSVC\14.24.28314\include\xmemory
;	COMDAT ?deallocate@?$_Default_allocator_traits@V?$allocator@U_Container_proxy@std@@@std@@@std@@SAXAAV?$allocator@U_Container_proxy@std@@@2@QAU_Container_proxy@2@I@Z
_TEXT	SEGMENT
___formal$ = 8						; size = 4
__Ptr$ = 12						; size = 4
__Count$ = 16						; size = 4
?deallocate@?$_Default_allocator_traits@V?$allocator@U_Container_proxy@std@@@std@@@std@@SAXAAV?$allocator@U_Container_proxy@std@@@2@QAU_Container_proxy@2@I@Z PROC ; std::_Default_allocator_traits<std::allocator<std::_Container_proxy> >::deallocate, COMDAT

; 664  :     static void deallocate(_Alloc&, const pointer _Ptr, const size_type _Count) {

  00000	55		 push	 ebp
  00001	8b ec		 mov	 ebp, esp
  00003	81 ec c0 00 00
	00		 sub	 esp, 192		; 000000c0H
  00009	53		 push	 ebx
  0000a	56		 push	 esi
  0000b	57		 push	 edi
  0000c	8d bd 40 ff ff
	ff		 lea	 edi, DWORD PTR [ebp-192]
  00012	b9 30 00 00 00	 mov	 ecx, 48			; 00000030H
  00017	b8 cc cc cc cc	 mov	 eax, -858993460		; ccccccccH
  0001c	f3 ab		 rep stosd
  0001e	b9 00 00 00 00	 mov	 ecx, OFFSET __B1B75AB9_xmemory
  00023	e8 00 00 00 00	 call	 @__CheckForDebuggerJustMyCode@4

; 665  :         // no overflow check on the following multiply; we assume _Allocate did that check
; 666  :         _Deallocate<_New_alignof<value_type>>(_Ptr, sizeof(value_type) * _Count);

  00028	8b 45 10	 mov	 eax, DWORD PTR __Count$[ebp]
  0002b	c1 e0 03	 shl	 eax, 3
  0002e	50		 push	 eax
  0002f	8b 4d 0c	 mov	 ecx, DWORD PTR __Ptr$[ebp]
  00032	51		 push	 ecx
  00033	e8 00 00 00 00	 call	 ??$_Deallocate@$07$0A@@std@@YAXPAXI@Z ; std::_Deallocate<8,0>
  00038	83 c4 08	 add	 esp, 8

; 667  :     }

  0003b	5f		 pop	 edi
  0003c	5e		 pop	 esi
  0003d	5b		 pop	 ebx
  0003e	81 c4 c0 00 00
	00		 add	 esp, 192		; 000000c0H
  00044	3b ec		 cmp	 ebp, esp
  00046	e8 00 00 00 00	 call	 __RTC_CheckEsp
  0004b	8b e5		 mov	 esp, ebp
  0004d	5d		 pop	 ebp
  0004e	c3		 ret	 0
?deallocate@?$_Default_allocator_traits@V?$allocator@U_Container_proxy@std@@@std@@@std@@SAXAAV?$allocator@U_Container_proxy@std@@@2@QAU_Container_proxy@2@I@Z ENDP ; std::_Default_allocator_traits<std::allocator<std::_Container_proxy> >::deallocate
_TEXT	ENDS
; Function compile flags: /Odtp /RTCsu /ZI
; File C:\Program Files (x86)\Microsoft Visual Studio\2019\Community\VC\Tools\MSVC\14.24.28314\include\xmemory
;	COMDAT ??$?0AAPAV_Facet_base@std@@@?$_Compressed_pair@U?$default_delete@V_Facet_base@std@@@std@@PAV_Facet_base@2@$00@std@@QAE@U_Zero_then_variadic_args_t@1@AAPAV_Facet_base@1@@Z
_TEXT	SEGMENT
_this$ = -20						; size = 4
__$EHRec$ = -12						; size = 12
___formal$ = 8						; size = 1
_<_Val2_0>$ = 12					; size = 4
??$?0AAPAV_Facet_base@std@@@?$_Compressed_pair@U?$default_delete@V_Facet_base@std@@@std@@PAV_Facet_base@2@$00@std@@QAE@U_Zero_then_variadic_args_t@1@AAPAV_Facet_base@1@@Z PROC ; std::_Compressed_pair<std::default_delete<std::_Facet_base>,std::_Facet_base *,1>::_Compressed_pair<std::default_delete<std::_Facet_base>,std::_Facet_base *,1><std::_Facet_base * &>, COMDAT
; _this$ = ecx

; 1328 :         : _Ty1(), _Myval2(_STD forward<_Other2>(_Val2)...) {}

  00000	55		 push	 ebp
  00001	8b ec		 mov	 ebp, esp
  00003	6a ff		 push	 -1
  00005	68 00 00 00 00	 push	 __ehhandler$??$?0AAPAV_Facet_base@std@@@?$_Compressed_pair@U?$default_delete@V_Facet_base@std@@@std@@PAV_Facet_base@2@$00@std@@QAE@U_Zero_then_variadic_args_t@1@AAPAV_Facet_base@1@@Z
  0000a	64 a1 00 00 00
	00		 mov	 eax, DWORD PTR fs:0
  00010	50		 push	 eax
  00011	81 ec cc 00 00
	00		 sub	 esp, 204		; 000000ccH
  00017	53		 push	 ebx
  00018	56		 push	 esi
  00019	57		 push	 edi
  0001a	51		 push	 ecx
  0001b	8d bd 28 ff ff
	ff		 lea	 edi, DWORD PTR [ebp-216]
  00021	b9 33 00 00 00	 mov	 ecx, 51			; 00000033H
  00026	b8 cc cc cc cc	 mov	 eax, -858993460		; ccccccccH
  0002b	f3 ab		 rep stosd
  0002d	59		 pop	 ecx
  0002e	a1 00 00 00 00	 mov	 eax, DWORD PTR ___security_cookie
  00033	33 c5		 xor	 eax, ebp
  00035	50		 push	 eax
  00036	8d 45 f4	 lea	 eax, DWORD PTR __$EHRec$[ebp]
  00039	64 a3 00 00 00
	00		 mov	 DWORD PTR fs:0, eax
  0003f	89 4d ec	 mov	 DWORD PTR _this$[ebp], ecx
  00042	b9 00 00 00 00	 mov	 ecx, OFFSET __B1B75AB9_xmemory
  00047	e8 00 00 00 00	 call	 @__CheckForDebuggerJustMyCode@4
  0004c	8b 45 0c	 mov	 eax, DWORD PTR _<_Val2_0>$[ebp]
  0004f	50		 push	 eax
  00050	e8 00 00 00 00	 call	 ??$forward@AAPAV_Facet_base@std@@@std@@YAAAPAV_Facet_base@0@AAPAV10@@Z ; std::forward<std::_Facet_base * &>
  00055	83 c4 04	 add	 esp, 4
  00058	8b 4d ec	 mov	 ecx, DWORD PTR _this$[ebp]
  0005b	8b 10		 mov	 edx, DWORD PTR [eax]
  0005d	89 11		 mov	 DWORD PTR [ecx], edx
  0005f	8b 45 ec	 mov	 eax, DWORD PTR _this$[ebp]
  00062	8b 4d f4	 mov	 ecx, DWORD PTR __$EHRec$[ebp]
  00065	64 89 0d 00 00
	00 00		 mov	 DWORD PTR fs:0, ecx
  0006c	59		 pop	 ecx
  0006d	5f		 pop	 edi
  0006e	5e		 pop	 esi
  0006f	5b		 pop	 ebx
  00070	81 c4 d8 00 00
	00		 add	 esp, 216		; 000000d8H
  00076	3b ec		 cmp	 ebp, esp
  00078	e8 00 00 00 00	 call	 __RTC_CheckEsp
  0007d	8b e5		 mov	 esp, ebp
  0007f	5d		 pop	 ebp
  00080	c2 08 00	 ret	 8
_TEXT	ENDS
;	COMDAT text$x
text$x	SEGMENT
__ehhandler$??$?0AAPAV_Facet_base@std@@@?$_Compressed_pair@U?$default_delete@V_Facet_base@std@@@std@@PAV_Facet_base@2@$00@std@@QAE@U_Zero_then_variadic_args_t@1@AAPAV_Facet_base@1@@Z:
  00000	8b 54 24 08	 mov	 edx, DWORD PTR [esp+8]
  00004	8d 42 0c	 lea	 eax, DWORD PTR [edx+12]
  00007	8b 8a 24 ff ff
	ff		 mov	 ecx, DWORD PTR [edx-220]
  0000d	33 c8		 xor	 ecx, eax
  0000f	e8 00 00 00 00	 call	 @__security_check_cookie@4
  00014	b8 00 00 00 00	 mov	 eax, OFFSET __ehfuncinfo$??$?0AAPAV_Facet_base@std@@@?$_Compressed_pair@U?$default_delete@V_Facet_base@std@@@std@@PAV_Facet_base@2@$00@std@@QAE@U_Zero_then_variadic_args_t@1@AAPAV_Facet_base@1@@Z
  00019	e9 00 00 00 00	 jmp	 ___CxxFrameHandler3
text$x	ENDS
??$?0AAPAV_Facet_base@std@@@?$_Compressed_pair@U?$default_delete@V_Facet_base@std@@@std@@PAV_Facet_base@2@$00@std@@QAE@U_Zero_then_variadic_args_t@1@AAPAV_Facet_base@1@@Z ENDP ; std::_Compressed_pair<std::default_delete<std::_Facet_base>,std::_Facet_base *,1>::_Compressed_pair<std::default_delete<std::_Facet_base>,std::_Facet_base *,1><std::_Facet_base * &>
; Function compile flags: /Odtp /RTCsu /ZI
; File C:\Program Files (x86)\Microsoft Visual Studio\2019\Community\VC\Tools\MSVC\14.24.28314\include\utility
;	COMDAT ??$exchange@PAV_Facet_base@std@@PAV12@@std@@YAPAV_Facet_base@0@AAPAV10@$$QAPAV10@@Z
_TEXT	SEGMENT
__Old_val$ = -8						; size = 4
__Val$ = 8						; size = 4
__New_val$ = 12						; size = 4
??$exchange@PAV_Facet_base@std@@PAV12@@std@@YAPAV_Facet_base@0@AAPAV10@$$QAPAV10@@Z PROC ; std::exchange<std::_Facet_base *,std::_Facet_base *>, COMDAT

; 569  : _Ty exchange(_Ty& _Val, _Other&& _New_val) { // assign _New_val to _Val, return previous _Val

  00000	55		 push	 ebp
  00001	8b ec		 mov	 ebp, esp
  00003	81 ec cc 00 00
	00		 sub	 esp, 204		; 000000ccH
  00009	53		 push	 ebx
  0000a	56		 push	 esi
  0000b	57		 push	 edi
  0000c	8d bd 34 ff ff
	ff		 lea	 edi, DWORD PTR [ebp-204]
  00012	b9 33 00 00 00	 mov	 ecx, 51			; 00000033H
  00017	b8 cc cc cc cc	 mov	 eax, -858993460		; ccccccccH
  0001c	f3 ab		 rep stosd
  0001e	b9 00 00 00 00	 mov	 ecx, OFFSET __DB22397A_utility
  00023	e8 00 00 00 00	 call	 @__CheckForDebuggerJustMyCode@4

; 570  :     _Ty _Old_val = static_cast<_Ty&&>(_Val);

  00028	8b 45 08	 mov	 eax, DWORD PTR __Val$[ebp]
  0002b	8b 08		 mov	 ecx, DWORD PTR [eax]
  0002d	89 4d f8	 mov	 DWORD PTR __Old_val$[ebp], ecx

; 571  :     _Val         = static_cast<_Other&&>(_New_val);

  00030	8b 45 08	 mov	 eax, DWORD PTR __Val$[ebp]
  00033	8b 4d 0c	 mov	 ecx, DWORD PTR __New_val$[ebp]
  00036	8b 11		 mov	 edx, DWORD PTR [ecx]
  00038	89 10		 mov	 DWORD PTR [eax], edx

; 572  :     return _Old_val;

  0003a	8b 45 f8	 mov	 eax, DWORD PTR __Old_val$[ebp]

; 573  : }

  0003d	5f		 pop	 edi
  0003e	5e		 pop	 esi
  0003f	5b		 pop	 ebx
  00040	81 c4 cc 00 00
	00		 add	 esp, 204		; 000000ccH
  00046	3b ec		 cmp	 ebp, esp
  00048	e8 00 00 00 00	 call	 __RTC_CheckEsp
  0004d	8b e5		 mov	 esp, ebp
  0004f	5d		 pop	 ebp
  00050	c3		 ret	 0
??$exchange@PAV_Facet_base@std@@PAV12@@std@@YAPAV_Facet_base@0@AAPAV10@$$QAPAV10@@Z ENDP ; std::exchange<std::_Facet_base *,std::_Facet_base *>
_TEXT	ENDS
; Function compile flags: /Odtp /RTCsu /ZI
; File C:\Program Files (x86)\Microsoft Visual Studio\2019\Community\VC\Tools\MSVC\14.24.28314\include\xmemory
;	COMDAT ??$_Allocate_manually_vector_aligned@U_Default_allocate_traits@std@@@std@@YAPAXI@Z
_TEXT	SEGMENT
__Ptr$ = -32						; size = 4
__Ptr_container$ = -20					; size = 4
__Block_size$ = -8					; size = 4
__Bytes$ = 8						; size = 4
??$_Allocate_manually_vector_aligned@U_Default_allocate_traits@std@@@std@@YAPAXI@Z PROC ; std::_Allocate_manually_vector_aligned<std::_Default_allocate_traits>, COMDAT

; 87   : _DECLSPEC_ALLOCATOR void* _Allocate_manually_vector_aligned(const size_t _Bytes) {

  00000	55		 push	 ebp
  00001	8b ec		 mov	 ebp, esp
  00003	81 ec e4 00 00
	00		 sub	 esp, 228		; 000000e4H
  00009	53		 push	 ebx
  0000a	56		 push	 esi
  0000b	57		 push	 edi
  0000c	8d bd 1c ff ff
	ff		 lea	 edi, DWORD PTR [ebp-228]
  00012	b9 39 00 00 00	 mov	 ecx, 57			; 00000039H
  00017	b8 cc cc cc cc	 mov	 eax, -858993460		; ccccccccH
  0001c	f3 ab		 rep stosd
  0001e	b9 00 00 00 00	 mov	 ecx, OFFSET __B1B75AB9_xmemory
  00023	e8 00 00 00 00	 call	 @__CheckForDebuggerJustMyCode@4

; 88   :     // allocate _Bytes manually aligned to at least _Big_allocation_alignment
; 89   :     const size_t _Block_size = _Non_user_size + _Bytes;

  00028	8b 45 08	 mov	 eax, DWORD PTR __Bytes$[ebp]
  0002b	83 c0 27	 add	 eax, 39			; 00000027H
  0002e	89 45 f8	 mov	 DWORD PTR __Block_size$[ebp], eax

; 90   :     if (_Block_size <= _Bytes) {

  00031	8b 45 f8	 mov	 eax, DWORD PTR __Block_size$[ebp]
  00034	3b 45 08	 cmp	 eax, DWORD PTR __Bytes$[ebp]
  00037	77 05		 ja	 SHORT $LN8@Allocate_m

; 91   :         _Throw_bad_array_new_length(); // add overflow

  00039	e8 00 00 00 00	 call	 ?_Throw_bad_array_new_length@std@@YAXXZ ; std::_Throw_bad_array_new_length
$LN8@Allocate_m:

; 92   :     }
; 93   : 
; 94   :     const uintptr_t _Ptr_container = reinterpret_cast<uintptr_t>(_Traits::_Allocate(_Block_size));

  0003e	8b 45 f8	 mov	 eax, DWORD PTR __Block_size$[ebp]
  00041	50		 push	 eax
  00042	e8 00 00 00 00	 call	 ?_Allocate@_Default_allocate_traits@std@@SAPAXI@Z ; std::_Default_allocate_traits::_Allocate
  00047	83 c4 04	 add	 esp, 4
  0004a	89 45 ec	 mov	 DWORD PTR __Ptr_container$[ebp], eax
$LN4@Allocate_m:

; 95   :     _STL_VERIFY(_Ptr_container != 0, "invalid argument"); // validate even in release since we're doing p[-1]

  0004d	83 7d ec 00	 cmp	 DWORD PTR __Ptr_container$[ebp], 0
  00051	74 02		 je	 SHORT $LN7@Allocate_m
  00053	eb 56		 jmp	 SHORT $LN2@Allocate_m
$LN7@Allocate_m:
  00055	8b f4		 mov	 esi, esp
  00057	68 00 00 00 00	 push	 OFFSET ??_C@_0BB@FCMFBGOM@invalid?5argument@
  0005c	68 00 00 00 00	 push	 OFFSET ??_C@_02DKCKIIND@?$CFs@
  00061	6a 00		 push	 0
  00063	6a 5f		 push	 95			; 0000005fH
  00065	68 00 00 00 00	 push	 OFFSET ??_C@_0GI@JKOMEBKC@C?3?2Program?5Files?5?$CIx86?$CJ?2Microsof@
  0006a	6a 02		 push	 2
  0006c	ff 15 00 00 00
	00		 call	 DWORD PTR __imp___CrtDbgReport
  00072	83 c4 18	 add	 esp, 24			; 00000018H
  00075	3b f4		 cmp	 esi, esp
  00077	e8 00 00 00 00	 call	 __RTC_CheckEsp
  0007c	83 f8 01	 cmp	 eax, 1
  0007f	75 01		 jne	 SHORT $LN12@Allocate_m
  00081	cc		 int	 3
$LN12@Allocate_m:
  00082	8b f4		 mov	 esi, esp
  00084	6a 00		 push	 0
  00086	6a 5f		 push	 95			; 0000005fH
  00088	68 00 00 00 00	 push	 OFFSET ??_C@_1NA@OANNLGA@?$AAC?$AA?3?$AA?2?$AAP?$AAr?$AAo?$AAg?$AAr?$AAa?$AAm?$AA?5?$AAF?$AAi?$AAl?$AAe@
  0008d	68 00 00 00 00	 push	 OFFSET ??_C@_1EO@GFNCMDLA@?$AAs?$AAt?$AAd?$AA?3?$AA?3?$AA_?$AAA?$AAl?$AAl?$AAo?$AAc?$AAa?$AAt?$AAe?$AA_@
  00092	68 00 00 00 00	 push	 OFFSET ??_C@_1CG@JNLFBNGN@?$AA?$CC?$AAi?$AAn?$AAv?$AAa?$AAl?$AAi?$AAd?$AA?5?$AAa?$AAr?$AAg?$AAu?$AAm?$AAe@
  00097	ff 15 00 00 00
	00		 call	 DWORD PTR __imp___invalid_parameter
  0009d	83 c4 14	 add	 esp, 20			; 00000014H
  000a0	3b f4		 cmp	 esi, esp
  000a2	e8 00 00 00 00	 call	 __RTC_CheckEsp
  000a7	33 c0		 xor	 eax, eax
  000a9	75 aa		 jne	 SHORT $LN7@Allocate_m
$LN2@Allocate_m:
  000ab	33 c0		 xor	 eax, eax
  000ad	75 9e		 jne	 SHORT $LN4@Allocate_m

; 96   :     void* const _Ptr = reinterpret_cast<void*>((_Ptr_container + _Non_user_size) & ~(_Big_allocation_alignment - 1));

  000af	8b 45 ec	 mov	 eax, DWORD PTR __Ptr_container$[ebp]
  000b2	83 c0 27	 add	 eax, 39			; 00000027H
  000b5	83 e0 e0	 and	 eax, -32		; ffffffe0H
  000b8	89 45 e0	 mov	 DWORD PTR __Ptr$[ebp], eax

; 97   :     static_cast<uintptr_t*>(_Ptr)[-1] = _Ptr_container;

  000bb	b8 04 00 00 00	 mov	 eax, 4
  000c0	6b c8 ff	 imul	 ecx, eax, -1
  000c3	8b 55 e0	 mov	 edx, DWORD PTR __Ptr$[ebp]
  000c6	8b 45 ec	 mov	 eax, DWORD PTR __Ptr_container$[ebp]
  000c9	89 04 0a	 mov	 DWORD PTR [edx+ecx], eax

; 98   : 
; 99   : #ifdef _DEBUG
; 100  :     static_cast<uintptr_t*>(_Ptr)[-2] = _Big_allocation_sentinel;

  000cc	b8 04 00 00 00	 mov	 eax, 4
  000d1	6b c8 fe	 imul	 ecx, eax, -2
  000d4	8b 55 e0	 mov	 edx, DWORD PTR __Ptr$[ebp]
  000d7	c7 04 0a fa fa
	fa fa		 mov	 DWORD PTR [edx+ecx], -84215046 ; fafafafaH

; 101  : #endif // _DEBUG
; 102  :     return _Ptr;

  000de	8b 45 e0	 mov	 eax, DWORD PTR __Ptr$[ebp]
$LN11@Allocate_m:

; 103  : }

  000e1	5f		 pop	 edi
  000e2	5e		 pop	 esi
  000e3	5b		 pop	 ebx
  000e4	81 c4 e4 00 00
	00		 add	 esp, 228		; 000000e4H
  000ea	3b ec		 cmp	 ebp, esp
  000ec	e8 00 00 00 00	 call	 __RTC_CheckEsp
  000f1	8b e5		 mov	 esp, ebp
  000f3	5d		 pop	 ebp
  000f4	c3		 ret	 0
??$_Allocate_manually_vector_aligned@U_Default_allocate_traits@std@@@std@@YAPAXI@Z ENDP ; std::_Allocate_manually_vector_aligned<std::_Default_allocate_traits>
_TEXT	ENDS
; Function compile flags: /Odtp /RTCsu /ZI
; File C:\Program Files (x86)\Microsoft Visual Studio\2019\Community\VC\Tools\MSVC\14.24.28314\include\type_traits
;	COMDAT ??$forward@ABQAD@std@@YAABQADABQAD@Z
_TEXT	SEGMENT
__$EHRec$ = -12						; size = 12
__Arg$ = 8						; size = 4
??$forward@ABQAD@std@@YAABQADABQAD@Z PROC		; std::forward<char * const &>, COMDAT

; 1426 :     remove_reference_t<_Ty>& _Arg) noexcept { // forward an lvalue as either an lvalue or an rvalue

  00000	55		 push	 ebp
  00001	8b ec		 mov	 ebp, esp
  00003	6a ff		 push	 -1
  00005	68 00 00 00 00	 push	 __ehhandler$??$forward@ABQAD@std@@YAABQADABQAD@Z
  0000a	64 a1 00 00 00
	00		 mov	 eax, DWORD PTR fs:0
  00010	50		 push	 eax
  00011	81 ec c0 00 00
	00		 sub	 esp, 192		; 000000c0H
  00017	53		 push	 ebx
  00018	56		 push	 esi
  00019	57		 push	 edi
  0001a	8d bd 34 ff ff
	ff		 lea	 edi, DWORD PTR [ebp-204]
  00020	b9 30 00 00 00	 mov	 ecx, 48			; 00000030H
  00025	b8 cc cc cc cc	 mov	 eax, -858993460		; ccccccccH
  0002a	f3 ab		 rep stosd
  0002c	a1 00 00 00 00	 mov	 eax, DWORD PTR ___security_cookie
  00031	33 c5		 xor	 eax, ebp
  00033	50		 push	 eax
  00034	8d 45 f4	 lea	 eax, DWORD PTR __$EHRec$[ebp]
  00037	64 a3 00 00 00
	00		 mov	 DWORD PTR fs:0, eax
  0003d	b9 00 00 00 00	 mov	 ecx, OFFSET __4877352E_type_traits
  00042	e8 00 00 00 00	 call	 @__CheckForDebuggerJustMyCode@4

; 1427 :     return static_cast<_Ty&&>(_Arg);

  00047	8b 45 08	 mov	 eax, DWORD PTR __Arg$[ebp]

; 1428 : }

  0004a	8b 4d f4	 mov	 ecx, DWORD PTR __$EHRec$[ebp]
  0004d	64 89 0d 00 00
	00 00		 mov	 DWORD PTR fs:0, ecx
  00054	59		 pop	 ecx
  00055	5f		 pop	 edi
  00056	5e		 pop	 esi
  00057	5b		 pop	 ebx
  00058	81 c4 cc 00 00
	00		 add	 esp, 204		; 000000ccH
  0005e	3b ec		 cmp	 ebp, esp
  00060	e8 00 00 00 00	 call	 __RTC_CheckEsp
  00065	8b e5		 mov	 esp, ebp
  00067	5d		 pop	 ebp
  00068	c3		 ret	 0
_TEXT	ENDS
;	COMDAT text$x
text$x	SEGMENT
__ehhandler$??$forward@ABQAD@std@@YAABQADABQAD@Z:
  00000	8b 54 24 08	 mov	 edx, DWORD PTR [esp+8]
  00004	8d 42 0c	 lea	 eax, DWORD PTR [edx+12]
  00007	8b 8a 30 ff ff
	ff		 mov	 ecx, DWORD PTR [edx-208]
  0000d	33 c8		 xor	 ecx, eax
  0000f	e8 00 00 00 00	 call	 @__security_check_cookie@4
  00014	b8 00 00 00 00	 mov	 eax, OFFSET __ehfuncinfo$??$forward@ABQAD@std@@YAABQADABQAD@Z
  00019	e9 00 00 00 00	 jmp	 ___CxxFrameHandler3
text$x	ENDS
??$forward@ABQAD@std@@YAABQADABQAD@Z ENDP		; std::forward<char * const &>
; Function compile flags: /Odtp /RTCsu /ZI
; File C:\Program Files (x86)\Microsoft Visual Studio\2019\Community\VC\Tools\MSVC\14.24.28314\include\xstddef
;	COMDAT ??$addressof@PAD@std@@YAPAPADAAPAD@Z
_TEXT	SEGMENT
__$EHRec$ = -12						; size = 12
__Val$ = 8						; size = 4
??$addressof@PAD@std@@YAPAPADAAPAD@Z PROC		; std::addressof<char *>, COMDAT

; 274  : _NODISCARD constexpr _Ty* addressof(_Ty& _Val) noexcept {

  00000	55		 push	 ebp
  00001	8b ec		 mov	 ebp, esp
  00003	6a ff		 push	 -1
  00005	68 00 00 00 00	 push	 __ehhandler$??$addressof@PAD@std@@YAPAPADAAPAD@Z
  0000a	64 a1 00 00 00
	00		 mov	 eax, DWORD PTR fs:0
  00010	50		 push	 eax
  00011	81 ec c0 00 00
	00		 sub	 esp, 192		; 000000c0H
  00017	53		 push	 ebx
  00018	56		 push	 esi
  00019	57		 push	 edi
  0001a	8d bd 34 ff ff
	ff		 lea	 edi, DWORD PTR [ebp-204]
  00020	b9 30 00 00 00	 mov	 ecx, 48			; 00000030H
  00025	b8 cc cc cc cc	 mov	 eax, -858993460		; ccccccccH
  0002a	f3 ab		 rep stosd
  0002c	a1 00 00 00 00	 mov	 eax, DWORD PTR ___security_cookie
  00031	33 c5		 xor	 eax, ebp
  00033	50		 push	 eax
  00034	8d 45 f4	 lea	 eax, DWORD PTR __$EHRec$[ebp]
  00037	64 a3 00 00 00
	00		 mov	 DWORD PTR fs:0, eax
  0003d	b9 00 00 00 00	 mov	 ecx, OFFSET __2C3DAE68_xstddef
  00042	e8 00 00 00 00	 call	 @__CheckForDebuggerJustMyCode@4

; 275  :     return __builtin_addressof(_Val);

  00047	8b 45 08	 mov	 eax, DWORD PTR __Val$[ebp]

; 276  : }

  0004a	8b 4d f4	 mov	 ecx, DWORD PTR __$EHRec$[ebp]
  0004d	64 89 0d 00 00
	00 00		 mov	 DWORD PTR fs:0, ecx
  00054	59		 pop	 ecx
  00055	5f		 pop	 edi
  00056	5e		 pop	 esi
  00057	5b		 pop	 ebx
  00058	81 c4 cc 00 00
	00		 add	 esp, 204		; 000000ccH
  0005e	3b ec		 cmp	 ebp, esp
  00060	e8 00 00 00 00	 call	 __RTC_CheckEsp
  00065	8b e5		 mov	 esp, ebp
  00067	5d		 pop	 ebp
  00068	c3		 ret	 0
_TEXT	ENDS
;	COMDAT text$x
text$x	SEGMENT
__ehhandler$??$addressof@PAD@std@@YAPAPADAAPAD@Z:
  00000	8b 54 24 08	 mov	 edx, DWORD PTR [esp+8]
  00004	8d 42 0c	 lea	 eax, DWORD PTR [edx+12]
  00007	8b 8a 30 ff ff
	ff		 mov	 ecx, DWORD PTR [edx-208]
  0000d	33 c8		 xor	 ecx, eax
  0000f	e8 00 00 00 00	 call	 @__security_check_cookie@4
  00014	b8 00 00 00 00	 mov	 eax, OFFSET __ehfuncinfo$??$addressof@PAD@std@@YAPAPADAAPAD@Z
  00019	e9 00 00 00 00	 jmp	 ___CxxFrameHandler3
text$x	ENDS
??$addressof@PAD@std@@YAPAPADAAPAD@Z ENDP		; std::addressof<char *>
; Function compile flags: /Odtp /RTCsu /ZI
; File C:\Program Files (x86)\Microsoft Visual Studio\2019\Community\VC\Tools\MSVC\14.24.28314\include\xmemory
;	COMDAT ??$_Deallocate_plain@V?$allocator@U_Container_proxy@std@@@std@@@std@@YAXAAV?$allocator@U_Container_proxy@std@@@0@QAU_Container_proxy@0@@Z
_TEXT	SEGMENT
__$EHRec$ = -12						; size = 12
__Al$ = 8						; size = 4
__Ptr$ = 12						; size = 4
??$_Deallocate_plain@V?$allocator@U_Container_proxy@std@@@std@@@std@@YAXAAV?$allocator@U_Container_proxy@std@@@0@QAU_Container_proxy@0@@Z PROC ; std::_Deallocate_plain<std::allocator<std::_Container_proxy> >, COMDAT

; 994  : void _Deallocate_plain(_Alloc& _Al, typename _Alloc::value_type* const _Ptr) noexcept {

  00000	55		 push	 ebp
  00001	8b ec		 mov	 ebp, esp
  00003	6a ff		 push	 -1
  00005	68 00 00 00 00	 push	 __ehhandler$??$_Deallocate_plain@V?$allocator@U_Container_proxy@std@@@std@@@std@@YAXAAV?$allocator@U_Container_proxy@std@@@0@QAU_Container_proxy@0@@Z
  0000a	64 a1 00 00 00
	00		 mov	 eax, DWORD PTR fs:0
  00010	50		 push	 eax
  00011	81 ec c0 00 00
	00		 sub	 esp, 192		; 000000c0H
  00017	53		 push	 ebx
  00018	56		 push	 esi
  00019	57		 push	 edi
  0001a	8d bd 34 ff ff
	ff		 lea	 edi, DWORD PTR [ebp-204]
  00020	b9 30 00 00 00	 mov	 ecx, 48			; 00000030H
  00025	b8 cc cc cc cc	 mov	 eax, -858993460		; ccccccccH
  0002a	f3 ab		 rep stosd
  0002c	a1 00 00 00 00	 mov	 eax, DWORD PTR ___security_cookie
  00031	33 c5		 xor	 eax, ebp
  00033	50		 push	 eax
  00034	8d 45 f4	 lea	 eax, DWORD PTR __$EHRec$[ebp]
  00037	64 a3 00 00 00
	00		 mov	 DWORD PTR fs:0, eax
  0003d	b9 00 00 00 00	 mov	 ecx, OFFSET __B1B75AB9_xmemory
  00042	e8 00 00 00 00	 call	 @__CheckForDebuggerJustMyCode@4

; 995  :     // deallocate a plain pointer using an allocator
; 996  :     using _Alloc_traits = allocator_traits<_Alloc>;
; 997  :     if constexpr (is_same_v<_Alloc_ptr_t<_Alloc>, typename _Alloc::value_type*>) {
; 998  :         _Alloc_traits::deallocate(_Al, _Ptr, 1);

  00047	6a 01		 push	 1
  00049	8b 45 0c	 mov	 eax, DWORD PTR __Ptr$[ebp]
  0004c	50		 push	 eax
  0004d	8b 4d 08	 mov	 ecx, DWORD PTR __Al$[ebp]
  00050	51		 push	 ecx
  00051	e8 00 00 00 00	 call	 ?deallocate@?$_Default_allocator_traits@V?$allocator@U_Container_proxy@std@@@std@@@std@@SAXAAV?$allocator@U_Container_proxy@std@@@2@QAU_Container_proxy@2@I@Z ; std::_Default_allocator_traits<std::allocator<std::_Container_proxy> >::deallocate
  00056	83 c4 0c	 add	 esp, 12			; 0000000cH

; 999  :     } else {
; 1000 :         using _Ptr_traits = pointer_traits<_Alloc_ptr_t<_Alloc>>;
; 1001 :         _Alloc_traits::deallocate(_Al, _Ptr_traits::pointer_to(*_Ptr), 1);
; 1002 :     }
; 1003 : }

  00059	8b 4d f4	 mov	 ecx, DWORD PTR __$EHRec$[ebp]
  0005c	64 89 0d 00 00
	00 00		 mov	 DWORD PTR fs:0, ecx
  00063	59		 pop	 ecx
  00064	5f		 pop	 edi
  00065	5e		 pop	 esi
  00066	5b		 pop	 ebx
  00067	81 c4 cc 00 00
	00		 add	 esp, 204		; 000000ccH
  0006d	3b ec		 cmp	 ebp, esp
  0006f	e8 00 00 00 00	 call	 __RTC_CheckEsp
  00074	8b e5		 mov	 esp, ebp
  00076	5d		 pop	 ebp
  00077	c3		 ret	 0
_TEXT	ENDS
;	COMDAT text$x
text$x	SEGMENT
__ehhandler$??$_Deallocate_plain@V?$allocator@U_Container_proxy@std@@@std@@@std@@YAXAAV?$allocator@U_Container_proxy@std@@@0@QAU_Container_proxy@0@@Z:
  00000	8b 54 24 08	 mov	 edx, DWORD PTR [esp+8]
  00004	8d 42 0c	 lea	 eax, DWORD PTR [edx+12]
  00007	8b 8a 30 ff ff
	ff		 mov	 ecx, DWORD PTR [edx-208]
  0000d	33 c8		 xor	 ecx, eax
  0000f	e8 00 00 00 00	 call	 @__security_check_cookie@4
  00014	b8 00 00 00 00	 mov	 eax, OFFSET __ehfuncinfo$??$_Deallocate_plain@V?$allocator@U_Container_proxy@std@@@std@@@std@@YAXAAV?$allocator@U_Container_proxy@std@@@0@QAU_Container_proxy@0@@Z
  00019	e9 00 00 00 00	 jmp	 ___CxxFrameHandler3
text$x	ENDS
??$_Deallocate_plain@V?$allocator@U_Container_proxy@std@@@std@@@std@@YAXAAV?$allocator@U_Container_proxy@std@@@0@QAU_Container_proxy@0@@Z ENDP ; std::_Deallocate_plain<std::allocator<std::_Container_proxy> >
; Function compile flags: /Odtp /RTCsu /ZI
;	COMDAT ??1sentry@?$basic_istream@DU?$char_traits@D@std@@@std@@QAE@XZ
_TEXT	SEGMENT
_this$ = -8						; size = 4
??1sentry@?$basic_istream@DU?$char_traits@D@std@@@std@@QAE@XZ PROC ; std::basic_istream<char,std::char_traits<char> >::sentry::~sentry, COMDAT
; _this$ = ecx
  00000	55		 push	 ebp
  00001	8b ec		 mov	 ebp, esp
  00003	81 ec cc 00 00
	00		 sub	 esp, 204		; 000000ccH
  00009	53		 push	 ebx
  0000a	56		 push	 esi
  0000b	57		 push	 edi
  0000c	51		 push	 ecx
  0000d	8d bd 34 ff ff
	ff		 lea	 edi, DWORD PTR [ebp-204]
  00013	b9 33 00 00 00	 mov	 ecx, 51			; 00000033H
  00018	b8 cc cc cc cc	 mov	 eax, -858993460		; ccccccccH
  0001d	f3 ab		 rep stosd
  0001f	59		 pop	 ecx
  00020	89 4d f8	 mov	 DWORD PTR _this$[ebp], ecx
  00023	8b 4d f8	 mov	 ecx, DWORD PTR _this$[ebp]
  00026	e8 00 00 00 00	 call	 ??1_Sentry_base@?$basic_istream@DU?$char_traits@D@std@@@std@@QAE@XZ ; std::basic_istream<char,std::char_traits<char> >::_Sentry_base::~_Sentry_base
  0002b	5f		 pop	 edi
  0002c	5e		 pop	 esi
  0002d	5b		 pop	 ebx
  0002e	81 c4 cc 00 00
	00		 add	 esp, 204		; 000000ccH
  00034	3b ec		 cmp	 ebp, esp
  00036	e8 00 00 00 00	 call	 __RTC_CheckEsp
  0003b	8b e5		 mov	 esp, ebp
  0003d	5d		 pop	 ebp
  0003e	c3		 ret	 0
??1sentry@?$basic_istream@DU?$char_traits@D@std@@@std@@QAE@XZ ENDP ; std::basic_istream<char,std::char_traits<char> >::sentry::~sentry
_TEXT	ENDS
; Function compile flags: /Odtp /RTCsu /ZI
; File C:\Program Files (x86)\Microsoft Visual Studio\2019\Community\VC\Tools\MSVC\14.24.28314\include\istream
;	COMDAT ??Bsentry@?$basic_istream@DU?$char_traits@D@std@@@std@@QBE_NXZ
_TEXT	SEGMENT
_this$ = -8						; size = 4
??Bsentry@?$basic_istream@DU?$char_traits@D@std@@@std@@QBE_NXZ PROC ; std::basic_istream<char,std::char_traits<char> >::sentry::operator bool, COMDAT
; _this$ = ecx

; 105  :         explicit __CLR_OR_THIS_CALL operator bool() const {

  00000	55		 push	 ebp
  00001	8b ec		 mov	 ebp, esp
  00003	81 ec cc 00 00
	00		 sub	 esp, 204		; 000000ccH
  00009	53		 push	 ebx
  0000a	56		 push	 esi
  0000b	57		 push	 edi
  0000c	51		 push	 ecx
  0000d	8d bd 34 ff ff
	ff		 lea	 edi, DWORD PTR [ebp-204]
  00013	b9 33 00 00 00	 mov	 ecx, 51			; 00000033H
  00018	b8 cc cc cc cc	 mov	 eax, -858993460		; ccccccccH
  0001d	f3 ab		 rep stosd
  0001f	59		 pop	 ecx
  00020	89 4d f8	 mov	 DWORD PTR _this$[ebp], ecx
  00023	b9 00 00 00 00	 mov	 ecx, OFFSET __6A9A47EA_istream
  00028	e8 00 00 00 00	 call	 @__CheckForDebuggerJustMyCode@4

; 106  :             return _Ok;

  0002d	8b 45 f8	 mov	 eax, DWORD PTR _this$[ebp]
  00030	8a 40 04	 mov	 al, BYTE PTR [eax+4]

; 107  :         }

  00033	5f		 pop	 edi
  00034	5e		 pop	 esi
  00035	5b		 pop	 ebx
  00036	81 c4 cc 00 00
	00		 add	 esp, 204		; 000000ccH
  0003c	3b ec		 cmp	 ebp, esp
  0003e	e8 00 00 00 00	 call	 __RTC_CheckEsp
  00043	8b e5		 mov	 esp, ebp
  00045	5d		 pop	 ebp
  00046	c3		 ret	 0
??Bsentry@?$basic_istream@DU?$char_traits@D@std@@@std@@QBE_NXZ ENDP ; std::basic_istream<char,std::char_traits<char> >::sentry::operator bool
_TEXT	ENDS
; Function compile flags: /Odtp /RTCsu /ZI
; File C:\Program Files (x86)\Microsoft Visual Studio\2019\Community\VC\Tools\MSVC\14.24.28314\include\istream
;	COMDAT ??0sentry@?$basic_istream@DU?$char_traits@D@std@@@std@@QAE@AAV12@_N@Z
_TEXT	SEGMENT
_this$ = -20						; size = 4
__$EHRec$ = -12						; size = 12
__Istr$ = 8						; size = 4
__Noskip$ = 12						; size = 1
??0sentry@?$basic_istream@DU?$char_traits@D@std@@@std@@QAE@AAV12@_N@Z PROC ; std::basic_istream<char,std::char_traits<char> >::sentry::sentry, COMDAT
; _this$ = ecx

; 103  :             : _Sentry_base(_Istr), _Ok(_Sentry_base::_Myistr._Ipfx(_Noskip)) {}

  00000	55		 push	 ebp
  00001	8b ec		 mov	 ebp, esp
  00003	6a ff		 push	 -1
  00005	68 00 00 00 00	 push	 __ehhandler$??0sentry@?$basic_istream@DU?$char_traits@D@std@@@std@@QAE@AAV12@_N@Z
  0000a	64 a1 00 00 00
	00		 mov	 eax, DWORD PTR fs:0
  00010	50		 push	 eax
  00011	81 ec cc 00 00
	00		 sub	 esp, 204		; 000000ccH
  00017	53		 push	 ebx
  00018	56		 push	 esi
  00019	57		 push	 edi
  0001a	51		 push	 ecx
  0001b	8d bd 28 ff ff
	ff		 lea	 edi, DWORD PTR [ebp-216]
  00021	b9 33 00 00 00	 mov	 ecx, 51			; 00000033H
  00026	b8 cc cc cc cc	 mov	 eax, -858993460		; ccccccccH
  0002b	f3 ab		 rep stosd
  0002d	59		 pop	 ecx
  0002e	a1 00 00 00 00	 mov	 eax, DWORD PTR ___security_cookie
  00033	33 c5		 xor	 eax, ebp
  00035	50		 push	 eax
  00036	8d 45 f4	 lea	 eax, DWORD PTR __$EHRec$[ebp]
  00039	64 a3 00 00 00
	00		 mov	 DWORD PTR fs:0, eax
  0003f	89 4d ec	 mov	 DWORD PTR _this$[ebp], ecx
  00042	b9 00 00 00 00	 mov	 ecx, OFFSET __6A9A47EA_istream
  00047	e8 00 00 00 00	 call	 @__CheckForDebuggerJustMyCode@4
  0004c	8b 45 08	 mov	 eax, DWORD PTR __Istr$[ebp]
  0004f	50		 push	 eax
  00050	8b 4d ec	 mov	 ecx, DWORD PTR _this$[ebp]
  00053	e8 00 00 00 00	 call	 ??0_Sentry_base@?$basic_istream@DU?$char_traits@D@std@@@std@@QAE@AAV12@@Z ; std::basic_istream<char,std::char_traits<char> >::_Sentry_base::_Sentry_base
  00058	c7 45 fc 00 00
	00 00		 mov	 DWORD PTR __$EHRec$[ebp+8], 0
  0005f	8b f4		 mov	 esi, esp
  00061	0f b6 45 0c	 movzx	 eax, BYTE PTR __Noskip$[ebp]
  00065	50		 push	 eax
  00066	8b 4d ec	 mov	 ecx, DWORD PTR _this$[ebp]
  00069	8b 09		 mov	 ecx, DWORD PTR [ecx]
  0006b	ff 15 00 00 00
	00		 call	 DWORD PTR __imp_?_Ipfx@?$basic_istream@DU?$char_traits@D@std@@@std@@QAE_N_N@Z
  00071	3b f4		 cmp	 esi, esp
  00073	e8 00 00 00 00	 call	 __RTC_CheckEsp
  00078	8b 55 ec	 mov	 edx, DWORD PTR _this$[ebp]
  0007b	88 42 04	 mov	 BYTE PTR [edx+4], al
  0007e	c7 45 fc ff ff
	ff ff		 mov	 DWORD PTR __$EHRec$[ebp+8], -1
  00085	8b 45 ec	 mov	 eax, DWORD PTR _this$[ebp]
  00088	8b 4d f4	 mov	 ecx, DWORD PTR __$EHRec$[ebp]
  0008b	64 89 0d 00 00
	00 00		 mov	 DWORD PTR fs:0, ecx
  00092	59		 pop	 ecx
  00093	5f		 pop	 edi
  00094	5e		 pop	 esi
  00095	5b		 pop	 ebx
  00096	81 c4 d8 00 00
	00		 add	 esp, 216		; 000000d8H
  0009c	3b ec		 cmp	 ebp, esp
  0009e	e8 00 00 00 00	 call	 __RTC_CheckEsp
  000a3	8b e5		 mov	 esp, ebp
  000a5	5d		 pop	 ebp
  000a6	c2 08 00	 ret	 8
_TEXT	ENDS
;	COMDAT text$x
text$x	SEGMENT
__unwindfunclet$??0sentry@?$basic_istream@DU?$char_traits@D@std@@@std@@QAE@AAV12@_N@Z$0:
  00000	8b 4d ec	 mov	 ecx, DWORD PTR _this$[ebp]
  00003	e9 00 00 00 00	 jmp	 ??1_Sentry_base@?$basic_istream@DU?$char_traits@D@std@@@std@@QAE@XZ ; std::basic_istream<char,std::char_traits<char> >::_Sentry_base::~_Sentry_base
__ehhandler$??0sentry@?$basic_istream@DU?$char_traits@D@std@@@std@@QAE@AAV12@_N@Z:
  00008	8b 54 24 08	 mov	 edx, DWORD PTR [esp+8]
  0000c	8d 42 0c	 lea	 eax, DWORD PTR [edx+12]
  0000f	8b 8a 24 ff ff
	ff		 mov	 ecx, DWORD PTR [edx-220]
  00015	33 c8		 xor	 ecx, eax
  00017	e8 00 00 00 00	 call	 @__security_check_cookie@4
  0001c	b8 00 00 00 00	 mov	 eax, OFFSET __ehfuncinfo$??0sentry@?$basic_istream@DU?$char_traits@D@std@@@std@@QAE@AAV12@_N@Z
  00021	e9 00 00 00 00	 jmp	 ___CxxFrameHandler3
text$x	ENDS
??0sentry@?$basic_istream@DU?$char_traits@D@std@@@std@@QAE@AAV12@_N@Z ENDP ; std::basic_istream<char,std::char_traits<char> >::sentry::sentry
; Function compile flags: /Odtp /RTCsu /ZI
; File C:\Program Files (x86)\Microsoft Visual Studio\2019\Community\VC\Tools\MSVC\14.24.28314\include\istream
;	COMDAT ??1_Sentry_base@?$basic_istream@DU?$char_traits@D@std@@@std@@QAE@XZ
_TEXT	SEGMENT
tv72 = -232						; size = 4
__Rdbuf$ = -32						; size = 4
_this$ = -20						; size = 4
__$EHRec$ = -12						; size = 12
??1_Sentry_base@?$basic_istream@DU?$char_traits@D@std@@@std@@QAE@XZ PROC ; std::basic_istream<char,std::char_traits<char> >::_Sentry_base::~_Sentry_base, COMDAT
; _this$ = ecx

; 88   :         __CLR_OR_THIS_CALL ~_Sentry_base() noexcept {

  00000	55		 push	 ebp
  00001	8b ec		 mov	 ebp, esp
  00003	6a ff		 push	 -1
  00005	68 00 00 00 00	 push	 __ehhandler$??1_Sentry_base@?$basic_istream@DU?$char_traits@D@std@@@std@@QAE@XZ
  0000a	64 a1 00 00 00
	00		 mov	 eax, DWORD PTR fs:0
  00010	50		 push	 eax
  00011	81 ec dc 00 00
	00		 sub	 esp, 220		; 000000dcH
  00017	53		 push	 ebx
  00018	56		 push	 esi
  00019	57		 push	 edi
  0001a	51		 push	 ecx
  0001b	8d bd 18 ff ff
	ff		 lea	 edi, DWORD PTR [ebp-232]
  00021	b9 37 00 00 00	 mov	 ecx, 55			; 00000037H
  00026	b8 cc cc cc cc	 mov	 eax, -858993460		; ccccccccH
  0002b	f3 ab		 rep stosd
  0002d	59		 pop	 ecx
  0002e	a1 00 00 00 00	 mov	 eax, DWORD PTR ___security_cookie
  00033	33 c5		 xor	 eax, ebp
  00035	50		 push	 eax
  00036	8d 45 f4	 lea	 eax, DWORD PTR __$EHRec$[ebp]
  00039	64 a3 00 00 00
	00		 mov	 DWORD PTR fs:0, eax
  0003f	89 4d ec	 mov	 DWORD PTR _this$[ebp], ecx
  00042	b9 00 00 00 00	 mov	 ecx, OFFSET __6A9A47EA_istream
  00047	e8 00 00 00 00	 call	 @__CheckForDebuggerJustMyCode@4

; 89   :             const auto _Rdbuf = _Myistr.rdbuf();

  0004c	8b 45 ec	 mov	 eax, DWORD PTR _this$[ebp]
  0004f	8b 08		 mov	 ecx, DWORD PTR [eax]
  00051	89 8d 18 ff ff
	ff		 mov	 DWORD PTR tv72[ebp], ecx
  00057	8b 95 18 ff ff
	ff		 mov	 edx, DWORD PTR tv72[ebp]
  0005d	8b 02		 mov	 eax, DWORD PTR [edx]
  0005f	8b 8d 18 ff ff
	ff		 mov	 ecx, DWORD PTR tv72[ebp]
  00065	03 48 04	 add	 ecx, DWORD PTR [eax+4]
  00068	8b f4		 mov	 esi, esp
  0006a	ff 15 00 00 00
	00		 call	 DWORD PTR __imp_?rdbuf@?$basic_ios@DU?$char_traits@D@std@@@std@@QBEPAV?$basic_streambuf@DU?$char_traits@D@std@@@2@XZ
  00070	3b f4		 cmp	 esi, esp
  00072	e8 00 00 00 00	 call	 __RTC_CheckEsp
  00077	89 45 e0	 mov	 DWORD PTR __Rdbuf$[ebp], eax

; 90   :             if (_Rdbuf) {

  0007a	83 7d e0 00	 cmp	 DWORD PTR __Rdbuf$[ebp], 0
  0007e	74 16		 je	 SHORT $LN3@Sentry_bas

; 91   :                 _Rdbuf->_Unlock();

  00080	8b 45 e0	 mov	 eax, DWORD PTR __Rdbuf$[ebp]
  00083	8b 10		 mov	 edx, DWORD PTR [eax]
  00085	8b f4		 mov	 esi, esp
  00087	8b 4d e0	 mov	 ecx, DWORD PTR __Rdbuf$[ebp]
  0008a	8b 42 08	 mov	 eax, DWORD PTR [edx+8]
  0008d	ff d0		 call	 eax
  0008f	3b f4		 cmp	 esi, esp
  00091	e8 00 00 00 00	 call	 __RTC_CheckEsp
$LN3@Sentry_bas:

; 92   :             }
; 93   :         }

  00096	8b 4d f4	 mov	 ecx, DWORD PTR __$EHRec$[ebp]
  00099	64 89 0d 00 00
	00 00		 mov	 DWORD PTR fs:0, ecx
  000a0	59		 pop	 ecx
  000a1	5f		 pop	 edi
  000a2	5e		 pop	 esi
  000a3	5b		 pop	 ebx
  000a4	81 c4 e8 00 00
	00		 add	 esp, 232		; 000000e8H
  000aa	3b ec		 cmp	 ebp, esp
  000ac	e8 00 00 00 00	 call	 __RTC_CheckEsp
  000b1	8b e5		 mov	 esp, ebp
  000b3	5d		 pop	 ebp
  000b4	c3		 ret	 0
_TEXT	ENDS
;	COMDAT text$x
text$x	SEGMENT
__ehhandler$??1_Sentry_base@?$basic_istream@DU?$char_traits@D@std@@@std@@QAE@XZ:
  00000	8b 54 24 08	 mov	 edx, DWORD PTR [esp+8]
  00004	8d 42 0c	 lea	 eax, DWORD PTR [edx+12]
  00007	8b 8a 14 ff ff
	ff		 mov	 ecx, DWORD PTR [edx-236]
  0000d	33 c8		 xor	 ecx, eax
  0000f	e8 00 00 00 00	 call	 @__security_check_cookie@4
  00014	b8 00 00 00 00	 mov	 eax, OFFSET __ehfuncinfo$??1_Sentry_base@?$basic_istream@DU?$char_traits@D@std@@@std@@QAE@XZ
  00019	e9 00 00 00 00	 jmp	 ___CxxFrameHandler3
text$x	ENDS
??1_Sentry_base@?$basic_istream@DU?$char_traits@D@std@@@std@@QAE@XZ ENDP ; std::basic_istream<char,std::char_traits<char> >::_Sentry_base::~_Sentry_base
; Function compile flags: /Odtp /RTCsu /ZI
; File C:\Program Files (x86)\Microsoft Visual Studio\2019\Community\VC\Tools\MSVC\14.24.28314\include\istream
;	COMDAT ??0_Sentry_base@?$basic_istream@DU?$char_traits@D@std@@@std@@QAE@AAV12@@Z
_TEXT	SEGMENT
tv73 = -220						; size = 4
__Rdbuf$ = -20						; size = 4
_this$ = -8						; size = 4
__Istr$ = 8						; size = 4
??0_Sentry_base@?$basic_istream@DU?$char_traits@D@std@@@std@@QAE@AAV12@@Z PROC ; std::basic_istream<char,std::char_traits<char> >::_Sentry_base::_Sentry_base, COMDAT
; _this$ = ecx

; 81   :         __CLR_OR_THIS_CALL _Sentry_base(basic_istream& _Istr) : _Myistr(_Istr) {

  00000	55		 push	 ebp
  00001	8b ec		 mov	 ebp, esp
  00003	81 ec dc 00 00
	00		 sub	 esp, 220		; 000000dcH
  00009	53		 push	 ebx
  0000a	56		 push	 esi
  0000b	57		 push	 edi
  0000c	51		 push	 ecx
  0000d	8d bd 24 ff ff
	ff		 lea	 edi, DWORD PTR [ebp-220]
  00013	b9 37 00 00 00	 mov	 ecx, 55			; 00000037H
  00018	b8 cc cc cc cc	 mov	 eax, -858993460		; ccccccccH
  0001d	f3 ab		 rep stosd
  0001f	59		 pop	 ecx
  00020	89 4d f8	 mov	 DWORD PTR _this$[ebp], ecx
  00023	b9 00 00 00 00	 mov	 ecx, OFFSET __6A9A47EA_istream
  00028	e8 00 00 00 00	 call	 @__CheckForDebuggerJustMyCode@4
  0002d	8b 45 f8	 mov	 eax, DWORD PTR _this$[ebp]
  00030	8b 4d 08	 mov	 ecx, DWORD PTR __Istr$[ebp]
  00033	89 08		 mov	 DWORD PTR [eax], ecx

; 82   :             const auto _Rdbuf = _Myistr.rdbuf();

  00035	8b 45 f8	 mov	 eax, DWORD PTR _this$[ebp]
  00038	8b 08		 mov	 ecx, DWORD PTR [eax]
  0003a	89 8d 24 ff ff
	ff		 mov	 DWORD PTR tv73[ebp], ecx
  00040	8b 95 24 ff ff
	ff		 mov	 edx, DWORD PTR tv73[ebp]
  00046	8b 02		 mov	 eax, DWORD PTR [edx]
  00048	8b 8d 24 ff ff
	ff		 mov	 ecx, DWORD PTR tv73[ebp]
  0004e	03 48 04	 add	 ecx, DWORD PTR [eax+4]
  00051	8b f4		 mov	 esi, esp
  00053	ff 15 00 00 00
	00		 call	 DWORD PTR __imp_?rdbuf@?$basic_ios@DU?$char_traits@D@std@@@std@@QBEPAV?$basic_streambuf@DU?$char_traits@D@std@@@2@XZ
  00059	3b f4		 cmp	 esi, esp
  0005b	e8 00 00 00 00	 call	 __RTC_CheckEsp
  00060	89 45 ec	 mov	 DWORD PTR __Rdbuf$[ebp], eax

; 83   :             if (_Rdbuf) {

  00063	83 7d ec 00	 cmp	 DWORD PTR __Rdbuf$[ebp], 0
  00067	74 16		 je	 SHORT $LN1@Sentry_bas

; 84   :                 _Rdbuf->_Lock();

  00069	8b 45 ec	 mov	 eax, DWORD PTR __Rdbuf$[ebp]
  0006c	8b 10		 mov	 edx, DWORD PTR [eax]
  0006e	8b f4		 mov	 esi, esp
  00070	8b 4d ec	 mov	 ecx, DWORD PTR __Rdbuf$[ebp]
  00073	8b 42 04	 mov	 eax, DWORD PTR [edx+4]
  00076	ff d0		 call	 eax
  00078	3b f4		 cmp	 esi, esp
  0007a	e8 00 00 00 00	 call	 __RTC_CheckEsp
$LN1@Sentry_bas:

; 85   :             }
; 86   :         }

  0007f	8b 45 f8	 mov	 eax, DWORD PTR _this$[ebp]
  00082	5f		 pop	 edi
  00083	5e		 pop	 esi
  00084	5b		 pop	 ebx
  00085	81 c4 dc 00 00
	00		 add	 esp, 220		; 000000dcH
  0008b	3b ec		 cmp	 ebp, esp
  0008d	e8 00 00 00 00	 call	 __RTC_CheckEsp
  00092	8b e5		 mov	 esp, ebp
  00094	5d		 pop	 ebp
  00095	c2 04 00	 ret	 4
??0_Sentry_base@?$basic_istream@DU?$char_traits@D@std@@@std@@QAE@AAV12@@Z ENDP ; std::basic_istream<char,std::char_traits<char> >::_Sentry_base::_Sentry_base
_TEXT	ENDS
; Function compile flags: /Odtp /RTCsu /ZI
; File C:\Program Files (x86)\Microsoft Visual Studio\2019\Community\VC\Tools\MSVC\14.24.28314\include\type_traits
;	COMDAT ??$move@AAV?$basic_istream@DU?$char_traits@D@std@@@std@@@std@@YA$$QAV?$basic_istream@DU?$char_traits@D@std@@@0@AAV10@@Z
_TEXT	SEGMENT
__$EHRec$ = -12						; size = 12
__Arg$ = 8						; size = 4
??$move@AAV?$basic_istream@DU?$char_traits@D@std@@@std@@@std@@YA$$QAV?$basic_istream@DU?$char_traits@D@std@@@0@AAV10@@Z PROC ; std::move<std::basic_istream<char,std::char_traits<char> > &>, COMDAT

; 1438 : _NODISCARD constexpr remove_reference_t<_Ty>&& move(_Ty&& _Arg) noexcept { // forward _Arg as movable

  00000	55		 push	 ebp
  00001	8b ec		 mov	 ebp, esp
  00003	6a ff		 push	 -1
  00005	68 00 00 00 00	 push	 __ehhandler$??$move@AAV?$basic_istream@DU?$char_traits@D@std@@@std@@@std@@YA$$QAV?$basic_istream@DU?$char_traits@D@std@@@0@AAV10@@Z
  0000a	64 a1 00 00 00
	00		 mov	 eax, DWORD PTR fs:0
  00010	50		 push	 eax
  00011	81 ec c0 00 00
	00		 sub	 esp, 192		; 000000c0H
  00017	53		 push	 ebx
  00018	56		 push	 esi
  00019	57		 push	 edi
  0001a	8d bd 34 ff ff
	ff		 lea	 edi, DWORD PTR [ebp-204]
  00020	b9 30 00 00 00	 mov	 ecx, 48			; 00000030H
  00025	b8 cc cc cc cc	 mov	 eax, -858993460		; ccccccccH
  0002a	f3 ab		 rep stosd
  0002c	a1 00 00 00 00	 mov	 eax, DWORD PTR ___security_cookie
  00031	33 c5		 xor	 eax, ebp
  00033	50		 push	 eax
  00034	8d 45 f4	 lea	 eax, DWORD PTR __$EHRec$[ebp]
  00037	64 a3 00 00 00
	00		 mov	 DWORD PTR fs:0, eax
  0003d	b9 00 00 00 00	 mov	 ecx, OFFSET __4877352E_type_traits
  00042	e8 00 00 00 00	 call	 @__CheckForDebuggerJustMyCode@4

; 1439 :     return static_cast<remove_reference_t<_Ty>&&>(_Arg);

  00047	8b 45 08	 mov	 eax, DWORD PTR __Arg$[ebp]

; 1440 : }

  0004a	8b 4d f4	 mov	 ecx, DWORD PTR __$EHRec$[ebp]
  0004d	64 89 0d 00 00
	00 00		 mov	 DWORD PTR fs:0, ecx
  00054	59		 pop	 ecx
  00055	5f		 pop	 edi
  00056	5e		 pop	 esi
  00057	5b		 pop	 ebx
  00058	81 c4 cc 00 00
	00		 add	 esp, 204		; 000000ccH
  0005e	3b ec		 cmp	 ebp, esp
  00060	e8 00 00 00 00	 call	 __RTC_CheckEsp
  00065	8b e5		 mov	 esp, ebp
  00067	5d		 pop	 ebp
  00068	c3		 ret	 0
_TEXT	ENDS
;	COMDAT text$x
text$x	SEGMENT
__ehhandler$??$move@AAV?$basic_istream@DU?$char_traits@D@std@@@std@@@std@@YA$$QAV?$basic_istream@DU?$char_traits@D@std@@@0@AAV10@@Z:
  00000	8b 54 24 08	 mov	 edx, DWORD PTR [esp+8]
  00004	8d 42 0c	 lea	 eax, DWORD PTR [edx+12]
  00007	8b 8a 30 ff ff
	ff		 mov	 ecx, DWORD PTR [edx-208]
  0000d	33 c8		 xor	 ecx, eax
  0000f	e8 00 00 00 00	 call	 @__security_check_cookie@4
  00014	b8 00 00 00 00	 mov	 eax, OFFSET __ehfuncinfo$??$move@AAV?$basic_istream@DU?$char_traits@D@std@@@std@@@std@@YA$$QAV?$basic_istream@DU?$char_traits@D@std@@@0@AAV10@@Z
  00019	e9 00 00 00 00	 jmp	 ___CxxFrameHandler3
text$x	ENDS
??$move@AAV?$basic_istream@DU?$char_traits@D@std@@@std@@@std@@YA$$QAV?$basic_istream@DU?$char_traits@D@std@@@0@AAV10@@Z ENDP ; std::move<std::basic_istream<char,std::char_traits<char> > &>
; Function compile flags: /Odtp /RTCsu /ZI
; File C:\Program Files (x86)\Microsoft Visual Studio\2019\Community\VC\Tools\MSVC\14.24.28314\include\memory
;	COMDAT ??$?0U?$default_delete@V_Facet_base@std@@@std@@$0A@@?$unique_ptr@V_Facet_base@std@@U?$default_delete@V_Facet_base@std@@@2@@std@@QAE@PAV_Facet_base@1@@Z
_TEXT	SEGMENT
$T2 = -221						; size = 1
_this$ = -20						; size = 4
__$EHRec$ = -12						; size = 12
__Ptr$ = 8						; size = 4
??$?0U?$default_delete@V_Facet_base@std@@@std@@$0A@@?$unique_ptr@V_Facet_base@std@@U?$default_delete@V_Facet_base@std@@@2@@std@@QAE@PAV_Facet_base@1@@Z PROC ; std::unique_ptr<std::_Facet_base,std::default_delete<std::_Facet_base> >::unique_ptr<std::_Facet_base,std::default_delete<std::_Facet_base> ><std::default_delete<std::_Facet_base>,0>, COMDAT
; _this$ = ecx

; 1818 :     explicit unique_ptr(pointer _Ptr) noexcept : _Mypair(_Zero_then_variadic_args_t(), _Ptr) {}

  00000	55		 push	 ebp
  00001	8b ec		 mov	 ebp, esp
  00003	6a ff		 push	 -1
  00005	68 00 00 00 00	 push	 __ehhandler$??$?0U?$default_delete@V_Facet_base@std@@@std@@$0A@@?$unique_ptr@V_Facet_base@std@@U?$default_delete@V_Facet_base@std@@@2@@std@@QAE@PAV_Facet_base@1@@Z
  0000a	64 a1 00 00 00
	00		 mov	 eax, DWORD PTR fs:0
  00010	50		 push	 eax
  00011	81 ec d8 00 00
	00		 sub	 esp, 216		; 000000d8H
  00017	53		 push	 ebx
  00018	56		 push	 esi
  00019	57		 push	 edi
  0001a	51		 push	 ecx
  0001b	8d bd 1c ff ff
	ff		 lea	 edi, DWORD PTR [ebp-228]
  00021	b9 36 00 00 00	 mov	 ecx, 54			; 00000036H
  00026	b8 cc cc cc cc	 mov	 eax, -858993460		; ccccccccH
  0002b	f3 ab		 rep stosd
  0002d	59		 pop	 ecx
  0002e	a1 00 00 00 00	 mov	 eax, DWORD PTR ___security_cookie
  00033	33 c5		 xor	 eax, ebp
  00035	50		 push	 eax
  00036	8d 45 f4	 lea	 eax, DWORD PTR __$EHRec$[ebp]
  00039	64 a3 00 00 00
	00		 mov	 DWORD PTR fs:0, eax
  0003f	89 4d ec	 mov	 DWORD PTR _this$[ebp], ecx
  00042	b9 00 00 00 00	 mov	 ecx, OFFSET __71560CBE_memory
  00047	e8 00 00 00 00	 call	 @__CheckForDebuggerJustMyCode@4
  0004c	8d 45 08	 lea	 eax, DWORD PTR __Ptr$[ebp]
  0004f	50		 push	 eax
  00050	0f b6 8d 23 ff
	ff ff		 movzx	 ecx, BYTE PTR $T2[ebp]
  00057	51		 push	 ecx
  00058	8b 4d ec	 mov	 ecx, DWORD PTR _this$[ebp]
  0005b	e8 00 00 00 00	 call	 ??$?0AAPAV_Facet_base@std@@@?$_Compressed_pair@U?$default_delete@V_Facet_base@std@@@std@@PAV_Facet_base@2@$00@std@@QAE@U_Zero_then_variadic_args_t@1@AAPAV_Facet_base@1@@Z ; std::_Compressed_pair<std::default_delete<std::_Facet_base>,std::_Facet_base *,1>::_Compressed_pair<std::default_delete<std::_Facet_base>,std::_Facet_base *,1><std::_Facet_base * &>
  00060	8b 45 ec	 mov	 eax, DWORD PTR _this$[ebp]
  00063	8b 4d f4	 mov	 ecx, DWORD PTR __$EHRec$[ebp]
  00066	64 89 0d 00 00
	00 00		 mov	 DWORD PTR fs:0, ecx
  0006d	59		 pop	 ecx
  0006e	5f		 pop	 edi
  0006f	5e		 pop	 esi
  00070	5b		 pop	 ebx
  00071	81 c4 e4 00 00
	00		 add	 esp, 228		; 000000e4H
  00077	3b ec		 cmp	 ebp, esp
  00079	e8 00 00 00 00	 call	 __RTC_CheckEsp
  0007e	8b e5		 mov	 esp, ebp
  00080	5d		 pop	 ebp
  00081	c2 04 00	 ret	 4
_TEXT	ENDS
;	COMDAT text$x
text$x	SEGMENT
__ehhandler$??$?0U?$default_delete@V_Facet_base@std@@@std@@$0A@@?$unique_ptr@V_Facet_base@std@@U?$default_delete@V_Facet_base@std@@@2@@std@@QAE@PAV_Facet_base@1@@Z:
  00000	8b 54 24 08	 mov	 edx, DWORD PTR [esp+8]
  00004	8d 42 0c	 lea	 eax, DWORD PTR [edx+12]
  00007	8b 8a 18 ff ff
	ff		 mov	 ecx, DWORD PTR [edx-232]
  0000d	33 c8		 xor	 ecx, eax
  0000f	e8 00 00 00 00	 call	 @__security_check_cookie@4
  00014	b8 00 00 00 00	 mov	 eax, OFFSET __ehfuncinfo$??$?0U?$default_delete@V_Facet_base@std@@@std@@$0A@@?$unique_ptr@V_Facet_base@std@@U?$default_delete@V_Facet_base@std@@@2@@std@@QAE@PAV_Facet_base@1@@Z
  00019	e9 00 00 00 00	 jmp	 ___CxxFrameHandler3
text$x	ENDS
??$?0U?$default_delete@V_Facet_base@std@@@std@@$0A@@?$unique_ptr@V_Facet_base@std@@U?$default_delete@V_Facet_base@std@@@2@@std@@QAE@PAV_Facet_base@1@@Z ENDP ; std::unique_ptr<std::_Facet_base,std::default_delete<std::_Facet_base> >::unique_ptr<std::_Facet_base,std::default_delete<std::_Facet_base> ><std::default_delete<std::_Facet_base>,0>
; Function compile flags: /Odtp /RTCsu /ZI
;	COMDAT ?__autoclassinit2@?$unique_ptr@V_Facet_base@std@@U?$default_delete@V_Facet_base@std@@@2@@std@@QAEXI@Z
_TEXT	SEGMENT
_this$ = -8						; size = 4
_classSize$ = 8						; size = 4
?__autoclassinit2@?$unique_ptr@V_Facet_base@std@@U?$default_delete@V_Facet_base@std@@@2@@std@@QAEXI@Z PROC ; std::unique_ptr<std::_Facet_base,std::default_delete<std::_Facet_base> >::__autoclassinit2, COMDAT
; _this$ = ecx
  00000	55		 push	 ebp
  00001	8b ec		 mov	 ebp, esp
  00003	81 ec cc 00 00
	00		 sub	 esp, 204		; 000000ccH
  00009	53		 push	 ebx
  0000a	56		 push	 esi
  0000b	57		 push	 edi
  0000c	51		 push	 ecx
  0000d	8d bd 34 ff ff
	ff		 lea	 edi, DWORD PTR [ebp-204]
  00013	b9 33 00 00 00	 mov	 ecx, 51			; 00000033H
  00018	b8 cc cc cc cc	 mov	 eax, -858993460		; ccccccccH
  0001d	f3 ab		 rep stosd
  0001f	59		 pop	 ecx
  00020	89 4d f8	 mov	 DWORD PTR _this$[ebp], ecx
  00023	8b 45 08	 mov	 eax, DWORD PTR _classSize$[ebp]
  00026	50		 push	 eax
  00027	6a 00		 push	 0
  00029	8b 4d f8	 mov	 ecx, DWORD PTR _this$[ebp]
  0002c	51		 push	 ecx
  0002d	e8 00 00 00 00	 call	 _memset
  00032	83 c4 0c	 add	 esp, 12			; 0000000cH
  00035	5f		 pop	 edi
  00036	5e		 pop	 esi
  00037	5b		 pop	 ebx
  00038	81 c4 cc 00 00
	00		 add	 esp, 204		; 000000ccH
  0003e	3b ec		 cmp	 ebp, esp
  00040	e8 00 00 00 00	 call	 __RTC_CheckEsp
  00045	8b e5		 mov	 esp, ebp
  00047	5d		 pop	 ebp
  00048	c2 04 00	 ret	 4
?__autoclassinit2@?$unique_ptr@V_Facet_base@std@@U?$default_delete@V_Facet_base@std@@@2@@std@@QAEXI@Z ENDP ; std::unique_ptr<std::_Facet_base,std::default_delete<std::_Facet_base> >::__autoclassinit2
_TEXT	ENDS
; Function compile flags: /Odtp /RTCsu /ZI
; File C:\Program Files (x86)\Microsoft Visual Studio\2019\Community\VC\Tools\MSVC\14.24.28314\include\xmemory
;	COMDAT ?_Get_first@?$_Compressed_pair@U?$default_delete@V_Facet_base@std@@@std@@PAV_Facet_base@2@$00@std@@QAEAAU?$default_delete@V_Facet_base@std@@@2@XZ
_TEXT	SEGMENT
_this$ = -20						; size = 4
__$EHRec$ = -12						; size = 12
?_Get_first@?$_Compressed_pair@U?$default_delete@V_Facet_base@std@@@std@@PAV_Facet_base@2@$00@std@@QAEAAU?$default_delete@V_Facet_base@std@@@2@XZ PROC ; std::_Compressed_pair<std::default_delete<std::_Facet_base>,std::_Facet_base *,1>::_Get_first, COMDAT
; _this$ = ecx

; 1335 :     _Ty1& _Get_first() noexcept {

  00000	55		 push	 ebp
  00001	8b ec		 mov	 ebp, esp
  00003	6a ff		 push	 -1
  00005	68 00 00 00 00	 push	 __ehhandler$?_Get_first@?$_Compressed_pair@U?$default_delete@V_Facet_base@std@@@std@@PAV_Facet_base@2@$00@std@@QAEAAU?$default_delete@V_Facet_base@std@@@2@XZ
  0000a	64 a1 00 00 00
	00		 mov	 eax, DWORD PTR fs:0
  00010	50		 push	 eax
  00011	81 ec cc 00 00
	00		 sub	 esp, 204		; 000000ccH
  00017	53		 push	 ebx
  00018	56		 push	 esi
  00019	57		 push	 edi
  0001a	51		 push	 ecx
  0001b	8d bd 28 ff ff
	ff		 lea	 edi, DWORD PTR [ebp-216]
  00021	b9 33 00 00 00	 mov	 ecx, 51			; 00000033H
  00026	b8 cc cc cc cc	 mov	 eax, -858993460		; ccccccccH
  0002b	f3 ab		 rep stosd
  0002d	59		 pop	 ecx
  0002e	a1 00 00 00 00	 mov	 eax, DWORD PTR ___security_cookie
  00033	33 c5		 xor	 eax, ebp
  00035	50		 push	 eax
  00036	8d 45 f4	 lea	 eax, DWORD PTR __$EHRec$[ebp]
  00039	64 a3 00 00 00
	00		 mov	 DWORD PTR fs:0, eax
  0003f	89 4d ec	 mov	 DWORD PTR _this$[ebp], ecx
  00042	b9 00 00 00 00	 mov	 ecx, OFFSET __B1B75AB9_xmemory
  00047	e8 00 00 00 00	 call	 @__CheckForDebuggerJustMyCode@4

; 1336 :         return *this;

  0004c	8b 45 ec	 mov	 eax, DWORD PTR _this$[ebp]

; 1337 :     }

  0004f	8b 4d f4	 mov	 ecx, DWORD PTR __$EHRec$[ebp]
  00052	64 89 0d 00 00
	00 00		 mov	 DWORD PTR fs:0, ecx
  00059	59		 pop	 ecx
  0005a	5f		 pop	 edi
  0005b	5e		 pop	 esi
  0005c	5b		 pop	 ebx
  0005d	81 c4 d8 00 00
	00		 add	 esp, 216		; 000000d8H
  00063	3b ec		 cmp	 ebp, esp
  00065	e8 00 00 00 00	 call	 __RTC_CheckEsp
  0006a	8b e5		 mov	 esp, ebp
  0006c	5d		 pop	 ebp
  0006d	c3		 ret	 0
_TEXT	ENDS
;	COMDAT text$x
text$x	SEGMENT
__ehhandler$?_Get_first@?$_Compressed_pair@U?$default_delete@V_Facet_base@std@@@std@@PAV_Facet_base@2@$00@std@@QAEAAU?$default_delete@V_Facet_base@std@@@2@XZ:
  00000	8b 54 24 08	 mov	 edx, DWORD PTR [esp+8]
  00004	8d 42 0c	 lea	 eax, DWORD PTR [edx+12]
  00007	8b 8a 24 ff ff
	ff		 mov	 ecx, DWORD PTR [edx-220]
  0000d	33 c8		 xor	 ecx, eax
  0000f	e8 00 00 00 00	 call	 @__security_check_cookie@4
  00014	b8 00 00 00 00	 mov	 eax, OFFSET __ehfuncinfo$?_Get_first@?$_Compressed_pair@U?$default_delete@V_Facet_base@std@@@std@@PAV_Facet_base@2@$00@std@@QAEAAU?$default_delete@V_Facet_base@std@@@2@XZ
  00019	e9 00 00 00 00	 jmp	 ___CxxFrameHandler3
text$x	ENDS
?_Get_first@?$_Compressed_pair@U?$default_delete@V_Facet_base@std@@@std@@PAV_Facet_base@2@$00@std@@QAEAAU?$default_delete@V_Facet_base@std@@@2@XZ ENDP ; std::_Compressed_pair<std::default_delete<std::_Facet_base>,std::_Facet_base *,1>::_Get_first
; Function compile flags: /Odtp /RTCsu /ZI
; File C:\Program Files (x86)\Microsoft Visual Studio\2019\Community\VC\Tools\MSVC\14.24.28314\include\memory
;	COMDAT ?release@?$unique_ptr@V_Facet_base@std@@U?$default_delete@V_Facet_base@std@@@2@@std@@QAEPAV_Facet_base@2@XZ
_TEXT	SEGMENT
$T2 = -224						; size = 4
_this$ = -20						; size = 4
__$EHRec$ = -12						; size = 12
?release@?$unique_ptr@V_Facet_base@std@@U?$default_delete@V_Facet_base@std@@@2@@std@@QAEPAV_Facet_base@2@XZ PROC ; std::unique_ptr<std::_Facet_base,std::default_delete<std::_Facet_base> >::release, COMDAT
; _this$ = ecx

; 1901 :     pointer release() noexcept {

  00000	55		 push	 ebp
  00001	8b ec		 mov	 ebp, esp
  00003	6a ff		 push	 -1
  00005	68 00 00 00 00	 push	 __ehhandler$?release@?$unique_ptr@V_Facet_base@std@@U?$default_delete@V_Facet_base@std@@@2@@std@@QAEPAV_Facet_base@2@XZ
  0000a	64 a1 00 00 00
	00		 mov	 eax, DWORD PTR fs:0
  00010	50		 push	 eax
  00011	81 ec d8 00 00
	00		 sub	 esp, 216		; 000000d8H
  00017	53		 push	 ebx
  00018	56		 push	 esi
  00019	57		 push	 edi
  0001a	51		 push	 ecx
  0001b	8d bd 1c ff ff
	ff		 lea	 edi, DWORD PTR [ebp-228]
  00021	b9 36 00 00 00	 mov	 ecx, 54			; 00000036H
  00026	b8 cc cc cc cc	 mov	 eax, -858993460		; ccccccccH
  0002b	f3 ab		 rep stosd
  0002d	59		 pop	 ecx
  0002e	a1 00 00 00 00	 mov	 eax, DWORD PTR ___security_cookie
  00033	33 c5		 xor	 eax, ebp
  00035	50		 push	 eax
  00036	8d 45 f4	 lea	 eax, DWORD PTR __$EHRec$[ebp]
  00039	64 a3 00 00 00
	00		 mov	 DWORD PTR fs:0, eax
  0003f	89 4d ec	 mov	 DWORD PTR _this$[ebp], ecx
  00042	b9 00 00 00 00	 mov	 ecx, OFFSET __71560CBE_memory
  00047	e8 00 00 00 00	 call	 @__CheckForDebuggerJustMyCode@4

; 1902 :         return _STD exchange(_Mypair._Myval2, pointer());

  0004c	c7 85 20 ff ff
	ff 00 00 00 00	 mov	 DWORD PTR $T2[ebp], 0
  00056	8d 85 20 ff ff
	ff		 lea	 eax, DWORD PTR $T2[ebp]
  0005c	50		 push	 eax
  0005d	8b 4d ec	 mov	 ecx, DWORD PTR _this$[ebp]
  00060	51		 push	 ecx
  00061	e8 00 00 00 00	 call	 ??$exchange@PAV_Facet_base@std@@PAV12@@std@@YAPAV_Facet_base@0@AAPAV10@$$QAPAV10@@Z ; std::exchange<std::_Facet_base *,std::_Facet_base *>
  00066	83 c4 08	 add	 esp, 8

; 1903 :     }

  00069	8b 4d f4	 mov	 ecx, DWORD PTR __$EHRec$[ebp]
  0006c	64 89 0d 00 00
	00 00		 mov	 DWORD PTR fs:0, ecx
  00073	59		 pop	 ecx
  00074	5f		 pop	 edi
  00075	5e		 pop	 esi
  00076	5b		 pop	 ebx
  00077	81 c4 e4 00 00
	00		 add	 esp, 228		; 000000e4H
  0007d	3b ec		 cmp	 ebp, esp
  0007f	e8 00 00 00 00	 call	 __RTC_CheckEsp
  00084	8b e5		 mov	 esp, ebp
  00086	5d		 pop	 ebp
  00087	c3		 ret	 0
_TEXT	ENDS
;	COMDAT text$x
text$x	SEGMENT
__ehhandler$?release@?$unique_ptr@V_Facet_base@std@@U?$default_delete@V_Facet_base@std@@@2@@std@@QAEPAV_Facet_base@2@XZ:
  00000	8b 54 24 08	 mov	 edx, DWORD PTR [esp+8]
  00004	8d 42 0c	 lea	 eax, DWORD PTR [edx+12]
  00007	8b 8a 18 ff ff
	ff		 mov	 ecx, DWORD PTR [edx-232]
  0000d	33 c8		 xor	 ecx, eax
  0000f	e8 00 00 00 00	 call	 @__security_check_cookie@4
  00014	b8 00 00 00 00	 mov	 eax, OFFSET __ehfuncinfo$?release@?$unique_ptr@V_Facet_base@std@@U?$default_delete@V_Facet_base@std@@@2@@std@@QAEPAV_Facet_base@2@XZ
  00019	e9 00 00 00 00	 jmp	 ___CxxFrameHandler3
text$x	ENDS
?release@?$unique_ptr@V_Facet_base@std@@U?$default_delete@V_Facet_base@std@@@2@@std@@QAEPAV_Facet_base@2@XZ ENDP ; std::unique_ptr<std::_Facet_base,std::default_delete<std::_Facet_base> >::release
; Function compile flags: /Odtp /RTCsu /ZI
; File C:\Program Files (x86)\Microsoft Visual Studio\2019\Community\VC\Tools\MSVC\14.24.28314\include\memory
;	COMDAT ??1?$unique_ptr@V_Facet_base@std@@U?$default_delete@V_Facet_base@std@@@2@@std@@QAE@XZ
_TEXT	SEGMENT
_this$ = -20						; size = 4
__$EHRec$ = -12						; size = 12
??1?$unique_ptr@V_Facet_base@std@@U?$default_delete@V_Facet_base@std@@@2@@std@@QAE@XZ PROC ; std::unique_ptr<std::_Facet_base,std::default_delete<std::_Facet_base> >::~unique_ptr<std::_Facet_base,std::default_delete<std::_Facet_base> >, COMDAT
; _this$ = ecx

; 1871 :     ~unique_ptr() noexcept {

  00000	55		 push	 ebp
  00001	8b ec		 mov	 ebp, esp
  00003	6a ff		 push	 -1
  00005	68 00 00 00 00	 push	 __ehhandler$??1?$unique_ptr@V_Facet_base@std@@U?$default_delete@V_Facet_base@std@@@2@@std@@QAE@XZ
  0000a	64 a1 00 00 00
	00		 mov	 eax, DWORD PTR fs:0
  00010	50		 push	 eax
  00011	81 ec cc 00 00
	00		 sub	 esp, 204		; 000000ccH
  00017	53		 push	 ebx
  00018	56		 push	 esi
  00019	57		 push	 edi
  0001a	51		 push	 ecx
  0001b	8d bd 28 ff ff
	ff		 lea	 edi, DWORD PTR [ebp-216]
  00021	b9 33 00 00 00	 mov	 ecx, 51			; 00000033H
  00026	b8 cc cc cc cc	 mov	 eax, -858993460		; ccccccccH
  0002b	f3 ab		 rep stosd
  0002d	59		 pop	 ecx
  0002e	a1 00 00 00 00	 mov	 eax, DWORD PTR ___security_cookie
  00033	33 c5		 xor	 eax, ebp
  00035	50		 push	 eax
  00036	8d 45 f4	 lea	 eax, DWORD PTR __$EHRec$[ebp]
  00039	64 a3 00 00 00
	00		 mov	 DWORD PTR fs:0, eax
  0003f	89 4d ec	 mov	 DWORD PTR _this$[ebp], ecx
  00042	b9 00 00 00 00	 mov	 ecx, OFFSET __71560CBE_memory
  00047	e8 00 00 00 00	 call	 @__CheckForDebuggerJustMyCode@4

; 1872 :         if (_Mypair._Myval2) {

  0004c	8b 45 ec	 mov	 eax, DWORD PTR _this$[ebp]
  0004f	83 38 00	 cmp	 DWORD PTR [eax], 0
  00052	74 15		 je	 SHORT $LN3@unique_ptr

; 1873 :             _Mypair._Get_first()(_Mypair._Myval2);

  00054	8b 45 ec	 mov	 eax, DWORD PTR _this$[ebp]
  00057	8b 08		 mov	 ecx, DWORD PTR [eax]
  00059	51		 push	 ecx
  0005a	8b 4d ec	 mov	 ecx, DWORD PTR _this$[ebp]
  0005d	e8 00 00 00 00	 call	 ?_Get_first@?$_Compressed_pair@U?$default_delete@V_Facet_base@std@@@std@@PAV_Facet_base@2@$00@std@@QAEAAU?$default_delete@V_Facet_base@std@@@2@XZ ; std::_Compressed_pair<std::default_delete<std::_Facet_base>,std::_Facet_base *,1>::_Get_first
  00062	8b c8		 mov	 ecx, eax
  00064	e8 00 00 00 00	 call	 ??R?$default_delete@V_Facet_base@std@@@std@@QBEXPAV_Facet_base@1@@Z ; std::default_delete<std::_Facet_base>::operator()
$LN3@unique_ptr:

; 1874 :         }
; 1875 :     }

  00069	8b 4d f4	 mov	 ecx, DWORD PTR __$EHRec$[ebp]
  0006c	64 89 0d 00 00
	00 00		 mov	 DWORD PTR fs:0, ecx
  00073	59		 pop	 ecx
  00074	5f		 pop	 edi
  00075	5e		 pop	 esi
  00076	5b		 pop	 ebx
  00077	81 c4 d8 00 00
	00		 add	 esp, 216		; 000000d8H
  0007d	3b ec		 cmp	 ebp, esp
  0007f	e8 00 00 00 00	 call	 __RTC_CheckEsp
  00084	8b e5		 mov	 esp, ebp
  00086	5d		 pop	 ebp
  00087	c3		 ret	 0
_TEXT	ENDS
;	COMDAT text$x
text$x	SEGMENT
__ehhandler$??1?$unique_ptr@V_Facet_base@std@@U?$default_delete@V_Facet_base@std@@@2@@std@@QAE@XZ:
  00000	8b 54 24 08	 mov	 edx, DWORD PTR [esp+8]
  00004	8d 42 0c	 lea	 eax, DWORD PTR [edx+12]
  00007	8b 8a 24 ff ff
	ff		 mov	 ecx, DWORD PTR [edx-220]
  0000d	33 c8		 xor	 ecx, eax
  0000f	e8 00 00 00 00	 call	 @__security_check_cookie@4
  00014	b8 00 00 00 00	 mov	 eax, OFFSET __ehfuncinfo$??1?$unique_ptr@V_Facet_base@std@@U?$default_delete@V_Facet_base@std@@@2@@std@@QAE@XZ
  00019	e9 00 00 00 00	 jmp	 ___CxxFrameHandler3
text$x	ENDS
??1?$unique_ptr@V_Facet_base@std@@U?$default_delete@V_Facet_base@std@@@2@@std@@QAE@XZ ENDP ; std::unique_ptr<std::_Facet_base,std::default_delete<std::_Facet_base> >::~unique_ptr<std::_Facet_base,std::default_delete<std::_Facet_base> >
; Function compile flags: /Odtp /RTCsu /ZI
; File C:\Program Files (x86)\Microsoft Visual Studio\2019\Community\VC\Tools\MSVC\14.24.28314\include\memory
;	COMDAT ??R?$default_delete@V_Facet_base@std@@@std@@QBEXPAV_Facet_base@1@@Z
_TEXT	SEGMENT
tv70 = -232						; size = 4
$T2 = -224						; size = 4
_this$ = -20						; size = 4
__$EHRec$ = -12						; size = 12
__Ptr$ = 8						; size = 4
??R?$default_delete@V_Facet_base@std@@@std@@QBEXPAV_Facet_base@1@@Z PROC ; std::default_delete<std::_Facet_base>::operator(), COMDAT
; _this$ = ecx

; 1763 :     void operator()(_Ty* _Ptr) const noexcept /* strengthened */ { // delete a pointer

  00000	55		 push	 ebp
  00001	8b ec		 mov	 ebp, esp
  00003	6a ff		 push	 -1
  00005	68 00 00 00 00	 push	 __ehhandler$??R?$default_delete@V_Facet_base@std@@@std@@QBEXPAV_Facet_base@1@@Z
  0000a	64 a1 00 00 00
	00		 mov	 eax, DWORD PTR fs:0
  00010	50		 push	 eax
  00011	81 ec dc 00 00
	00		 sub	 esp, 220		; 000000dcH
  00017	53		 push	 ebx
  00018	56		 push	 esi
  00019	57		 push	 edi
  0001a	51		 push	 ecx
  0001b	8d bd 18 ff ff
	ff		 lea	 edi, DWORD PTR [ebp-232]
  00021	b9 37 00 00 00	 mov	 ecx, 55			; 00000037H
  00026	b8 cc cc cc cc	 mov	 eax, -858993460		; ccccccccH
  0002b	f3 ab		 rep stosd
  0002d	59		 pop	 ecx
  0002e	a1 00 00 00 00	 mov	 eax, DWORD PTR ___security_cookie
  00033	33 c5		 xor	 eax, ebp
  00035	50		 push	 eax
  00036	8d 45 f4	 lea	 eax, DWORD PTR __$EHRec$[ebp]
  00039	64 a3 00 00 00
	00		 mov	 DWORD PTR fs:0, eax
  0003f	89 4d ec	 mov	 DWORD PTR _this$[ebp], ecx
  00042	b9 00 00 00 00	 mov	 ecx, OFFSET __71560CBE_memory
  00047	e8 00 00 00 00	 call	 @__CheckForDebuggerJustMyCode@4

; 1764 :         static_assert(0 < sizeof(_Ty), "can't delete an incomplete type");
; 1765 :         delete _Ptr;

  0004c	8b 45 08	 mov	 eax, DWORD PTR __Ptr$[ebp]
  0004f	89 85 20 ff ff
	ff		 mov	 DWORD PTR $T2[ebp], eax
  00055	83 bd 20 ff ff
	ff 00		 cmp	 DWORD PTR $T2[ebp], 0
  0005c	74 25		 je	 SHORT $LN3@operator
  0005e	8b f4		 mov	 esi, esp
  00060	6a 01		 push	 1
  00062	8b 8d 20 ff ff
	ff		 mov	 ecx, DWORD PTR $T2[ebp]
  00068	8b 11		 mov	 edx, DWORD PTR [ecx]
  0006a	8b 8d 20 ff ff
	ff		 mov	 ecx, DWORD PTR $T2[ebp]
  00070	8b 02		 mov	 eax, DWORD PTR [edx]
  00072	ff d0		 call	 eax
  00074	3b f4		 cmp	 esi, esp
  00076	e8 00 00 00 00	 call	 __RTC_CheckEsp
  0007b	89 85 18 ff ff
	ff		 mov	 DWORD PTR tv70[ebp], eax
  00081	eb 0a		 jmp	 SHORT $LN2@operator
$LN3@operator:
  00083	c7 85 18 ff ff
	ff 00 00 00 00	 mov	 DWORD PTR tv70[ebp], 0
$LN2@operator:

; 1766 :     }

  0008d	8b 4d f4	 mov	 ecx, DWORD PTR __$EHRec$[ebp]
  00090	64 89 0d 00 00
	00 00		 mov	 DWORD PTR fs:0, ecx
  00097	59		 pop	 ecx
  00098	5f		 pop	 edi
  00099	5e		 pop	 esi
  0009a	5b		 pop	 ebx
  0009b	81 c4 e8 00 00
	00		 add	 esp, 232		; 000000e8H
  000a1	3b ec		 cmp	 ebp, esp
  000a3	e8 00 00 00 00	 call	 __RTC_CheckEsp
  000a8	8b e5		 mov	 esp, ebp
  000aa	5d		 pop	 ebp
  000ab	c2 04 00	 ret	 4
_TEXT	ENDS
;	COMDAT text$x
text$x	SEGMENT
__ehhandler$??R?$default_delete@V_Facet_base@std@@@std@@QBEXPAV_Facet_base@1@@Z:
  00000	8b 54 24 08	 mov	 edx, DWORD PTR [esp+8]
  00004	8d 42 0c	 lea	 eax, DWORD PTR [edx+12]
  00007	8b 8a 14 ff ff
	ff		 mov	 ecx, DWORD PTR [edx-236]
  0000d	33 c8		 xor	 ecx, eax
  0000f	e8 00 00 00 00	 call	 @__security_check_cookie@4
  00014	b8 00 00 00 00	 mov	 eax, OFFSET __ehfuncinfo$??R?$default_delete@V_Facet_base@std@@@std@@QBEXPAV_Facet_base@1@@Z
  00019	e9 00 00 00 00	 jmp	 ___CxxFrameHandler3
text$x	ENDS
??R?$default_delete@V_Facet_base@std@@@std@@QBEXPAV_Facet_base@1@@Z ENDP ; std::default_delete<std::_Facet_base>::operator()
; Function compile flags: /Odtp /RTCsu /ZI
; File C:\Program Files (x86)\Microsoft Visual Studio\2019\Community\VC\Tools\MSVC\14.24.28314\include\type_traits
;	COMDAT ??$forward@PAU_Container_base12@std@@@std@@YA$$QAPAU_Container_base12@0@AAPAU10@@Z
_TEXT	SEGMENT
__$EHRec$ = -12						; size = 12
__Arg$ = 8						; size = 4
??$forward@PAU_Container_base12@std@@@std@@YA$$QAPAU_Container_base12@0@AAPAU10@@Z PROC ; std::forward<std::_Container_base12 *>, COMDAT

; 1426 :     remove_reference_t<_Ty>& _Arg) noexcept { // forward an lvalue as either an lvalue or an rvalue

  00000	55		 push	 ebp
  00001	8b ec		 mov	 ebp, esp
  00003	6a ff		 push	 -1
  00005	68 00 00 00 00	 push	 __ehhandler$??$forward@PAU_Container_base12@std@@@std@@YA$$QAPAU_Container_base12@0@AAPAU10@@Z
  0000a	64 a1 00 00 00
	00		 mov	 eax, DWORD PTR fs:0
  00010	50		 push	 eax
  00011	81 ec c0 00 00
	00		 sub	 esp, 192		; 000000c0H
  00017	53		 push	 ebx
  00018	56		 push	 esi
  00019	57		 push	 edi
  0001a	8d bd 34 ff ff
	ff		 lea	 edi, DWORD PTR [ebp-204]
  00020	b9 30 00 00 00	 mov	 ecx, 48			; 00000030H
  00025	b8 cc cc cc cc	 mov	 eax, -858993460		; ccccccccH
  0002a	f3 ab		 rep stosd
  0002c	a1 00 00 00 00	 mov	 eax, DWORD PTR ___security_cookie
  00031	33 c5		 xor	 eax, ebp
  00033	50		 push	 eax
  00034	8d 45 f4	 lea	 eax, DWORD PTR __$EHRec$[ebp]
  00037	64 a3 00 00 00
	00		 mov	 DWORD PTR fs:0, eax
  0003d	b9 00 00 00 00	 mov	 ecx, OFFSET __4877352E_type_traits
  00042	e8 00 00 00 00	 call	 @__CheckForDebuggerJustMyCode@4

; 1427 :     return static_cast<_Ty&&>(_Arg);

  00047	8b 45 08	 mov	 eax, DWORD PTR __Arg$[ebp]

; 1428 : }

  0004a	8b 4d f4	 mov	 ecx, DWORD PTR __$EHRec$[ebp]
  0004d	64 89 0d 00 00
	00 00		 mov	 DWORD PTR fs:0, ecx
  00054	59		 pop	 ecx
  00055	5f		 pop	 edi
  00056	5e		 pop	 esi
  00057	5b		 pop	 ebx
  00058	81 c4 cc 00 00
	00		 add	 esp, 204		; 000000ccH
  0005e	3b ec		 cmp	 ebp, esp
  00060	e8 00 00 00 00	 call	 __RTC_CheckEsp
  00065	8b e5		 mov	 esp, ebp
  00067	5d		 pop	 ebp
  00068	c3		 ret	 0
_TEXT	ENDS
;	COMDAT text$x
text$x	SEGMENT
__ehhandler$??$forward@PAU_Container_base12@std@@@std@@YA$$QAPAU_Container_base12@0@AAPAU10@@Z:
  00000	8b 54 24 08	 mov	 edx, DWORD PTR [esp+8]
  00004	8d 42 0c	 lea	 eax, DWORD PTR [edx+12]
  00007	8b 8a 30 ff ff
	ff		 mov	 ecx, DWORD PTR [edx-208]
  0000d	33 c8		 xor	 ecx, eax
  0000f	e8 00 00 00 00	 call	 @__security_check_cookie@4
  00014	b8 00 00 00 00	 mov	 eax, OFFSET __ehfuncinfo$??$forward@PAU_Container_base12@std@@@std@@YA$$QAPAU_Container_base12@0@AAPAU10@@Z
  00019	e9 00 00 00 00	 jmp	 ___CxxFrameHandler3
text$x	ENDS
??$forward@PAU_Container_base12@std@@@std@@YA$$QAPAU_Container_base12@0@AAPAU10@@Z ENDP ; std::forward<std::_Container_base12 *>
; Function compile flags: /Odtp /RTCsu /ZI
; File C:\Program Files (x86)\Microsoft Visual Studio\2019\Community\VC\Tools\MSVC\14.24.28314\include\xstddef
;	COMDAT ??$addressof@U_Container_proxy@std@@@std@@YAPAU_Container_proxy@0@AAU10@@Z
_TEXT	SEGMENT
__$EHRec$ = -12						; size = 12
__Val$ = 8						; size = 4
??$addressof@U_Container_proxy@std@@@std@@YAPAU_Container_proxy@0@AAU10@@Z PROC ; std::addressof<std::_Container_proxy>, COMDAT

; 274  : _NODISCARD constexpr _Ty* addressof(_Ty& _Val) noexcept {

  00000	55		 push	 ebp
  00001	8b ec		 mov	 ebp, esp
  00003	6a ff		 push	 -1
  00005	68 00 00 00 00	 push	 __ehhandler$??$addressof@U_Container_proxy@std@@@std@@YAPAU_Container_proxy@0@AAU10@@Z
  0000a	64 a1 00 00 00
	00		 mov	 eax, DWORD PTR fs:0
  00010	50		 push	 eax
  00011	81 ec c0 00 00
	00		 sub	 esp, 192		; 000000c0H
  00017	53		 push	 ebx
  00018	56		 push	 esi
  00019	57		 push	 edi
  0001a	8d bd 34 ff ff
	ff		 lea	 edi, DWORD PTR [ebp-204]
  00020	b9 30 00 00 00	 mov	 ecx, 48			; 00000030H
  00025	b8 cc cc cc cc	 mov	 eax, -858993460		; ccccccccH
  0002a	f3 ab		 rep stosd
  0002c	a1 00 00 00 00	 mov	 eax, DWORD PTR ___security_cookie
  00031	33 c5		 xor	 eax, ebp
  00033	50		 push	 eax
  00034	8d 45 f4	 lea	 eax, DWORD PTR __$EHRec$[ebp]
  00037	64 a3 00 00 00
	00		 mov	 DWORD PTR fs:0, eax
  0003d	b9 00 00 00 00	 mov	 ecx, OFFSET __2C3DAE68_xstddef
  00042	e8 00 00 00 00	 call	 @__CheckForDebuggerJustMyCode@4

; 275  :     return __builtin_addressof(_Val);

  00047	8b 45 08	 mov	 eax, DWORD PTR __Val$[ebp]

; 276  : }

  0004a	8b 4d f4	 mov	 ecx, DWORD PTR __$EHRec$[ebp]
  0004d	64 89 0d 00 00
	00 00		 mov	 DWORD PTR fs:0, ecx
  00054	59		 pop	 ecx
  00055	5f		 pop	 edi
  00056	5e		 pop	 esi
  00057	5b		 pop	 ebx
  00058	81 c4 cc 00 00
	00		 add	 esp, 204		; 000000ccH
  0005e	3b ec		 cmp	 ebp, esp
  00060	e8 00 00 00 00	 call	 __RTC_CheckEsp
  00065	8b e5		 mov	 esp, ebp
  00067	5d		 pop	 ebp
  00068	c3		 ret	 0
_TEXT	ENDS
;	COMDAT text$x
text$x	SEGMENT
__ehhandler$??$addressof@U_Container_proxy@std@@@std@@YAPAU_Container_proxy@0@AAU10@@Z:
  00000	8b 54 24 08	 mov	 edx, DWORD PTR [esp+8]
  00004	8d 42 0c	 lea	 eax, DWORD PTR [edx+12]
  00007	8b 8a 30 ff ff
	ff		 mov	 ecx, DWORD PTR [edx-208]
  0000d	33 c8		 xor	 ecx, eax
  0000f	e8 00 00 00 00	 call	 @__security_check_cookie@4
  00014	b8 00 00 00 00	 mov	 eax, OFFSET __ehfuncinfo$??$addressof@U_Container_proxy@std@@@std@@YAPAU_Container_proxy@0@AAU10@@Z
  00019	e9 00 00 00 00	 jmp	 ___CxxFrameHandler3
text$x	ENDS
??$addressof@U_Container_proxy@std@@@std@@YAPAU_Container_proxy@0@AAU10@@Z ENDP ; std::addressof<std::_Container_proxy>
; Function compile flags: /Odtp /RTCsu /ZI
; File C:\Program Files (x86)\Microsoft Visual Studio\2019\Community\VC\Tools\MSVC\14.24.28314\include\xmemory
;	COMDAT ??$_Get_size_of_n@$07@std@@YAII@Z
_TEXT	SEGMENT
__Max_possible$1 = -20					; size = 4
__Overflow_is_possible$ = -5				; size = 1
__Count$ = 8						; size = 4
??$_Get_size_of_n@$07@std@@YAII@Z PROC			; std::_Get_size_of_n<8>, COMDAT

; 28   : _NODISCARD constexpr size_t _Get_size_of_n(const size_t _Count) {

  00000	55		 push	 ebp
  00001	8b ec		 mov	 ebp, esp
  00003	81 ec d8 00 00
	00		 sub	 esp, 216		; 000000d8H
  00009	53		 push	 ebx
  0000a	56		 push	 esi
  0000b	57		 push	 edi
  0000c	8d bd 28 ff ff
	ff		 lea	 edi, DWORD PTR [ebp-216]
  00012	b9 36 00 00 00	 mov	 ecx, 54			; 00000036H
  00017	b8 cc cc cc cc	 mov	 eax, -858993460		; ccccccccH
  0001c	f3 ab		 rep stosd
  0001e	b9 00 00 00 00	 mov	 ecx, OFFSET __B1B75AB9_xmemory
  00023	e8 00 00 00 00	 call	 @__CheckForDebuggerJustMyCode@4

; 29   :     constexpr bool _Overflow_is_possible = _Ty_size > 1;

  00028	c6 45 fb 01	 mov	 BYTE PTR __Overflow_is_possible$[ebp], 1

; 30   : 
; 31   :     if
; 32   :         _CONSTEXPR_IF(_Overflow_is_possible) {
; 33   :             constexpr size_t _Max_possible = static_cast<size_t>(-1) / _Ty_size;

  0002c	c7 45 ec ff ff
	ff 1f		 mov	 DWORD PTR __Max_possible$1[ebp], 536870911 ; 1fffffffH

; 34   :             if (_Count > _Max_possible) {

  00033	81 7d 08 ff ff
	ff 1f		 cmp	 DWORD PTR __Count$[ebp], 536870911 ; 1fffffffH
  0003a	76 05		 jbe	 SHORT $LN2@Get_size_o

; 35   :                 _Throw_bad_array_new_length(); // multiply overflow

  0003c	e8 00 00 00 00	 call	 ?_Throw_bad_array_new_length@std@@YAXXZ ; std::_Throw_bad_array_new_length
$LN2@Get_size_o:

; 36   :             }
; 37   :         }
; 38   : 
; 39   :     return _Count * _Ty_size;

  00041	8b 45 08	 mov	 eax, DWORD PTR __Count$[ebp]
  00044	c1 e0 03	 shl	 eax, 3
$LN3@Get_size_o:

; 40   : }

  00047	5f		 pop	 edi
  00048	5e		 pop	 esi
  00049	5b		 pop	 ebx
  0004a	81 c4 d8 00 00
	00		 add	 esp, 216		; 000000d8H
  00050	3b ec		 cmp	 ebp, esp
  00052	e8 00 00 00 00	 call	 __RTC_CheckEsp
  00057	8b e5		 mov	 esp, ebp
  00059	5d		 pop	 ebp
  0005a	c3		 ret	 0
??$_Get_size_of_n@$07@std@@YAII@Z ENDP			; std::_Get_size_of_n<8>
_TEXT	ENDS
; Function compile flags: /Odtp /RTCsu /ZI
; File C:\Program Files (x86)\Microsoft Visual Studio\2019\Community\VC\Tools\MSVC\14.24.28314\include\xmemory
;	COMDAT ??$_Deallocate@$07$0A@@std@@YAXPAXI@Z
_TEXT	SEGMENT
__$EHRec$ = -12						; size = 12
__Ptr$ = 8						; size = 4
__Bytes$ = 12						; size = 4
??$_Deallocate@$07$0A@@std@@YAXPAXI@Z PROC		; std::_Deallocate<8,0>, COMDAT

; 187  : void _Deallocate(void* _Ptr, size_t _Bytes) noexcept {

  00000	55		 push	 ebp
  00001	8b ec		 mov	 ebp, esp
  00003	6a ff		 push	 -1
  00005	68 00 00 00 00	 push	 __ehhandler$??$_Deallocate@$07$0A@@std@@YAXPAXI@Z
  0000a	64 a1 00 00 00
	00		 mov	 eax, DWORD PTR fs:0
  00010	50		 push	 eax
  00011	81 ec c0 00 00
	00		 sub	 esp, 192		; 000000c0H
  00017	53		 push	 ebx
  00018	56		 push	 esi
  00019	57		 push	 edi
  0001a	8d bd 34 ff ff
	ff		 lea	 edi, DWORD PTR [ebp-204]
  00020	b9 30 00 00 00	 mov	 ecx, 48			; 00000030H
  00025	b8 cc cc cc cc	 mov	 eax, -858993460		; ccccccccH
  0002a	f3 ab		 rep stosd
  0002c	a1 00 00 00 00	 mov	 eax, DWORD PTR ___security_cookie
  00031	33 c5		 xor	 eax, ebp
  00033	50		 push	 eax
  00034	8d 45 f4	 lea	 eax, DWORD PTR __$EHRec$[ebp]
  00037	64 a3 00 00 00
	00		 mov	 DWORD PTR fs:0, eax
  0003d	b9 00 00 00 00	 mov	 ecx, OFFSET __B1B75AB9_xmemory
  00042	e8 00 00 00 00	 call	 @__CheckForDebuggerJustMyCode@4

; 188  :     // deallocate storage allocated by _Allocate when !_HAS_ALIGNED_NEW || _Align <= __STDCPP_DEFAULT_NEW_ALIGNMENT__
; 189  : #if defined(_M_IX86) || defined(_M_X64)
; 190  :     if (_Bytes >= _Big_allocation_threshold) { // boost the alignment of big allocations to help autovectorization

  00047	81 7d 0c 00 10
	00 00		 cmp	 DWORD PTR __Bytes$[ebp], 4096 ; 00001000H
  0004e	72 10		 jb	 SHORT $LN2@Deallocate

; 191  :         _Adjust_manually_vector_aligned(_Ptr, _Bytes);

  00050	8d 45 0c	 lea	 eax, DWORD PTR __Bytes$[ebp]
  00053	50		 push	 eax
  00054	8d 4d 08	 lea	 ecx, DWORD PTR __Ptr$[ebp]
  00057	51		 push	 ecx
  00058	e8 00 00 00 00	 call	 ?_Adjust_manually_vector_aligned@std@@YAXAAPAXAAI@Z ; std::_Adjust_manually_vector_aligned
  0005d	83 c4 08	 add	 esp, 8
$LN2@Deallocate:

; 192  :     }
; 193  : #endif // defined(_M_IX86) || defined(_M_X64)
; 194  : 
; 195  :     ::operator delete(_Ptr, _Bytes);

  00060	8b 45 0c	 mov	 eax, DWORD PTR __Bytes$[ebp]
  00063	50		 push	 eax
  00064	8b 4d 08	 mov	 ecx, DWORD PTR __Ptr$[ebp]
  00067	51		 push	 ecx
  00068	e8 00 00 00 00	 call	 ??3@YAXPAXI@Z		; operator delete
  0006d	83 c4 08	 add	 esp, 8

; 196  : }

  00070	8b 4d f4	 mov	 ecx, DWORD PTR __$EHRec$[ebp]
  00073	64 89 0d 00 00
	00 00		 mov	 DWORD PTR fs:0, ecx
  0007a	59		 pop	 ecx
  0007b	5f		 pop	 edi
  0007c	5e		 pop	 esi
  0007d	5b		 pop	 ebx
  0007e	81 c4 cc 00 00
	00		 add	 esp, 204		; 000000ccH
  00084	3b ec		 cmp	 ebp, esp
  00086	e8 00 00 00 00	 call	 __RTC_CheckEsp
  0008b	8b e5		 mov	 esp, ebp
  0008d	5d		 pop	 ebp
  0008e	c3		 ret	 0
_TEXT	ENDS
;	COMDAT text$x
text$x	SEGMENT
__ehhandler$??$_Deallocate@$07$0A@@std@@YAXPAXI@Z:
  00000	8b 54 24 08	 mov	 edx, DWORD PTR [esp+8]
  00004	8d 42 0c	 lea	 eax, DWORD PTR [edx+12]
  00007	8b 8a 30 ff ff
	ff		 mov	 ecx, DWORD PTR [edx-208]
  0000d	33 c8		 xor	 ecx, eax
  0000f	e8 00 00 00 00	 call	 @__security_check_cookie@4
  00014	b8 00 00 00 00	 mov	 eax, OFFSET __ehfuncinfo$??$_Deallocate@$07$0A@@std@@YAXPAXI@Z
  00019	e9 00 00 00 00	 jmp	 ___CxxFrameHandler3
text$x	ENDS
??$_Deallocate@$07$0A@@std@@YAXPAXI@Z ENDP		; std::_Deallocate<8,0>
; Function compile flags: /Odtp /RTCsu /ZI
; File C:\Program Files (x86)\Microsoft Visual Studio\2019\Community\VC\Tools\MSVC\14.24.28314\include\xmemory
;	COMDAT ??$_Allocate@$07U_Default_allocate_traits@std@@$0A@@std@@YAPAXI@Z
_TEXT	SEGMENT
__Bytes$ = 8						; size = 4
??$_Allocate@$07U_Default_allocate_traits@std@@$0A@@std@@YAPAXI@Z PROC ; std::_Allocate<8,std::_Default_allocate_traits,0>, COMDAT

; 171  : _DECLSPEC_ALLOCATOR void* _Allocate(const size_t _Bytes) {

  00000	55		 push	 ebp
  00001	8b ec		 mov	 ebp, esp
  00003	81 ec c0 00 00
	00		 sub	 esp, 192		; 000000c0H
  00009	53		 push	 ebx
  0000a	56		 push	 esi
  0000b	57		 push	 edi
  0000c	8d bd 40 ff ff
	ff		 lea	 edi, DWORD PTR [ebp-192]
  00012	b9 30 00 00 00	 mov	 ecx, 48			; 00000030H
  00017	b8 cc cc cc cc	 mov	 eax, -858993460		; ccccccccH
  0001c	f3 ab		 rep stosd
  0001e	b9 00 00 00 00	 mov	 ecx, OFFSET __B1B75AB9_xmemory
  00023	e8 00 00 00 00	 call	 @__CheckForDebuggerJustMyCode@4

; 172  :     // allocate _Bytes when !_HAS_ALIGNED_NEW || _Align <= __STDCPP_DEFAULT_NEW_ALIGNMENT__
; 173  : #if defined(_M_IX86) || defined(_M_X64)
; 174  :     if (_Bytes >= _Big_allocation_threshold) { // boost the alignment of big allocations to help autovectorization

  00028	81 7d 08 00 10
	00 00		 cmp	 DWORD PTR __Bytes$[ebp], 4096 ; 00001000H
  0002f	72 0e		 jb	 SHORT $LN2@Allocate

; 175  :         return _Allocate_manually_vector_aligned<_Traits>(_Bytes);

  00031	8b 45 08	 mov	 eax, DWORD PTR __Bytes$[ebp]
  00034	50		 push	 eax
  00035	e8 00 00 00 00	 call	 ??$_Allocate_manually_vector_aligned@U_Default_allocate_traits@std@@@std@@YAPAXI@Z ; std::_Allocate_manually_vector_aligned<std::_Default_allocate_traits>
  0003a	83 c4 04	 add	 esp, 4
  0003d	eb 16		 jmp	 SHORT $LN1@Allocate
$LN2@Allocate:

; 176  :     }
; 177  : #endif // defined(_M_IX86) || defined(_M_X64)
; 178  : 
; 179  :     if (_Bytes != 0) {

  0003f	83 7d 08 00	 cmp	 DWORD PTR __Bytes$[ebp], 0
  00043	74 0e		 je	 SHORT $LN3@Allocate

; 180  :         return _Traits::_Allocate(_Bytes);

  00045	8b 45 08	 mov	 eax, DWORD PTR __Bytes$[ebp]
  00048	50		 push	 eax
  00049	e8 00 00 00 00	 call	 ?_Allocate@_Default_allocate_traits@std@@SAPAXI@Z ; std::_Default_allocate_traits::_Allocate
  0004e	83 c4 04	 add	 esp, 4
  00051	eb 02		 jmp	 SHORT $LN1@Allocate
$LN3@Allocate:

; 181  :     }
; 182  : 
; 183  :     return nullptr;

  00053	33 c0		 xor	 eax, eax
$LN1@Allocate:

; 184  : }

  00055	5f		 pop	 edi
  00056	5e		 pop	 esi
  00057	5b		 pop	 ebx
  00058	81 c4 c0 00 00
	00		 add	 esp, 192		; 000000c0H
  0005e	3b ec		 cmp	 ebp, esp
  00060	e8 00 00 00 00	 call	 __RTC_CheckEsp
  00065	8b e5		 mov	 esp, ebp
  00067	5d		 pop	 ebp
  00068	c3		 ret	 0
??$_Allocate@$07U_Default_allocate_traits@std@@$0A@@std@@YAPAXI@Z ENDP ; std::_Allocate<8,std::_Default_allocate_traits,0>
_TEXT	ENDS
; Function compile flags: /Odtp /RTCsu /ZI
; File C:\Program Files (x86)\Microsoft Visual Studio\2019\Community\VC\Tools\MSVC\14.24.28314\include\xmemory
;	COMDAT ??$_Get_size_of_n@$00@std@@YAII@Z
_TEXT	SEGMENT
__Overflow_is_possible$ = -5				; size = 1
__Count$ = 8						; size = 4
??$_Get_size_of_n@$00@std@@YAII@Z PROC			; std::_Get_size_of_n<1>, COMDAT

; 28   : _NODISCARD constexpr size_t _Get_size_of_n(const size_t _Count) {

  00000	55		 push	 ebp
  00001	8b ec		 mov	 ebp, esp
  00003	81 ec cc 00 00
	00		 sub	 esp, 204		; 000000ccH
  00009	53		 push	 ebx
  0000a	56		 push	 esi
  0000b	57		 push	 edi
  0000c	8d bd 34 ff ff
	ff		 lea	 edi, DWORD PTR [ebp-204]
  00012	b9 33 00 00 00	 mov	 ecx, 51			; 00000033H
  00017	b8 cc cc cc cc	 mov	 eax, -858993460		; ccccccccH
  0001c	f3 ab		 rep stosd
  0001e	b9 00 00 00 00	 mov	 ecx, OFFSET __B1B75AB9_xmemory
  00023	e8 00 00 00 00	 call	 @__CheckForDebuggerJustMyCode@4

; 29   :     constexpr bool _Overflow_is_possible = _Ty_size > 1;

  00028	c6 45 fb 00	 mov	 BYTE PTR __Overflow_is_possible$[ebp], 0

; 30   : 
; 31   :     if
; 32   :         _CONSTEXPR_IF(_Overflow_is_possible) {
; 33   :             constexpr size_t _Max_possible = static_cast<size_t>(-1) / _Ty_size;
; 34   :             if (_Count > _Max_possible) {
; 35   :                 _Throw_bad_array_new_length(); // multiply overflow
; 36   :             }
; 37   :         }
; 38   : 
; 39   :     return _Count * _Ty_size;

  0002c	8b 45 08	 mov	 eax, DWORD PTR __Count$[ebp]

; 40   : }

  0002f	5f		 pop	 edi
  00030	5e		 pop	 esi
  00031	5b		 pop	 ebx
  00032	81 c4 cc 00 00
	00		 add	 esp, 204		; 000000ccH
  00038	3b ec		 cmp	 ebp, esp
  0003a	e8 00 00 00 00	 call	 __RTC_CheckEsp
  0003f	8b e5		 mov	 esp, ebp
  00041	5d		 pop	 ebp
  00042	c3		 ret	 0
??$_Get_size_of_n@$00@std@@YAII@Z ENDP			; std::_Get_size_of_n<1>
_TEXT	ENDS
; Function compile flags: /Odtp /RTCsu /ZI
; File C:\Program Files (x86)\Microsoft Visual Studio\2019\Community\VC\Tools\MSVC\14.24.28314\include\xmemory
;	COMDAT ??$_Construct_in_place@PADABQAD@std@@YAXAAPADABQAD@Z
_TEXT	SEGMENT
$T2 = -212						; size = 4
__$EHRec$ = -12						; size = 12
__Obj$ = 8						; size = 4
_<_Args_0>$ = 12					; size = 4
??$_Construct_in_place@PADABQAD@std@@YAXAAPADABQAD@Z PROC ; std::_Construct_in_place<char *,char * const &>, COMDAT

; 202  : void _Construct_in_place(_Ty& _Obj, _Types&&... _Args) noexcept(is_nothrow_constructible_v<_Ty, _Types...>) {

  00000	55		 push	 ebp
  00001	8b ec		 mov	 ebp, esp
  00003	6a ff		 push	 -1
  00005	68 00 00 00 00	 push	 __ehhandler$??$_Construct_in_place@PADABQAD@std@@YAXAAPADABQAD@Z
  0000a	64 a1 00 00 00
	00		 mov	 eax, DWORD PTR fs:0
  00010	50		 push	 eax
  00011	81 ec cc 00 00
	00		 sub	 esp, 204		; 000000ccH
  00017	53		 push	 ebx
  00018	56		 push	 esi
  00019	57		 push	 edi
  0001a	8d bd 28 ff ff
	ff		 lea	 edi, DWORD PTR [ebp-216]
  00020	b9 33 00 00 00	 mov	 ecx, 51			; 00000033H
  00025	b8 cc cc cc cc	 mov	 eax, -858993460		; ccccccccH
  0002a	f3 ab		 rep stosd
  0002c	a1 00 00 00 00	 mov	 eax, DWORD PTR ___security_cookie
  00031	33 c5		 xor	 eax, ebp
  00033	50		 push	 eax
  00034	8d 45 f4	 lea	 eax, DWORD PTR __$EHRec$[ebp]
  00037	64 a3 00 00 00
	00		 mov	 DWORD PTR fs:0, eax
  0003d	b9 00 00 00 00	 mov	 ecx, OFFSET __B1B75AB9_xmemory
  00042	e8 00 00 00 00	 call	 @__CheckForDebuggerJustMyCode@4
  00047	8b 45 08	 mov	 eax, DWORD PTR __Obj$[ebp]
  0004a	50		 push	 eax
  0004b	e8 00 00 00 00	 call	 ??$addressof@PAD@std@@YAPAPADAAPAD@Z ; std::addressof<char *>
  00050	83 c4 04	 add	 esp, 4
  00053	50		 push	 eax
  00054	6a 04		 push	 4
  00056	e8 00 00 00 00	 call	 ??2@YAPAXIPAX@Z		; operator new
  0005b	83 c4 08	 add	 esp, 8
  0005e	89 85 2c ff ff
	ff		 mov	 DWORD PTR $T2[ebp], eax
  00064	8b 4d 0c	 mov	 ecx, DWORD PTR _<_Args_0>$[ebp]
  00067	51		 push	 ecx
  00068	e8 00 00 00 00	 call	 ??$forward@ABQAD@std@@YAABQADABQAD@Z ; std::forward<char * const &>
  0006d	83 c4 04	 add	 esp, 4
  00070	8b 95 2c ff ff
	ff		 mov	 edx, DWORD PTR $T2[ebp]
  00076	8b 00		 mov	 eax, DWORD PTR [eax]
  00078	89 02		 mov	 DWORD PTR [edx], eax

; 203  :     ::new (const_cast<void*>(static_cast<const volatile void*>(_STD addressof(_Obj))))
; 204  :         _Ty(_STD forward<_Types>(_Args)...);
; 205  : }

  0007a	8b 4d f4	 mov	 ecx, DWORD PTR __$EHRec$[ebp]
  0007d	64 89 0d 00 00
	00 00		 mov	 DWORD PTR fs:0, ecx
  00084	59		 pop	 ecx
  00085	5f		 pop	 edi
  00086	5e		 pop	 esi
  00087	5b		 pop	 ebx
  00088	81 c4 d8 00 00
	00		 add	 esp, 216		; 000000d8H
  0008e	3b ec		 cmp	 ebp, esp
  00090	e8 00 00 00 00	 call	 __RTC_CheckEsp
  00095	8b e5		 mov	 esp, ebp
  00097	5d		 pop	 ebp
  00098	c3		 ret	 0
_TEXT	ENDS
;	COMDAT text$x
text$x	SEGMENT
__ehhandler$??$_Construct_in_place@PADABQAD@std@@YAXAAPADABQAD@Z:
  00000	8b 54 24 08	 mov	 edx, DWORD PTR [esp+8]
  00004	8d 42 0c	 lea	 eax, DWORD PTR [edx+12]
  00007	8b 8a 24 ff ff
	ff		 mov	 ecx, DWORD PTR [edx-220]
  0000d	33 c8		 xor	 ecx, eax
  0000f	e8 00 00 00 00	 call	 @__security_check_cookie@4
  00014	b8 00 00 00 00	 mov	 eax, OFFSET __ehfuncinfo$??$_Construct_in_place@PADABQAD@std@@YAXAAPADABQAD@Z
  00019	e9 00 00 00 00	 jmp	 ___CxxFrameHandler3
text$x	ENDS
??$_Construct_in_place@PADABQAD@std@@YAXAAPADABQAD@Z ENDP ; std::_Construct_in_place<char *,char * const &>
; Function compile flags: /Odtp /RTCsu /ZI
; File C:\Program Files (x86)\Microsoft Visual Studio\2019\Community\VC\Tools\MSVC\14.24.28314\include\xstring
;	COMDAT ??$_Reallocate_grow_by@V<lambda_15711c68e099a15a58f4d77303cb286d>@@D@?$basic_string@DU?$char_traits@D@std@@V?$allocator@D@2@@std@@AAEAAV01@IV<lambda_15711c68e099a15a58f4d77303cb286d>@@D@Z
_TEXT	SEGMENT
__Old_ptr$1 = -120					; size = 4
__Raw_new$ = -108					; size = 4
__New_ptr$ = -96					; size = 4
__Al$ = -84						; size = 4
__New_capacity$ = -72					; size = 4
__Old_capacity$ = -60					; size = 4
__New_size$ = -48					; size = 4
__Old_size$ = -36					; size = 4
__My_data$ = -24					; size = 4
_this$ = -12						; size = 4
__$ArrayPad$ = -4					; size = 4
__Size_increase$ = 8					; size = 4
__Fn$ = 12						; size = 1
_<_Args_0>$ = 16					; size = 1
??$_Reallocate_grow_by@V<lambda_15711c68e099a15a58f4d77303cb286d>@@D@?$basic_string@DU?$char_traits@D@std@@V?$allocator@D@2@@std@@AAEAAV01@IV<lambda_15711c68e099a15a58f4d77303cb286d>@@D@Z PROC ; std::basic_string<char,std::char_traits<char>,std::allocator<char> >::_Reallocate_grow_by<<lambda_15711c68e099a15a58f4d77303cb286d>,char>, COMDAT
; _this$ = ecx

; 4129 :     basic_string& _Reallocate_grow_by(const size_type _Size_increase, _Fty _Fn, _ArgTys... _Args) {

  00000	55		 push	 ebp
  00001	8b ec		 mov	 ebp, esp
  00003	81 ec 3c 01 00
	00		 sub	 esp, 316		; 0000013cH
  00009	53		 push	 ebx
  0000a	56		 push	 esi
  0000b	57		 push	 edi
  0000c	51		 push	 ecx
  0000d	8d bd c4 fe ff
	ff		 lea	 edi, DWORD PTR [ebp-316]
  00013	b9 4f 00 00 00	 mov	 ecx, 79			; 0000004fH
  00018	b8 cc cc cc cc	 mov	 eax, -858993460		; ccccccccH
  0001d	f3 ab		 rep stosd
  0001f	59		 pop	 ecx
  00020	a1 00 00 00 00	 mov	 eax, DWORD PTR ___security_cookie
  00025	33 c5		 xor	 eax, ebp
  00027	89 45 fc	 mov	 DWORD PTR __$ArrayPad$[ebp], eax
  0002a	89 4d f4	 mov	 DWORD PTR _this$[ebp], ecx
  0002d	b9 00 00 00 00	 mov	 ecx, OFFSET __C564DC25_xstring
  00032	e8 00 00 00 00	 call	 @__CheckForDebuggerJustMyCode@4

; 4130 :         // reallocate to increase size by _Size_increase elements, new buffer prepared by
; 4131 :         // _Fn(_New_ptr, _Old_ptr, _Old_size, _Args...)
; 4132 :         auto& _My_data            = _Mypair._Myval2;

  00037	8b 45 f4	 mov	 eax, DWORD PTR _this$[ebp]
  0003a	89 45 e8	 mov	 DWORD PTR __My_data$[ebp], eax

; 4133 :         const size_type _Old_size = _My_data._Mysize;

  0003d	8b 45 e8	 mov	 eax, DWORD PTR __My_data$[ebp]
  00040	8b 48 14	 mov	 ecx, DWORD PTR [eax+20]
  00043	89 4d dc	 mov	 DWORD PTR __Old_size$[ebp], ecx

; 4134 :         if (max_size() - _Old_size < _Size_increase) {

  00046	8b 4d f4	 mov	 ecx, DWORD PTR _this$[ebp]
  00049	e8 00 00 00 00	 call	 ?max_size@?$basic_string@DU?$char_traits@D@std@@V?$allocator@D@2@@std@@QBEIXZ ; std::basic_string<char,std::char_traits<char>,std::allocator<char> >::max_size
  0004e	2b 45 dc	 sub	 eax, DWORD PTR __Old_size$[ebp]
  00051	3b 45 08	 cmp	 eax, DWORD PTR __Size_increase$[ebp]
  00054	73 05		 jae	 SHORT $LN2@Reallocate

; 4135 :             _Xlen(); // result too long

  00056	e8 00 00 00 00	 call	 ?_Xlen@?$basic_string@DU?$char_traits@D@std@@V?$allocator@D@2@@std@@CAXXZ ; std::basic_string<char,std::char_traits<char>,std::allocator<char> >::_Xlen
$LN2@Reallocate:

; 4136 :         }
; 4137 : 
; 4138 :         const size_type _New_size     = _Old_size + _Size_increase;

  0005b	8b 45 dc	 mov	 eax, DWORD PTR __Old_size$[ebp]
  0005e	03 45 08	 add	 eax, DWORD PTR __Size_increase$[ebp]
  00061	89 45 d0	 mov	 DWORD PTR __New_size$[ebp], eax

; 4139 :         const size_type _Old_capacity = _My_data._Myres;

  00064	8b 45 e8	 mov	 eax, DWORD PTR __My_data$[ebp]
  00067	8b 48 18	 mov	 ecx, DWORD PTR [eax+24]
  0006a	89 4d c4	 mov	 DWORD PTR __Old_capacity$[ebp], ecx

; 4140 :         const size_type _New_capacity = _Calculate_growth(_New_size);

  0006d	8b 45 d0	 mov	 eax, DWORD PTR __New_size$[ebp]
  00070	50		 push	 eax
  00071	8b 4d f4	 mov	 ecx, DWORD PTR _this$[ebp]
  00074	e8 00 00 00 00	 call	 ?_Calculate_growth@?$basic_string@DU?$char_traits@D@std@@V?$allocator@D@2@@std@@ABEII@Z ; std::basic_string<char,std::char_traits<char>,std::allocator<char> >::_Calculate_growth
  00079	89 45 b8	 mov	 DWORD PTR __New_capacity$[ebp], eax

; 4141 :         auto& _Al                     = _Getal();

  0007c	8b 4d f4	 mov	 ecx, DWORD PTR _this$[ebp]
  0007f	e8 00 00 00 00	 call	 ?_Getal@?$basic_string@DU?$char_traits@D@std@@V?$allocator@D@2@@std@@AAEAAV?$allocator@D@2@XZ ; std::basic_string<char,std::char_traits<char>,std::allocator<char> >::_Getal
  00084	89 45 ac	 mov	 DWORD PTR __Al$[ebp], eax

; 4142 :         const pointer _New_ptr        = _Al.allocate(_New_capacity + 1); // throws

  00087	33 c0		 xor	 eax, eax
  00089	8b 4d b8	 mov	 ecx, DWORD PTR __New_capacity$[ebp]
  0008c	83 c1 01	 add	 ecx, 1
  0008f	0f 92 c0	 setb	 al
  00092	f7 d8		 neg	 eax
  00094	0b c1		 or	 eax, ecx
  00096	50		 push	 eax
  00097	8b 4d ac	 mov	 ecx, DWORD PTR __Al$[ebp]
  0009a	e8 00 00 00 00	 call	 ?allocate@?$allocator@D@std@@QAEPADI@Z ; std::allocator<char>::allocate
  0009f	89 45 a0	 mov	 DWORD PTR __New_ptr$[ebp], eax

; 4143 :         _My_data._Orphan_all();

  000a2	8b 4d e8	 mov	 ecx, DWORD PTR __My_data$[ebp]
  000a5	e8 00 00 00 00	 call	 ?_Orphan_all@_Container_base12@std@@QAEXXZ ; std::_Container_base12::_Orphan_all

; 4144 :         _My_data._Mysize      = _New_size;

  000aa	8b 45 e8	 mov	 eax, DWORD PTR __My_data$[ebp]
  000ad	8b 4d d0	 mov	 ecx, DWORD PTR __New_size$[ebp]
  000b0	89 48 14	 mov	 DWORD PTR [eax+20], ecx

; 4145 :         _My_data._Myres       = _New_capacity;

  000b3	8b 45 e8	 mov	 eax, DWORD PTR __My_data$[ebp]
  000b6	8b 4d b8	 mov	 ecx, DWORD PTR __New_capacity$[ebp]
  000b9	89 48 18	 mov	 DWORD PTR [eax+24], ecx

; 4146 :         _Elem* const _Raw_new = _Unfancy(_New_ptr);

  000bc	8b 45 a0	 mov	 eax, DWORD PTR __New_ptr$[ebp]
  000bf	50		 push	 eax
  000c0	e8 00 00 00 00	 call	 ??$_Unfancy@D@std@@YAPADPAD@Z ; std::_Unfancy<char>
  000c5	83 c4 04	 add	 esp, 4
  000c8	89 45 94	 mov	 DWORD PTR __Raw_new$[ebp], eax

; 4147 :         if (_BUF_SIZE <= _Old_capacity) {

  000cb	83 7d c4 10	 cmp	 DWORD PTR __Old_capacity$[ebp], 16 ; 00000010H
  000cf	72 49		 jb	 SHORT $LN3@Reallocate

; 4148 :             const pointer _Old_ptr = _My_data._Bx._Ptr;

  000d1	8b 45 e8	 mov	 eax, DWORD PTR __My_data$[ebp]
  000d4	8b 48 04	 mov	 ecx, DWORD PTR [eax+4]
  000d7	89 4d 88	 mov	 DWORD PTR __Old_ptr$1[ebp], ecx

; 4149 :             _Fn(_Raw_new, _Unfancy(_Old_ptr), _Old_size, _Args...);

  000da	0f b6 45 10	 movzx	 eax, BYTE PTR _<_Args_0>$[ebp]
  000de	50		 push	 eax
  000df	8b 4d dc	 mov	 ecx, DWORD PTR __Old_size$[ebp]
  000e2	51		 push	 ecx
  000e3	8b 55 88	 mov	 edx, DWORD PTR __Old_ptr$1[ebp]
  000e6	52		 push	 edx
  000e7	e8 00 00 00 00	 call	 ??$_Unfancy@D@std@@YAPADPAD@Z ; std::_Unfancy<char>
  000ec	83 c4 04	 add	 esp, 4
  000ef	50		 push	 eax
  000f0	8b 45 94	 mov	 eax, DWORD PTR __Raw_new$[ebp]
  000f3	50		 push	 eax
  000f4	8d 4d 0c	 lea	 ecx, DWORD PTR __Fn$[ebp]
  000f7	e8 00 00 00 00	 call	 ??R<lambda_15711c68e099a15a58f4d77303cb286d>@@QBEXQADQBDID@Z ; <lambda_15711c68e099a15a58f4d77303cb286d>::operator()

; 4150 :             _Al.deallocate(_Old_ptr, _Old_capacity + 1);

  000fc	8b 45 c4	 mov	 eax, DWORD PTR __Old_capacity$[ebp]
  000ff	83 c0 01	 add	 eax, 1
  00102	50		 push	 eax
  00103	8b 4d 88	 mov	 ecx, DWORD PTR __Old_ptr$1[ebp]
  00106	51		 push	 ecx
  00107	8b 4d ac	 mov	 ecx, DWORD PTR __Al$[ebp]
  0010a	e8 00 00 00 00	 call	 ?deallocate@?$allocator@D@std@@QAEXQADI@Z ; std::allocator<char>::deallocate

; 4151 :             _My_data._Bx._Ptr = _New_ptr;

  0010f	8b 45 e8	 mov	 eax, DWORD PTR __My_data$[ebp]
  00112	8b 4d a0	 mov	 ecx, DWORD PTR __New_ptr$[ebp]
  00115	89 48 04	 mov	 DWORD PTR [eax+4], ecx

; 4152 :         } else {

  00118	eb 2f		 jmp	 SHORT $LN4@Reallocate
$LN3@Reallocate:

; 4153 :             _Fn(_Raw_new, _My_data._Bx._Buf, _Old_size, _Args...);

  0011a	0f b6 45 10	 movzx	 eax, BYTE PTR _<_Args_0>$[ebp]
  0011e	50		 push	 eax
  0011f	8b 4d dc	 mov	 ecx, DWORD PTR __Old_size$[ebp]
  00122	51		 push	 ecx
  00123	8b 55 e8	 mov	 edx, DWORD PTR __My_data$[ebp]
  00126	83 c2 04	 add	 edx, 4
  00129	52		 push	 edx
  0012a	8b 45 94	 mov	 eax, DWORD PTR __Raw_new$[ebp]
  0012d	50		 push	 eax
  0012e	8d 4d 0c	 lea	 ecx, DWORD PTR __Fn$[ebp]
  00131	e8 00 00 00 00	 call	 ??R<lambda_15711c68e099a15a58f4d77303cb286d>@@QBEXQADQBDID@Z ; <lambda_15711c68e099a15a58f4d77303cb286d>::operator()

; 4154 :             _Construct_in_place(_My_data._Bx._Ptr, _New_ptr);

  00136	8d 45 a0	 lea	 eax, DWORD PTR __New_ptr$[ebp]
  00139	50		 push	 eax
  0013a	8b 4d e8	 mov	 ecx, DWORD PTR __My_data$[ebp]
  0013d	83 c1 04	 add	 ecx, 4
  00140	51		 push	 ecx
  00141	e8 00 00 00 00	 call	 ??$_Construct_in_place@PADABQAD@std@@YAXAAPADABQAD@Z ; std::_Construct_in_place<char *,char * const &>
  00146	83 c4 08	 add	 esp, 8
$LN4@Reallocate:

; 4155 :         }
; 4156 : 
; 4157 :         return *this;

  00149	8b 45 f4	 mov	 eax, DWORD PTR _this$[ebp]
$LN5@Reallocate:

; 4158 :     }

  0014c	52		 push	 edx
  0014d	8b cd		 mov	 ecx, ebp
  0014f	50		 push	 eax
  00150	8d 15 00 00 00
	00		 lea	 edx, DWORD PTR $LN8@Reallocate
  00156	e8 00 00 00 00	 call	 @_RTC_CheckStackVars@8
  0015b	58		 pop	 eax
  0015c	5a		 pop	 edx
  0015d	5f		 pop	 edi
  0015e	5e		 pop	 esi
  0015f	5b		 pop	 ebx
  00160	8b 4d fc	 mov	 ecx, DWORD PTR __$ArrayPad$[ebp]
  00163	33 cd		 xor	 ecx, ebp
  00165	e8 00 00 00 00	 call	 @__security_check_cookie@4
  0016a	81 c4 3c 01 00
	00		 add	 esp, 316		; 0000013cH
  00170	3b ec		 cmp	 ebp, esp
  00172	e8 00 00 00 00	 call	 __RTC_CheckEsp
  00177	8b e5		 mov	 esp, ebp
  00179	5d		 pop	 ebp
  0017a	c2 0c 00	 ret	 12			; 0000000cH
  0017d	0f 1f 00	 npad	 3
$LN8@Reallocate:
  00180	01 00 00 00	 DD	 1
  00184	00 00 00 00	 DD	 $LN7@Reallocate
$LN7@Reallocate:
  00188	a0 ff ff ff	 DD	 -96			; ffffffa0H
  0018c	04 00 00 00	 DD	 4
  00190	00 00 00 00	 DD	 $LN6@Reallocate
$LN6@Reallocate:
  00194	5f		 DB	 95			; 0000005fH
  00195	4e		 DB	 78			; 0000004eH
  00196	65		 DB	 101			; 00000065H
  00197	77		 DB	 119			; 00000077H
  00198	5f		 DB	 95			; 0000005fH
  00199	70		 DB	 112			; 00000070H
  0019a	74		 DB	 116			; 00000074H
  0019b	72		 DB	 114			; 00000072H
  0019c	00		 DB	 0
??$_Reallocate_grow_by@V<lambda_15711c68e099a15a58f4d77303cb286d>@@D@?$basic_string@DU?$char_traits@D@std@@V?$allocator@D@2@@std@@AAEAAV01@IV<lambda_15711c68e099a15a58f4d77303cb286d>@@D@Z ENDP ; std::basic_string<char,std::char_traits<char>,std::allocator<char> >::_Reallocate_grow_by<<lambda_15711c68e099a15a58f4d77303cb286d>,char>
_TEXT	ENDS
; Function compile flags: /Odtp /RTCsu /ZI
; File C:\Program Files (x86)\Microsoft Visual Studio\2019\Community\VC\Tools\MSVC\14.24.28314\include\xstring
;	COMDAT ??R<lambda_15711c68e099a15a58f4d77303cb286d>@@QBEXQADQBDID@Z
_TEXT	SEGMENT
$T1 = -209						; size = 1
_this$ = -8						; size = 4
__New_ptr$ = 8						; size = 4
__Old_ptr$ = 12						; size = 4
__Old_size$ = 16					; size = 4
__Ch$ = 20						; size = 1
??R<lambda_15711c68e099a15a58f4d77303cb286d>@@QBEXQADQBDID@Z PROC ; <lambda_15711c68e099a15a58f4d77303cb286d>::operator(), COMDAT
; _this$ = ecx

; 3526 :             [](_Elem* const _New_ptr, const _Elem* const _Old_ptr, const size_type _Old_size, const _Elem _Ch) {

  00000	55		 push	 ebp
  00001	8b ec		 mov	 ebp, esp
  00003	81 ec d8 00 00
	00		 sub	 esp, 216		; 000000d8H
  00009	53		 push	 ebx
  0000a	56		 push	 esi
  0000b	57		 push	 edi
  0000c	51		 push	 ecx
  0000d	8d bd 28 ff ff
	ff		 lea	 edi, DWORD PTR [ebp-216]
  00013	b9 36 00 00 00	 mov	 ecx, 54			; 00000036H
  00018	b8 cc cc cc cc	 mov	 eax, -858993460		; ccccccccH
  0001d	f3 ab		 rep stosd
  0001f	59		 pop	 ecx
  00020	89 4d f8	 mov	 DWORD PTR _this$[ebp], ecx
  00023	b9 00 00 00 00	 mov	 ecx, OFFSET __C564DC25_xstring
  00028	e8 00 00 00 00	 call	 @__CheckForDebuggerJustMyCode@4

; 3527 :                 _Traits::copy(_New_ptr, _Old_ptr, _Old_size);

  0002d	8b 45 10	 mov	 eax, DWORD PTR __Old_size$[ebp]
  00030	50		 push	 eax
  00031	8b 4d 0c	 mov	 ecx, DWORD PTR __Old_ptr$[ebp]
  00034	51		 push	 ecx
  00035	8b 55 08	 mov	 edx, DWORD PTR __New_ptr$[ebp]
  00038	52		 push	 edx
  00039	e8 00 00 00 00	 call	 ?copy@?$_Narrow_char_traits@DH@std@@SAPADQADQBDI@Z ; std::_Narrow_char_traits<char,int>::copy
  0003e	83 c4 0c	 add	 esp, 12			; 0000000cH

; 3528 :                 _Traits::assign(_New_ptr[_Old_size], _Ch);

  00041	8d 45 14	 lea	 eax, DWORD PTR __Ch$[ebp]
  00044	50		 push	 eax
  00045	8b 4d 08	 mov	 ecx, DWORD PTR __New_ptr$[ebp]
  00048	03 4d 10	 add	 ecx, DWORD PTR __Old_size$[ebp]
  0004b	51		 push	 ecx
  0004c	e8 00 00 00 00	 call	 ?assign@?$_Narrow_char_traits@DH@std@@SAXAADABD@Z ; std::_Narrow_char_traits<char,int>::assign
  00051	83 c4 08	 add	 esp, 8

; 3529 :                 _Traits::assign(_New_ptr[_Old_size + 1], _Elem());

  00054	c6 85 2f ff ff
	ff 00		 mov	 BYTE PTR $T1[ebp], 0
  0005b	8d 85 2f ff ff
	ff		 lea	 eax, DWORD PTR $T1[ebp]
  00061	50		 push	 eax
  00062	8b 4d 10	 mov	 ecx, DWORD PTR __Old_size$[ebp]
  00065	8b 55 08	 mov	 edx, DWORD PTR __New_ptr$[ebp]
  00068	8d 44 0a 01	 lea	 eax, DWORD PTR [edx+ecx+1]
  0006c	50		 push	 eax
  0006d	e8 00 00 00 00	 call	 ?assign@?$_Narrow_char_traits@DH@std@@SAXAADABD@Z ; std::_Narrow_char_traits<char,int>::assign
  00072	83 c4 08	 add	 esp, 8

; 3530 :             },

  00075	5f		 pop	 edi
  00076	5e		 pop	 esi
  00077	5b		 pop	 ebx
  00078	81 c4 d8 00 00
	00		 add	 esp, 216		; 000000d8H
  0007e	3b ec		 cmp	 ebp, esp
  00080	e8 00 00 00 00	 call	 __RTC_CheckEsp
  00085	8b e5		 mov	 esp, ebp
  00087	5d		 pop	 ebp
  00088	c2 10 00	 ret	 16			; 00000010H
??R<lambda_15711c68e099a15a58f4d77303cb286d>@@QBEXQADQBDID@Z ENDP ; <lambda_15711c68e099a15a58f4d77303cb286d>::operator()
_TEXT	ENDS
; Function compile flags: /Odtp /RTCsu /ZI
; File C:\Program Files (x86)\Microsoft Visual Studio\2019\Community\VC\Tools\MSVC\14.24.28314\include\utility
;	COMDAT ??$_Max_value@I@std@@YAABIABI0@Z
_TEXT	SEGMENT
tv65 = -220						; size = 4
$T2 = -212						; size = 4
__$EHRec$ = -12						; size = 12
__Left$ = 8						; size = 4
__Right$ = 12						; size = 4
??$_Max_value@I@std@@YAABIABI0@Z PROC			; std::_Max_value<unsigned int>, COMDAT

; 36   :     const _Ty& _Left, const _Ty& _Right) noexcept(noexcept(_Left < _Right)) {

  00000	55		 push	 ebp
  00001	8b ec		 mov	 ebp, esp
  00003	6a ff		 push	 -1
  00005	68 00 00 00 00	 push	 __ehhandler$??$_Max_value@I@std@@YAABIABI0@Z
  0000a	64 a1 00 00 00
	00		 mov	 eax, DWORD PTR fs:0
  00010	50		 push	 eax
  00011	81 ec d0 00 00
	00		 sub	 esp, 208		; 000000d0H
  00017	53		 push	 ebx
  00018	56		 push	 esi
  00019	57		 push	 edi
  0001a	8d bd 24 ff ff
	ff		 lea	 edi, DWORD PTR [ebp-220]
  00020	b9 34 00 00 00	 mov	 ecx, 52			; 00000034H
  00025	b8 cc cc cc cc	 mov	 eax, -858993460		; ccccccccH
  0002a	f3 ab		 rep stosd
  0002c	a1 00 00 00 00	 mov	 eax, DWORD PTR ___security_cookie
  00031	33 c5		 xor	 eax, ebp
  00033	50		 push	 eax
  00034	8d 45 f4	 lea	 eax, DWORD PTR __$EHRec$[ebp]
  00037	64 a3 00 00 00
	00		 mov	 DWORD PTR fs:0, eax
  0003d	b9 00 00 00 00	 mov	 ecx, OFFSET __DB22397A_utility
  00042	e8 00 00 00 00	 call	 @__CheckForDebuggerJustMyCode@4

; 37   :     return _Left < _Right ? _Right : _Left;

  00047	8b 45 08	 mov	 eax, DWORD PTR __Left$[ebp]
  0004a	8b 4d 0c	 mov	 ecx, DWORD PTR __Right$[ebp]
  0004d	8b 10		 mov	 edx, DWORD PTR [eax]
  0004f	3b 11		 cmp	 edx, DWORD PTR [ecx]
  00051	73 0b		 jae	 SHORT $LN3@Max_value
  00053	8b 45 0c	 mov	 eax, DWORD PTR __Right$[ebp]
  00056	89 85 24 ff ff
	ff		 mov	 DWORD PTR tv65[ebp], eax
  0005c	eb 09		 jmp	 SHORT $LN4@Max_value
$LN3@Max_value:
  0005e	8b 4d 08	 mov	 ecx, DWORD PTR __Left$[ebp]
  00061	89 8d 24 ff ff
	ff		 mov	 DWORD PTR tv65[ebp], ecx
$LN4@Max_value:
  00067	8b 95 24 ff ff
	ff		 mov	 edx, DWORD PTR tv65[ebp]
  0006d	89 95 2c ff ff
	ff		 mov	 DWORD PTR $T2[ebp], edx
  00073	8b 85 2c ff ff
	ff		 mov	 eax, DWORD PTR $T2[ebp]

; 38   : }

  00079	8b 4d f4	 mov	 ecx, DWORD PTR __$EHRec$[ebp]
  0007c	64 89 0d 00 00
	00 00		 mov	 DWORD PTR fs:0, ecx
  00083	59		 pop	 ecx
  00084	5f		 pop	 edi
  00085	5e		 pop	 esi
  00086	5b		 pop	 ebx
  00087	81 c4 dc 00 00
	00		 add	 esp, 220		; 000000dcH
  0008d	3b ec		 cmp	 ebp, esp
  0008f	e8 00 00 00 00	 call	 __RTC_CheckEsp
  00094	8b e5		 mov	 esp, ebp
  00096	5d		 pop	 ebp
  00097	c3		 ret	 0
_TEXT	ENDS
;	COMDAT text$x
text$x	SEGMENT
__ehhandler$??$_Max_value@I@std@@YAABIABI0@Z:
  00000	8b 54 24 08	 mov	 edx, DWORD PTR [esp+8]
  00004	8d 42 0c	 lea	 eax, DWORD PTR [edx+12]
  00007	8b 8a 20 ff ff
	ff		 mov	 ecx, DWORD PTR [edx-224]
  0000d	33 c8		 xor	 ecx, eax
  0000f	e8 00 00 00 00	 call	 @__security_check_cookie@4
  00014	b8 00 00 00 00	 mov	 eax, OFFSET __ehfuncinfo$??$_Max_value@I@std@@YAABIABI0@Z
  00019	e9 00 00 00 00	 jmp	 ___CxxFrameHandler3
text$x	ENDS
??$_Max_value@I@std@@YAABIABI0@Z ENDP			; std::_Max_value<unsigned int>
; Function compile flags: /Odtp /RTCsu /ZI
; File C:\Program Files (x86)\Microsoft Visual Studio\2019\Community\VC\Tools\MSVC\14.24.28314\include\xmemory
;	COMDAT ??$_Destroy_in_place@PAD@std@@YAXAAPAD@Z
_TEXT	SEGMENT
__$EHRec$ = -12						; size = 12
__Obj$ = 8						; size = 4
??$_Destroy_in_place@PAD@std@@YAXAAPAD@Z PROC		; std::_Destroy_in_place<char *>, COMDAT

; 241  : void _Destroy_in_place(_Ty& _Obj) noexcept {

  00000	55		 push	 ebp
  00001	8b ec		 mov	 ebp, esp
  00003	6a ff		 push	 -1
  00005	68 00 00 00 00	 push	 __ehhandler$??$_Destroy_in_place@PAD@std@@YAXAAPAD@Z
  0000a	64 a1 00 00 00
	00		 mov	 eax, DWORD PTR fs:0
  00010	50		 push	 eax
  00011	81 ec c0 00 00
	00		 sub	 esp, 192		; 000000c0H
  00017	53		 push	 ebx
  00018	56		 push	 esi
  00019	57		 push	 edi
  0001a	8d bd 34 ff ff
	ff		 lea	 edi, DWORD PTR [ebp-204]
  00020	b9 30 00 00 00	 mov	 ecx, 48			; 00000030H
  00025	b8 cc cc cc cc	 mov	 eax, -858993460		; ccccccccH
  0002a	f3 ab		 rep stosd
  0002c	a1 00 00 00 00	 mov	 eax, DWORD PTR ___security_cookie
  00031	33 c5		 xor	 eax, ebp
  00033	50		 push	 eax
  00034	8d 45 f4	 lea	 eax, DWORD PTR __$EHRec$[ebp]
  00037	64 a3 00 00 00
	00		 mov	 DWORD PTR fs:0, eax
  0003d	b9 00 00 00 00	 mov	 ecx, OFFSET __B1B75AB9_xmemory
  00042	e8 00 00 00 00	 call	 @__CheckForDebuggerJustMyCode@4

; 242  :     _Obj.~_Ty();
; 243  : }

  00047	8b 4d f4	 mov	 ecx, DWORD PTR __$EHRec$[ebp]
  0004a	64 89 0d 00 00
	00 00		 mov	 DWORD PTR fs:0, ecx
  00051	59		 pop	 ecx
  00052	5f		 pop	 edi
  00053	5e		 pop	 esi
  00054	5b		 pop	 ebx
  00055	81 c4 cc 00 00
	00		 add	 esp, 204		; 000000ccH
  0005b	3b ec		 cmp	 ebp, esp
  0005d	e8 00 00 00 00	 call	 __RTC_CheckEsp
  00062	8b e5		 mov	 esp, ebp
  00064	5d		 pop	 ebp
  00065	c3		 ret	 0
_TEXT	ENDS
;	COMDAT text$x
text$x	SEGMENT
__ehhandler$??$_Destroy_in_place@PAD@std@@YAXAAPAD@Z:
  00000	8b 54 24 08	 mov	 edx, DWORD PTR [esp+8]
  00004	8d 42 0c	 lea	 eax, DWORD PTR [edx+12]
  00007	8b 8a 30 ff ff
	ff		 mov	 ecx, DWORD PTR [edx-208]
  0000d	33 c8		 xor	 ecx, eax
  0000f	e8 00 00 00 00	 call	 @__security_check_cookie@4
  00014	b8 00 00 00 00	 mov	 eax, OFFSET __ehfuncinfo$??$_Destroy_in_place@PAD@std@@YAXAAPAD@Z
  00019	e9 00 00 00 00	 jmp	 ___CxxFrameHandler3
text$x	ENDS
??$_Destroy_in_place@PAD@std@@YAXAAPAD@Z ENDP		; std::_Destroy_in_place<char *>
; Function compile flags: /Odtp /RTCsu /ZI
; File C:\Program Files (x86)\Microsoft Visual Studio\2019\Community\VC\Tools\MSVC\14.24.28314\include\xstddef
;	COMDAT ??$addressof@D@std@@YAPADAAD@Z
_TEXT	SEGMENT
__$EHRec$ = -12						; size = 12
__Val$ = 8						; size = 4
??$addressof@D@std@@YAPADAAD@Z PROC			; std::addressof<char>, COMDAT

; 274  : _NODISCARD constexpr _Ty* addressof(_Ty& _Val) noexcept {

  00000	55		 push	 ebp
  00001	8b ec		 mov	 ebp, esp
  00003	6a ff		 push	 -1
  00005	68 00 00 00 00	 push	 __ehhandler$??$addressof@D@std@@YAPADAAD@Z
  0000a	64 a1 00 00 00
	00		 mov	 eax, DWORD PTR fs:0
  00010	50		 push	 eax
  00011	81 ec c0 00 00
	00		 sub	 esp, 192		; 000000c0H
  00017	53		 push	 ebx
  00018	56		 push	 esi
  00019	57		 push	 edi
  0001a	8d bd 34 ff ff
	ff		 lea	 edi, DWORD PTR [ebp-204]
  00020	b9 30 00 00 00	 mov	 ecx, 48			; 00000030H
  00025	b8 cc cc cc cc	 mov	 eax, -858993460		; ccccccccH
  0002a	f3 ab		 rep stosd
  0002c	a1 00 00 00 00	 mov	 eax, DWORD PTR ___security_cookie
  00031	33 c5		 xor	 eax, ebp
  00033	50		 push	 eax
  00034	8d 45 f4	 lea	 eax, DWORD PTR __$EHRec$[ebp]
  00037	64 a3 00 00 00
	00		 mov	 DWORD PTR fs:0, eax
  0003d	b9 00 00 00 00	 mov	 ecx, OFFSET __2C3DAE68_xstddef
  00042	e8 00 00 00 00	 call	 @__CheckForDebuggerJustMyCode@4

; 275  :     return __builtin_addressof(_Val);

  00047	8b 45 08	 mov	 eax, DWORD PTR __Val$[ebp]

; 276  : }

  0004a	8b 4d f4	 mov	 ecx, DWORD PTR __$EHRec$[ebp]
  0004d	64 89 0d 00 00
	00 00		 mov	 DWORD PTR fs:0, ecx
  00054	59		 pop	 ecx
  00055	5f		 pop	 edi
  00056	5e		 pop	 esi
  00057	5b		 pop	 ebx
  00058	81 c4 cc 00 00
	00		 add	 esp, 204		; 000000ccH
  0005e	3b ec		 cmp	 ebp, esp
  00060	e8 00 00 00 00	 call	 __RTC_CheckEsp
  00065	8b e5		 mov	 esp, ebp
  00067	5d		 pop	 ebp
  00068	c3		 ret	 0
_TEXT	ENDS
;	COMDAT text$x
text$x	SEGMENT
__ehhandler$??$addressof@D@std@@YAPADAAD@Z:
  00000	8b 54 24 08	 mov	 edx, DWORD PTR [esp+8]
  00004	8d 42 0c	 lea	 eax, DWORD PTR [edx+12]
  00007	8b 8a 30 ff ff
	ff		 mov	 ecx, DWORD PTR [edx-208]
  0000d	33 c8		 xor	 ecx, eax
  0000f	e8 00 00 00 00	 call	 @__security_check_cookie@4
  00014	b8 00 00 00 00	 mov	 eax, OFFSET __ehfuncinfo$??$addressof@D@std@@YAPADAAD@Z
  00019	e9 00 00 00 00	 jmp	 ___CxxFrameHandler3
text$x	ENDS
??$addressof@D@std@@YAPADAAD@Z ENDP			; std::addressof<char>
; Function compile flags: /Odtp /RTCsu /ZI
; File C:\Program Files (x86)\Microsoft Visual Studio\2019\Community\VC\Tools\MSVC\14.24.28314\include\xstddef
;	COMDAT ??$_Unfancy@U_Container_proxy@std@@@std@@YAPAU_Container_proxy@0@PAU10@@Z
_TEXT	SEGMENT
__$EHRec$ = -12						; size = 12
__Ptr$ = 8						; size = 4
??$_Unfancy@U_Container_proxy@std@@@std@@YAPAU_Container_proxy@0@PAU10@@Z PROC ; std::_Unfancy<std::_Container_proxy>, COMDAT

; 288  : _NODISCARD constexpr _Ty* _Unfancy(_Ty* _Ptr) noexcept { // do nothing for plain pointers

  00000	55		 push	 ebp
  00001	8b ec		 mov	 ebp, esp
  00003	6a ff		 push	 -1
  00005	68 00 00 00 00	 push	 __ehhandler$??$_Unfancy@U_Container_proxy@std@@@std@@YAPAU_Container_proxy@0@PAU10@@Z
  0000a	64 a1 00 00 00
	00		 mov	 eax, DWORD PTR fs:0
  00010	50		 push	 eax
  00011	81 ec c0 00 00
	00		 sub	 esp, 192		; 000000c0H
  00017	53		 push	 ebx
  00018	56		 push	 esi
  00019	57		 push	 edi
  0001a	8d bd 34 ff ff
	ff		 lea	 edi, DWORD PTR [ebp-204]
  00020	b9 30 00 00 00	 mov	 ecx, 48			; 00000030H
  00025	b8 cc cc cc cc	 mov	 eax, -858993460		; ccccccccH
  0002a	f3 ab		 rep stosd
  0002c	a1 00 00 00 00	 mov	 eax, DWORD PTR ___security_cookie
  00031	33 c5		 xor	 eax, ebp
  00033	50		 push	 eax
  00034	8d 45 f4	 lea	 eax, DWORD PTR __$EHRec$[ebp]
  00037	64 a3 00 00 00
	00		 mov	 DWORD PTR fs:0, eax
  0003d	b9 00 00 00 00	 mov	 ecx, OFFSET __2C3DAE68_xstddef
  00042	e8 00 00 00 00	 call	 @__CheckForDebuggerJustMyCode@4

; 289  :     return _Ptr;

  00047	8b 45 08	 mov	 eax, DWORD PTR __Ptr$[ebp]

; 290  : }

  0004a	8b 4d f4	 mov	 ecx, DWORD PTR __$EHRec$[ebp]
  0004d	64 89 0d 00 00
	00 00		 mov	 DWORD PTR fs:0, ecx
  00054	59		 pop	 ecx
  00055	5f		 pop	 edi
  00056	5e		 pop	 esi
  00057	5b		 pop	 ebx
  00058	81 c4 cc 00 00
	00		 add	 esp, 204		; 000000ccH
  0005e	3b ec		 cmp	 ebp, esp
  00060	e8 00 00 00 00	 call	 __RTC_CheckEsp
  00065	8b e5		 mov	 esp, ebp
  00067	5d		 pop	 ebp
  00068	c3		 ret	 0
_TEXT	ENDS
;	COMDAT text$x
text$x	SEGMENT
__ehhandler$??$_Unfancy@U_Container_proxy@std@@@std@@YAPAU_Container_proxy@0@PAU10@@Z:
  00000	8b 54 24 08	 mov	 edx, DWORD PTR [esp+8]
  00004	8d 42 0c	 lea	 eax, DWORD PTR [edx+12]
  00007	8b 8a 30 ff ff
	ff		 mov	 ecx, DWORD PTR [edx-208]
  0000d	33 c8		 xor	 ecx, eax
  0000f	e8 00 00 00 00	 call	 @__security_check_cookie@4
  00014	b8 00 00 00 00	 mov	 eax, OFFSET __ehfuncinfo$??$_Unfancy@U_Container_proxy@std@@@std@@YAPAU_Container_proxy@0@PAU10@@Z
  00019	e9 00 00 00 00	 jmp	 ___CxxFrameHandler3
text$x	ENDS
??$_Unfancy@U_Container_proxy@std@@@std@@YAPAU_Container_proxy@0@PAU10@@Z ENDP ; std::_Unfancy<std::_Container_proxy>
; Function compile flags: /Odtp /RTCsu /ZI
; File C:\Program Files (x86)\Microsoft Visual Studio\2019\Community\VC\Tools\MSVC\14.24.28314\include\xmemory
;	COMDAT ??$?0$$V@?$_Compressed_pair@V?$allocator@D@std@@V?$_String_val@U?$_Simple_types@D@std@@@2@$00@std@@QAE@U_Zero_then_variadic_args_t@1@@Z
_TEXT	SEGMENT
_this$ = -8						; size = 4
___formal$ = 8						; size = 1
??$?0$$V@?$_Compressed_pair@V?$allocator@D@std@@V?$_String_val@U?$_Simple_types@D@std@@@2@$00@std@@QAE@U_Zero_then_variadic_args_t@1@@Z PROC ; std::_Compressed_pair<std::allocator<char>,std::_String_val<std::_Simple_types<char> >,1>::_Compressed_pair<std::allocator<char>,std::_String_val<std::_Simple_types<char> >,1><>, COMDAT
; _this$ = ecx

; 1328 :         : _Ty1(), _Myval2(_STD forward<_Other2>(_Val2)...) {}

  00000	55		 push	 ebp
  00001	8b ec		 mov	 ebp, esp
  00003	81 ec cc 00 00
	00		 sub	 esp, 204		; 000000ccH
  00009	53		 push	 ebx
  0000a	56		 push	 esi
  0000b	57		 push	 edi
  0000c	51		 push	 ecx
  0000d	8d bd 34 ff ff
	ff		 lea	 edi, DWORD PTR [ebp-204]
  00013	b9 33 00 00 00	 mov	 ecx, 51			; 00000033H
  00018	b8 cc cc cc cc	 mov	 eax, -858993460		; ccccccccH
  0001d	f3 ab		 rep stosd
  0001f	59		 pop	 ecx
  00020	89 4d f8	 mov	 DWORD PTR _this$[ebp], ecx
  00023	b9 00 00 00 00	 mov	 ecx, OFFSET __B1B75AB9_xmemory
  00028	e8 00 00 00 00	 call	 @__CheckForDebuggerJustMyCode@4
  0002d	8b 4d f8	 mov	 ecx, DWORD PTR _this$[ebp]
  00030	e8 00 00 00 00	 call	 ??0?$allocator@D@std@@QAE@XZ ; std::allocator<char>::allocator<char>
  00035	8b 4d f8	 mov	 ecx, DWORD PTR _this$[ebp]
  00038	e8 00 00 00 00	 call	 ??0?$_String_val@U?$_Simple_types@D@std@@@std@@QAE@XZ ; std::_String_val<std::_Simple_types<char> >::_String_val<std::_Simple_types<char> >
  0003d	8b 45 f8	 mov	 eax, DWORD PTR _this$[ebp]
  00040	5f		 pop	 edi
  00041	5e		 pop	 esi
  00042	5b		 pop	 ebx
  00043	81 c4 cc 00 00
	00		 add	 esp, 204		; 000000ccH
  00049	3b ec		 cmp	 ebp, esp
  0004b	e8 00 00 00 00	 call	 __RTC_CheckEsp
  00050	8b e5		 mov	 esp, ebp
  00052	5d		 pop	 ebp
  00053	c2 04 00	 ret	 4
??$?0$$V@?$_Compressed_pair@V?$allocator@D@std@@V?$_String_val@U?$_Simple_types@D@std@@@2@$00@std@@QAE@U_Zero_then_variadic_args_t@1@@Z ENDP ; std::_Compressed_pair<std::allocator<char>,std::_String_val<std::_Simple_types<char> >,1>::_Compressed_pair<std::allocator<char>,std::_String_val<std::_Simple_types<char> >,1><>
_TEXT	ENDS
; Function compile flags: /Odtp /RTCsu /ZI
; File C:\Program Files (x86)\Microsoft Visual Studio\2019\Community\VC\Tools\MSVC\14.24.28314\include\xmemory
;	COMDAT ??$?0D@?$allocator@U_Container_proxy@std@@@std@@QAE@ABV?$allocator@D@1@@Z
_TEXT	SEGMENT
_this$ = -20						; size = 4
__$EHRec$ = -12						; size = 12
___formal$ = 8						; size = 4
??$?0D@?$allocator@U_Container_proxy@std@@@std@@QAE@ABV?$allocator@D@1@@Z PROC ; std::allocator<std::_Container_proxy>::allocator<std::_Container_proxy><char>, COMDAT
; _this$ = ecx

; 776  :     constexpr allocator(const allocator<_Other>&) noexcept {}

  00000	55		 push	 ebp
  00001	8b ec		 mov	 ebp, esp
  00003	6a ff		 push	 -1
  00005	68 00 00 00 00	 push	 __ehhandler$??$?0D@?$allocator@U_Container_proxy@std@@@std@@QAE@ABV?$allocator@D@1@@Z
  0000a	64 a1 00 00 00
	00		 mov	 eax, DWORD PTR fs:0
  00010	50		 push	 eax
  00011	81 ec cc 00 00
	00		 sub	 esp, 204		; 000000ccH
  00017	53		 push	 ebx
  00018	56		 push	 esi
  00019	57		 push	 edi
  0001a	51		 push	 ecx
  0001b	8d bd 28 ff ff
	ff		 lea	 edi, DWORD PTR [ebp-216]
  00021	b9 33 00 00 00	 mov	 ecx, 51			; 00000033H
  00026	b8 cc cc cc cc	 mov	 eax, -858993460		; ccccccccH
  0002b	f3 ab		 rep stosd
  0002d	59		 pop	 ecx
  0002e	a1 00 00 00 00	 mov	 eax, DWORD PTR ___security_cookie
  00033	33 c5		 xor	 eax, ebp
  00035	50		 push	 eax
  00036	8d 45 f4	 lea	 eax, DWORD PTR __$EHRec$[ebp]
  00039	64 a3 00 00 00
	00		 mov	 DWORD PTR fs:0, eax
  0003f	89 4d ec	 mov	 DWORD PTR _this$[ebp], ecx
  00042	b9 00 00 00 00	 mov	 ecx, OFFSET __B1B75AB9_xmemory
  00047	e8 00 00 00 00	 call	 @__CheckForDebuggerJustMyCode@4
  0004c	8b 45 ec	 mov	 eax, DWORD PTR _this$[ebp]
  0004f	8b 4d f4	 mov	 ecx, DWORD PTR __$EHRec$[ebp]
  00052	64 89 0d 00 00
	00 00		 mov	 DWORD PTR fs:0, ecx
  00059	59		 pop	 ecx
  0005a	5f		 pop	 edi
  0005b	5e		 pop	 esi
  0005c	5b		 pop	 ebx
  0005d	81 c4 d8 00 00
	00		 add	 esp, 216		; 000000d8H
  00063	3b ec		 cmp	 ebp, esp
  00065	e8 00 00 00 00	 call	 __RTC_CheckEsp
  0006a	8b e5		 mov	 esp, ebp
  0006c	5d		 pop	 ebp
  0006d	c2 04 00	 ret	 4
_TEXT	ENDS
;	COMDAT text$x
text$x	SEGMENT
__ehhandler$??$?0D@?$allocator@U_Container_proxy@std@@@std@@QAE@ABV?$allocator@D@1@@Z:
  00000	8b 54 24 08	 mov	 edx, DWORD PTR [esp+8]
  00004	8d 42 0c	 lea	 eax, DWORD PTR [edx+12]
  00007	8b 8a 24 ff ff
	ff		 mov	 ecx, DWORD PTR [edx-220]
  0000d	33 c8		 xor	 ecx, eax
  0000f	e8 00 00 00 00	 call	 @__security_check_cookie@4
  00014	b8 00 00 00 00	 mov	 eax, OFFSET __ehfuncinfo$??$?0D@?$allocator@U_Container_proxy@std@@@std@@QAE@ABV?$allocator@D@1@@Z
  00019	e9 00 00 00 00	 jmp	 ___CxxFrameHandler3
text$x	ENDS
??$?0D@?$allocator@U_Container_proxy@std@@@std@@QAE@ABV?$allocator@D@1@@Z ENDP ; std::allocator<std::_Container_proxy>::allocator<std::_Container_proxy><char>
; Function compile flags: /Odtp /RTCsu /ZI
; File C:\Program Files (x86)\Microsoft Visual Studio\2019\Community\VC\Tools\MSVC\14.24.28314\include\xmemory
;	COMDAT ??$_Alloc_proxy@V?$allocator@U_Container_proxy@std@@@std@@@_Container_base12@std@@QAEX$$QAV?$allocator@U_Container_proxy@std@@@1@@Z
_TEXT	SEGMENT
$T1 = -224						; size = 4
__New_proxy$ = -20					; size = 4
_this$ = -8						; size = 4
__Al$ = 8						; size = 4
??$_Alloc_proxy@V?$allocator@U_Container_proxy@std@@@std@@@_Container_base12@std@@QAEX$$QAV?$allocator@U_Container_proxy@std@@@1@@Z PROC ; std::_Container_base12::_Alloc_proxy<std::allocator<std::_Container_proxy> >, COMDAT
; _this$ = ecx

; 1097 :     void _Alloc_proxy(_Alloc&& _Al) {

  00000	55		 push	 ebp
  00001	8b ec		 mov	 ebp, esp
  00003	81 ec e4 00 00
	00		 sub	 esp, 228		; 000000e4H
  00009	53		 push	 ebx
  0000a	56		 push	 esi
  0000b	57		 push	 edi
  0000c	51		 push	 ecx
  0000d	8d bd 1c ff ff
	ff		 lea	 edi, DWORD PTR [ebp-228]
  00013	b9 39 00 00 00	 mov	 ecx, 57			; 00000039H
  00018	b8 cc cc cc cc	 mov	 eax, -858993460		; ccccccccH
  0001d	f3 ab		 rep stosd
  0001f	59		 pop	 ecx
  00020	89 4d f8	 mov	 DWORD PTR _this$[ebp], ecx
  00023	b9 00 00 00 00	 mov	 ecx, OFFSET __B1B75AB9_xmemory
  00028	e8 00 00 00 00	 call	 @__CheckForDebuggerJustMyCode@4

; 1098 :         _Container_proxy* const _New_proxy = _Unfancy(_Al.allocate(1));

  0002d	6a 01		 push	 1
  0002f	8b 4d 08	 mov	 ecx, DWORD PTR __Al$[ebp]
  00032	e8 00 00 00 00	 call	 ?allocate@?$allocator@U_Container_proxy@std@@@std@@QAEPAU_Container_proxy@2@I@Z ; std::allocator<std::_Container_proxy>::allocate
  00037	50		 push	 eax
  00038	e8 00 00 00 00	 call	 ??$_Unfancy@U_Container_proxy@std@@@std@@YAPAU_Container_proxy@0@PAU10@@Z ; std::_Unfancy<std::_Container_proxy>
  0003d	83 c4 04	 add	 esp, 4
  00040	89 45 ec	 mov	 DWORD PTR __New_proxy$[ebp], eax

; 1099 :         _Construct_in_place(*_New_proxy, this);

  00043	8b 45 f8	 mov	 eax, DWORD PTR _this$[ebp]
  00046	89 85 20 ff ff
	ff		 mov	 DWORD PTR $T1[ebp], eax
  0004c	8d 8d 20 ff ff
	ff		 lea	 ecx, DWORD PTR $T1[ebp]
  00052	51		 push	 ecx
  00053	8b 55 ec	 mov	 edx, DWORD PTR __New_proxy$[ebp]
  00056	52		 push	 edx
  00057	e8 00 00 00 00	 call	 ??$_Construct_in_place@U_Container_proxy@std@@PAU_Container_base12@2@@std@@YAXAAU_Container_proxy@0@$$QAPAU_Container_base12@0@@Z ; std::_Construct_in_place<std::_Container_proxy,std::_Container_base12 *>
  0005c	83 c4 08	 add	 esp, 8

; 1100 :         _Myproxy            = _New_proxy;

  0005f	8b 45 f8	 mov	 eax, DWORD PTR _this$[ebp]
  00062	8b 4d ec	 mov	 ecx, DWORD PTR __New_proxy$[ebp]
  00065	89 08		 mov	 DWORD PTR [eax], ecx

; 1101 :         _New_proxy->_Mycont = this;

  00067	8b 45 ec	 mov	 eax, DWORD PTR __New_proxy$[ebp]
  0006a	8b 4d f8	 mov	 ecx, DWORD PTR _this$[ebp]
  0006d	89 08		 mov	 DWORD PTR [eax], ecx

; 1102 :     }

  0006f	5f		 pop	 edi
  00070	5e		 pop	 esi
  00071	5b		 pop	 ebx
  00072	81 c4 e4 00 00
	00		 add	 esp, 228		; 000000e4H
  00078	3b ec		 cmp	 ebp, esp
  0007a	e8 00 00 00 00	 call	 __RTC_CheckEsp
  0007f	8b e5		 mov	 esp, ebp
  00081	5d		 pop	 ebp
  00082	c2 04 00	 ret	 4
??$_Alloc_proxy@V?$allocator@U_Container_proxy@std@@@std@@@_Container_base12@std@@QAEX$$QAV?$allocator@U_Container_proxy@std@@@1@@Z ENDP ; std::_Container_base12::_Alloc_proxy<std::allocator<std::_Container_proxy> >
_TEXT	ENDS
; Function compile flags: /Odtp /RTCsu /ZI
; File C:\Program Files (x86)\Microsoft Visual Studio\2019\Community\VC\Tools\MSVC\14.24.28314\include\xmemory
;	COMDAT ??$_Delete_plain_internal@V?$allocator@U_Container_proxy@std@@@std@@@std@@YAXAAV?$allocator@U_Container_proxy@std@@@0@QAU_Container_proxy@0@@Z
_TEXT	SEGMENT
__$EHRec$ = -12						; size = 12
__Al$ = 8						; size = 4
__Ptr$ = 12						; size = 4
??$_Delete_plain_internal@V?$allocator@U_Container_proxy@std@@@std@@@std@@YAXAAV?$allocator@U_Container_proxy@std@@@0@QAU_Container_proxy@0@@Z PROC ; std::_Delete_plain_internal<std::allocator<std::_Container_proxy> >, COMDAT

; 1022 : void _Delete_plain_internal(_Alloc& _Al, typename _Alloc::value_type* const _Ptr) noexcept {

  00000	55		 push	 ebp
  00001	8b ec		 mov	 ebp, esp
  00003	6a ff		 push	 -1
  00005	68 00 00 00 00	 push	 __ehhandler$??$_Delete_plain_internal@V?$allocator@U_Container_proxy@std@@@std@@@std@@YAXAAV?$allocator@U_Container_proxy@std@@@0@QAU_Container_proxy@0@@Z
  0000a	64 a1 00 00 00
	00		 mov	 eax, DWORD PTR fs:0
  00010	50		 push	 eax
  00011	81 ec c0 00 00
	00		 sub	 esp, 192		; 000000c0H
  00017	53		 push	 ebx
  00018	56		 push	 esi
  00019	57		 push	 edi
  0001a	8d bd 34 ff ff
	ff		 lea	 edi, DWORD PTR [ebp-204]
  00020	b9 30 00 00 00	 mov	 ecx, 48			; 00000030H
  00025	b8 cc cc cc cc	 mov	 eax, -858993460		; ccccccccH
  0002a	f3 ab		 rep stosd
  0002c	a1 00 00 00 00	 mov	 eax, DWORD PTR ___security_cookie
  00031	33 c5		 xor	 eax, ebp
  00033	50		 push	 eax
  00034	8d 45 f4	 lea	 eax, DWORD PTR __$EHRec$[ebp]
  00037	64 a3 00 00 00
	00		 mov	 DWORD PTR fs:0, eax
  0003d	b9 00 00 00 00	 mov	 ecx, OFFSET __B1B75AB9_xmemory
  00042	e8 00 00 00 00	 call	 @__CheckForDebuggerJustMyCode@4

; 1023 :     // destroy *_Ptr in place, then deallocate _Ptr using _Al; used for internal container types the user didn't name
; 1024 :     using _Ty = typename _Alloc::value_type;
; 1025 :     _Ptr->~_Ty();
; 1026 :     _Deallocate_plain(_Al, _Ptr);

  00047	8b 45 0c	 mov	 eax, DWORD PTR __Ptr$[ebp]
  0004a	50		 push	 eax
  0004b	8b 4d 08	 mov	 ecx, DWORD PTR __Al$[ebp]
  0004e	51		 push	 ecx
  0004f	e8 00 00 00 00	 call	 ??$_Deallocate_plain@V?$allocator@U_Container_proxy@std@@@std@@@std@@YAXAAV?$allocator@U_Container_proxy@std@@@0@QAU_Container_proxy@0@@Z ; std::_Deallocate_plain<std::allocator<std::_Container_proxy> >
  00054	83 c4 08	 add	 esp, 8

; 1027 : }

  00057	8b 4d f4	 mov	 ecx, DWORD PTR __$EHRec$[ebp]
  0005a	64 89 0d 00 00
	00 00		 mov	 DWORD PTR fs:0, ecx
  00061	59		 pop	 ecx
  00062	5f		 pop	 edi
  00063	5e		 pop	 esi
  00064	5b		 pop	 ebx
  00065	81 c4 cc 00 00
	00		 add	 esp, 204		; 000000ccH
  0006b	3b ec		 cmp	 ebp, esp
  0006d	e8 00 00 00 00	 call	 __RTC_CheckEsp
  00072	8b e5		 mov	 esp, ebp
  00074	5d		 pop	 ebp
  00075	c3		 ret	 0
_TEXT	ENDS
;	COMDAT text$x
text$x	SEGMENT
__ehhandler$??$_Delete_plain_internal@V?$allocator@U_Container_proxy@std@@@std@@@std@@YAXAAV?$allocator@U_Container_proxy@std@@@0@QAU_Container_proxy@0@@Z:
  00000	8b 54 24 08	 mov	 edx, DWORD PTR [esp+8]
  00004	8d 42 0c	 lea	 eax, DWORD PTR [edx+12]
  00007	8b 8a 30 ff ff
	ff		 mov	 ecx, DWORD PTR [edx-208]
  0000d	33 c8		 xor	 ecx, eax
  0000f	e8 00 00 00 00	 call	 @__security_check_cookie@4
  00014	b8 00 00 00 00	 mov	 eax, OFFSET __ehfuncinfo$??$_Delete_plain_internal@V?$allocator@U_Container_proxy@std@@@std@@@std@@YAXAAV?$allocator@U_Container_proxy@std@@@0@QAU_Container_proxy@0@@Z
  00019	e9 00 00 00 00	 jmp	 ___CxxFrameHandler3
text$x	ENDS
??$_Delete_plain_internal@V?$allocator@U_Container_proxy@std@@@std@@@std@@YAXAAV?$allocator@U_Container_proxy@std@@@0@QAU_Container_proxy@0@@Z ENDP ; std::_Delete_plain_internal<std::allocator<std::_Container_proxy> >
; Function compile flags: /Odtp /RTCsu /ZI
; File C:\Program Files (x86)\Microsoft Visual Studio\2019\Community\VC\Tools\MSVC\14.24.28314\include\xmemory
;	COMDAT ?allocate@?$allocator@U_Container_proxy@std@@@std@@QAEPAU_Container_proxy@2@I@Z
_TEXT	SEGMENT
_this$ = -8						; size = 4
__Count$ = 8						; size = 4
?allocate@?$allocator@U_Container_proxy@std@@@std@@QAEPAU_Container_proxy@2@I@Z PROC ; std::allocator<std::_Container_proxy>::allocate, COMDAT
; _this$ = ecx

; 783  :     _NODISCARD _DECLSPEC_ALLOCATOR _Ty* allocate(_CRT_GUARDOVERFLOW const size_t _Count) {

  00000	55		 push	 ebp
  00001	8b ec		 mov	 ebp, esp
  00003	81 ec cc 00 00
	00		 sub	 esp, 204		; 000000ccH
  00009	53		 push	 ebx
  0000a	56		 push	 esi
  0000b	57		 push	 edi
  0000c	51		 push	 ecx
  0000d	8d bd 34 ff ff
	ff		 lea	 edi, DWORD PTR [ebp-204]
  00013	b9 33 00 00 00	 mov	 ecx, 51			; 00000033H
  00018	b8 cc cc cc cc	 mov	 eax, -858993460		; ccccccccH
  0001d	f3 ab		 rep stosd
  0001f	59		 pop	 ecx
  00020	89 4d f8	 mov	 DWORD PTR _this$[ebp], ecx
  00023	b9 00 00 00 00	 mov	 ecx, OFFSET __B1B75AB9_xmemory
  00028	e8 00 00 00 00	 call	 @__CheckForDebuggerJustMyCode@4

; 784  :         return static_cast<_Ty*>(_Allocate<_New_alignof<_Ty>>(_Get_size_of_n<sizeof(_Ty)>(_Count)));

  0002d	8b 45 08	 mov	 eax, DWORD PTR __Count$[ebp]
  00030	50		 push	 eax
  00031	e8 00 00 00 00	 call	 ??$_Get_size_of_n@$07@std@@YAII@Z ; std::_Get_size_of_n<8>
  00036	83 c4 04	 add	 esp, 4
  00039	50		 push	 eax
  0003a	e8 00 00 00 00	 call	 ??$_Allocate@$07U_Default_allocate_traits@std@@$0A@@std@@YAPAXI@Z ; std::_Allocate<8,std::_Default_allocate_traits,0>
  0003f	83 c4 04	 add	 esp, 4

; 785  :     }

  00042	5f		 pop	 edi
  00043	5e		 pop	 esi
  00044	5b		 pop	 ebx
  00045	81 c4 cc 00 00
	00		 add	 esp, 204		; 000000ccH
  0004b	3b ec		 cmp	 ebp, esp
  0004d	e8 00 00 00 00	 call	 __RTC_CheckEsp
  00052	8b e5		 mov	 esp, ebp
  00054	5d		 pop	 ebp
  00055	c2 04 00	 ret	 4
?allocate@?$allocator@U_Container_proxy@std@@@std@@QAEPAU_Container_proxy@2@I@Z ENDP ; std::allocator<std::_Container_proxy>::allocate
_TEXT	ENDS
; Function compile flags: /Odtp /RTCsu /ZI
; File C:\Program Files (x86)\Microsoft Visual Studio\2019\Community\VC\Tools\MSVC\14.24.28314\include\xstddef
;	COMDAT ??$addressof@V?$basic_stringbuf@DU?$char_traits@D@std@@V?$allocator@D@2@@std@@@std@@YAPAV?$basic_stringbuf@DU?$char_traits@D@std@@V?$allocator@D@2@@0@AAV10@@Z
_TEXT	SEGMENT
__$EHRec$ = -12						; size = 12
__Val$ = 8						; size = 4
??$addressof@V?$basic_stringbuf@DU?$char_traits@D@std@@V?$allocator@D@2@@std@@@std@@YAPAV?$basic_stringbuf@DU?$char_traits@D@std@@V?$allocator@D@2@@0@AAV10@@Z PROC ; std::addressof<std::basic_stringbuf<char,std::char_traits<char>,std::allocator<char> > >, COMDAT

; 274  : _NODISCARD constexpr _Ty* addressof(_Ty& _Val) noexcept {

  00000	55		 push	 ebp
  00001	8b ec		 mov	 ebp, esp
  00003	6a ff		 push	 -1
  00005	68 00 00 00 00	 push	 __ehhandler$??$addressof@V?$basic_stringbuf@DU?$char_traits@D@std@@V?$allocator@D@2@@std@@@std@@YAPAV?$basic_stringbuf@DU?$char_traits@D@std@@V?$allocator@D@2@@0@AAV10@@Z
  0000a	64 a1 00 00 00
	00		 mov	 eax, DWORD PTR fs:0
  00010	50		 push	 eax
  00011	81 ec c0 00 00
	00		 sub	 esp, 192		; 000000c0H
  00017	53		 push	 ebx
  00018	56		 push	 esi
  00019	57		 push	 edi
  0001a	8d bd 34 ff ff
	ff		 lea	 edi, DWORD PTR [ebp-204]
  00020	b9 30 00 00 00	 mov	 ecx, 48			; 00000030H
  00025	b8 cc cc cc cc	 mov	 eax, -858993460		; ccccccccH
  0002a	f3 ab		 rep stosd
  0002c	a1 00 00 00 00	 mov	 eax, DWORD PTR ___security_cookie
  00031	33 c5		 xor	 eax, ebp
  00033	50		 push	 eax
  00034	8d 45 f4	 lea	 eax, DWORD PTR __$EHRec$[ebp]
  00037	64 a3 00 00 00
	00		 mov	 DWORD PTR fs:0, eax
  0003d	b9 00 00 00 00	 mov	 ecx, OFFSET __2C3DAE68_xstddef
  00042	e8 00 00 00 00	 call	 @__CheckForDebuggerJustMyCode@4

; 275  :     return __builtin_addressof(_Val);

  00047	8b 45 08	 mov	 eax, DWORD PTR __Val$[ebp]

; 276  : }

  0004a	8b 4d f4	 mov	 ecx, DWORD PTR __$EHRec$[ebp]
  0004d	64 89 0d 00 00
	00 00		 mov	 DWORD PTR fs:0, ecx
  00054	59		 pop	 ecx
  00055	5f		 pop	 edi
  00056	5e		 pop	 esi
  00057	5b		 pop	 ebx
  00058	81 c4 cc 00 00
	00		 add	 esp, 204		; 000000ccH
  0005e	3b ec		 cmp	 ebp, esp
  00060	e8 00 00 00 00	 call	 __RTC_CheckEsp
  00065	8b e5		 mov	 esp, ebp
  00067	5d		 pop	 ebp
  00068	c3		 ret	 0
_TEXT	ENDS
;	COMDAT text$x
text$x	SEGMENT
__ehhandler$??$addressof@V?$basic_stringbuf@DU?$char_traits@D@std@@V?$allocator@D@2@@std@@@std@@YAPAV?$basic_stringbuf@DU?$char_traits@D@std@@V?$allocator@D@2@@0@AAV10@@Z:
  00000	8b 54 24 08	 mov	 edx, DWORD PTR [esp+8]
  00004	8d 42 0c	 lea	 eax, DWORD PTR [edx+12]
  00007	8b 8a 30 ff ff
	ff		 mov	 ecx, DWORD PTR [edx-208]
  0000d	33 c8		 xor	 ecx, eax
  0000f	e8 00 00 00 00	 call	 @__security_check_cookie@4
  00014	b8 00 00 00 00	 mov	 eax, OFFSET __ehfuncinfo$??$addressof@V?$basic_stringbuf@DU?$char_traits@D@std@@V?$allocator@D@2@@std@@@std@@YAPAV?$basic_stringbuf@DU?$char_traits@D@std@@V?$allocator@D@2@@0@AAV10@@Z
  00019	e9 00 00 00 00	 jmp	 ___CxxFrameHandler3
text$x	ENDS
??$addressof@V?$basic_stringbuf@DU?$char_traits@D@std@@V?$allocator@D@2@@std@@@std@@YAPAV?$basic_stringbuf@DU?$char_traits@D@std@@V?$allocator@D@2@@0@AAV10@@Z ENDP ; std::addressof<std::basic_stringbuf<char,std::char_traits<char>,std::allocator<char> > >
; Function compile flags: /Odtp /RTCsu /ZI
; File C:\Program Files (x86)\Microsoft Visual Studio\2019\Community\VC\Tools\MSVC\14.24.28314\include\xutility
;	COMDAT ?pointer_to@?$pointer_traits@PAD@std@@SAPADAAD@Z
_TEXT	SEGMENT
__$EHRec$ = -12						; size = 12
__Val$ = 8						; size = 4
?pointer_to@?$pointer_traits@PAD@std@@SAPADAAD@Z PROC	; std::pointer_traits<char *>::pointer_to, COMDAT

; 121  :     _NODISCARD static pointer pointer_to(_Reftype _Val) noexcept {

  00000	55		 push	 ebp
  00001	8b ec		 mov	 ebp, esp
  00003	6a ff		 push	 -1
  00005	68 00 00 00 00	 push	 __ehhandler$?pointer_to@?$pointer_traits@PAD@std@@SAPADAAD@Z
  0000a	64 a1 00 00 00
	00		 mov	 eax, DWORD PTR fs:0
  00010	50		 push	 eax
  00011	81 ec c0 00 00
	00		 sub	 esp, 192		; 000000c0H
  00017	53		 push	 ebx
  00018	56		 push	 esi
  00019	57		 push	 edi
  0001a	8d bd 34 ff ff
	ff		 lea	 edi, DWORD PTR [ebp-204]
  00020	b9 30 00 00 00	 mov	 ecx, 48			; 00000030H
  00025	b8 cc cc cc cc	 mov	 eax, -858993460		; ccccccccH
  0002a	f3 ab		 rep stosd
  0002c	a1 00 00 00 00	 mov	 eax, DWORD PTR ___security_cookie
  00031	33 c5		 xor	 eax, ebp
  00033	50		 push	 eax
  00034	8d 45 f4	 lea	 eax, DWORD PTR __$EHRec$[ebp]
  00037	64 a3 00 00 00
	00		 mov	 DWORD PTR fs:0, eax
  0003d	b9 00 00 00 00	 mov	 ecx, OFFSET __45864D8F_xutility
  00042	e8 00 00 00 00	 call	 @__CheckForDebuggerJustMyCode@4

; 122  :         return _STD addressof(_Val);

  00047	8b 45 08	 mov	 eax, DWORD PTR __Val$[ebp]
  0004a	50		 push	 eax
  0004b	e8 00 00 00 00	 call	 ??$addressof@D@std@@YAPADAAD@Z ; std::addressof<char>
  00050	83 c4 04	 add	 esp, 4

; 123  :     }

  00053	8b 4d f4	 mov	 ecx, DWORD PTR __$EHRec$[ebp]
  00056	64 89 0d 00 00
	00 00		 mov	 DWORD PTR fs:0, ecx
  0005d	59		 pop	 ecx
  0005e	5f		 pop	 edi
  0005f	5e		 pop	 esi
  00060	5b		 pop	 ebx
  00061	81 c4 cc 00 00
	00		 add	 esp, 204		; 000000ccH
  00067	3b ec		 cmp	 ebp, esp
  00069	e8 00 00 00 00	 call	 __RTC_CheckEsp
  0006e	8b e5		 mov	 esp, ebp
  00070	5d		 pop	 ebp
  00071	c3		 ret	 0
_TEXT	ENDS
;	COMDAT text$x
text$x	SEGMENT
__ehhandler$?pointer_to@?$pointer_traits@PAD@std@@SAPADAAD@Z:
  00000	8b 54 24 08	 mov	 edx, DWORD PTR [esp+8]
  00004	8d 42 0c	 lea	 eax, DWORD PTR [edx+12]
  00007	8b 8a 30 ff ff
	ff		 mov	 ecx, DWORD PTR [edx-208]
  0000d	33 c8		 xor	 ecx, eax
  0000f	e8 00 00 00 00	 call	 @__security_check_cookie@4
  00014	b8 00 00 00 00	 mov	 eax, OFFSET __ehfuncinfo$?pointer_to@?$pointer_traits@PAD@std@@SAPADAAD@Z
  00019	e9 00 00 00 00	 jmp	 ___CxxFrameHandler3
text$x	ENDS
?pointer_to@?$pointer_traits@PAD@std@@SAPADAAD@Z ENDP	; std::pointer_traits<char *>::pointer_to
; Function compile flags: /Odtp /RTCsu /ZI
; File C:\Program Files (x86)\Microsoft Visual Studio\2019\Community\VC\Tools\MSVC\14.24.28314\include\xstddef
;	COMDAT ??$_Unfancy@D@std@@YAPADPAD@Z
_TEXT	SEGMENT
__$EHRec$ = -12						; size = 12
__Ptr$ = 8						; size = 4
??$_Unfancy@D@std@@YAPADPAD@Z PROC			; std::_Unfancy<char>, COMDAT

; 288  : _NODISCARD constexpr _Ty* _Unfancy(_Ty* _Ptr) noexcept { // do nothing for plain pointers

  00000	55		 push	 ebp
  00001	8b ec		 mov	 ebp, esp
  00003	6a ff		 push	 -1
  00005	68 00 00 00 00	 push	 __ehhandler$??$_Unfancy@D@std@@YAPADPAD@Z
  0000a	64 a1 00 00 00
	00		 mov	 eax, DWORD PTR fs:0
  00010	50		 push	 eax
  00011	81 ec c0 00 00
	00		 sub	 esp, 192		; 000000c0H
  00017	53		 push	 ebx
  00018	56		 push	 esi
  00019	57		 push	 edi
  0001a	8d bd 34 ff ff
	ff		 lea	 edi, DWORD PTR [ebp-204]
  00020	b9 30 00 00 00	 mov	 ecx, 48			; 00000030H
  00025	b8 cc cc cc cc	 mov	 eax, -858993460		; ccccccccH
  0002a	f3 ab		 rep stosd
  0002c	a1 00 00 00 00	 mov	 eax, DWORD PTR ___security_cookie
  00031	33 c5		 xor	 eax, ebp
  00033	50		 push	 eax
  00034	8d 45 f4	 lea	 eax, DWORD PTR __$EHRec$[ebp]
  00037	64 a3 00 00 00
	00		 mov	 DWORD PTR fs:0, eax
  0003d	b9 00 00 00 00	 mov	 ecx, OFFSET __2C3DAE68_xstddef
  00042	e8 00 00 00 00	 call	 @__CheckForDebuggerJustMyCode@4

; 289  :     return _Ptr;

  00047	8b 45 08	 mov	 eax, DWORD PTR __Ptr$[ebp]

; 290  : }

  0004a	8b 4d f4	 mov	 ecx, DWORD PTR __$EHRec$[ebp]
  0004d	64 89 0d 00 00
	00 00		 mov	 DWORD PTR fs:0, ecx
  00054	59		 pop	 ecx
  00055	5f		 pop	 edi
  00056	5e		 pop	 esi
  00057	5b		 pop	 ebx
  00058	81 c4 cc 00 00
	00		 add	 esp, 204		; 000000ccH
  0005e	3b ec		 cmp	 ebp, esp
  00060	e8 00 00 00 00	 call	 __RTC_CheckEsp
  00065	8b e5		 mov	 esp, ebp
  00067	5d		 pop	 ebp
  00068	c3		 ret	 0
_TEXT	ENDS
;	COMDAT text$x
text$x	SEGMENT
__ehhandler$??$_Unfancy@D@std@@YAPADPAD@Z:
  00000	8b 54 24 08	 mov	 edx, DWORD PTR [esp+8]
  00004	8d 42 0c	 lea	 eax, DWORD PTR [edx+12]
  00007	8b 8a 30 ff ff
	ff		 mov	 ecx, DWORD PTR [edx-208]
  0000d	33 c8		 xor	 ecx, eax
  0000f	e8 00 00 00 00	 call	 @__security_check_cookie@4
  00014	b8 00 00 00 00	 mov	 eax, OFFSET __ehfuncinfo$??$_Unfancy@D@std@@YAPADPAD@Z
  00019	e9 00 00 00 00	 jmp	 ___CxxFrameHandler3
text$x	ENDS
??$_Unfancy@D@std@@YAPADPAD@Z ENDP			; std::_Unfancy<char>
; Function compile flags: /Odtp /RTCsu /ZI
; File C:\Program Files (x86)\Microsoft Visual Studio\2019\Community\VC\Tools\MSVC\14.24.28314\include\utility
;	COMDAT ??$_Max_value@PAD@std@@YAABQADABQAD0@Z
_TEXT	SEGMENT
tv65 = -220						; size = 4
$T2 = -212						; size = 4
__$EHRec$ = -12						; size = 12
__Left$ = 8						; size = 4
__Right$ = 12						; size = 4
??$_Max_value@PAD@std@@YAABQADABQAD0@Z PROC		; std::_Max_value<char *>, COMDAT

; 36   :     const _Ty& _Left, const _Ty& _Right) noexcept(noexcept(_Left < _Right)) {

  00000	55		 push	 ebp
  00001	8b ec		 mov	 ebp, esp
  00003	6a ff		 push	 -1
  00005	68 00 00 00 00	 push	 __ehhandler$??$_Max_value@PAD@std@@YAABQADABQAD0@Z
  0000a	64 a1 00 00 00
	00		 mov	 eax, DWORD PTR fs:0
  00010	50		 push	 eax
  00011	81 ec d0 00 00
	00		 sub	 esp, 208		; 000000d0H
  00017	53		 push	 ebx
  00018	56		 push	 esi
  00019	57		 push	 edi
  0001a	8d bd 24 ff ff
	ff		 lea	 edi, DWORD PTR [ebp-220]
  00020	b9 34 00 00 00	 mov	 ecx, 52			; 00000034H
  00025	b8 cc cc cc cc	 mov	 eax, -858993460		; ccccccccH
  0002a	f3 ab		 rep stosd
  0002c	a1 00 00 00 00	 mov	 eax, DWORD PTR ___security_cookie
  00031	33 c5		 xor	 eax, ebp
  00033	50		 push	 eax
  00034	8d 45 f4	 lea	 eax, DWORD PTR __$EHRec$[ebp]
  00037	64 a3 00 00 00
	00		 mov	 DWORD PTR fs:0, eax
  0003d	b9 00 00 00 00	 mov	 ecx, OFFSET __DB22397A_utility
  00042	e8 00 00 00 00	 call	 @__CheckForDebuggerJustMyCode@4

; 37   :     return _Left < _Right ? _Right : _Left;

  00047	8b 45 08	 mov	 eax, DWORD PTR __Left$[ebp]
  0004a	8b 4d 0c	 mov	 ecx, DWORD PTR __Right$[ebp]
  0004d	8b 10		 mov	 edx, DWORD PTR [eax]
  0004f	3b 11		 cmp	 edx, DWORD PTR [ecx]
  00051	73 0b		 jae	 SHORT $LN3@Max_value
  00053	8b 45 0c	 mov	 eax, DWORD PTR __Right$[ebp]
  00056	89 85 24 ff ff
	ff		 mov	 DWORD PTR tv65[ebp], eax
  0005c	eb 09		 jmp	 SHORT $LN4@Max_value
$LN3@Max_value:
  0005e	8b 4d 08	 mov	 ecx, DWORD PTR __Left$[ebp]
  00061	89 8d 24 ff ff
	ff		 mov	 DWORD PTR tv65[ebp], ecx
$LN4@Max_value:
  00067	8b 95 24 ff ff
	ff		 mov	 edx, DWORD PTR tv65[ebp]
  0006d	89 95 2c ff ff
	ff		 mov	 DWORD PTR $T2[ebp], edx
  00073	8b 85 2c ff ff
	ff		 mov	 eax, DWORD PTR $T2[ebp]

; 38   : }

  00079	8b 4d f4	 mov	 ecx, DWORD PTR __$EHRec$[ebp]
  0007c	64 89 0d 00 00
	00 00		 mov	 DWORD PTR fs:0, ecx
  00083	59		 pop	 ecx
  00084	5f		 pop	 edi
  00085	5e		 pop	 esi
  00086	5b		 pop	 ebx
  00087	81 c4 dc 00 00
	00		 add	 esp, 220		; 000000dcH
  0008d	3b ec		 cmp	 ebp, esp
  0008f	e8 00 00 00 00	 call	 __RTC_CheckEsp
  00094	8b e5		 mov	 esp, ebp
  00096	5d		 pop	 ebp
  00097	c3		 ret	 0
_TEXT	ENDS
;	COMDAT text$x
text$x	SEGMENT
__ehhandler$??$_Max_value@PAD@std@@YAABQADABQAD0@Z:
  00000	8b 54 24 08	 mov	 edx, DWORD PTR [esp+8]
  00004	8d 42 0c	 lea	 eax, DWORD PTR [edx+12]
  00007	8b 8a 20 ff ff
	ff		 mov	 ecx, DWORD PTR [edx-224]
  0000d	33 c8		 xor	 ecx, eax
  0000f	e8 00 00 00 00	 call	 @__security_check_cookie@4
  00014	b8 00 00 00 00	 mov	 eax, OFFSET __ehfuncinfo$??$_Max_value@PAD@std@@YAABQADABQAD0@Z
  00019	e9 00 00 00 00	 jmp	 ___CxxFrameHandler3
text$x	ENDS
??$_Max_value@PAD@std@@YAABQADABQAD0@Z ENDP		; std::_Max_value<char *>
; Function compile flags: /Odtp /RTCsu /ZI
;	COMDAT ??_D?$basic_stringstream@DU?$char_traits@D@std@@V?$allocator@D@2@@std@@QAEXXZ
_TEXT	SEGMENT
_this$ = -8						; size = 4
??_D?$basic_stringstream@DU?$char_traits@D@std@@V?$allocator@D@2@@std@@QAEXXZ PROC ; std::basic_stringstream<char,std::char_traits<char>,std::allocator<char> >::`vbase destructor', COMDAT
; _this$ = ecx
  00000	55		 push	 ebp
  00001	8b ec		 mov	 ebp, esp
  00003	81 ec cc 00 00
	00		 sub	 esp, 204		; 000000ccH
  00009	53		 push	 ebx
  0000a	56		 push	 esi
  0000b	57		 push	 edi
  0000c	51		 push	 ecx
  0000d	8d bd 34 ff ff
	ff		 lea	 edi, DWORD PTR [ebp-204]
  00013	b9 33 00 00 00	 mov	 ecx, 51			; 00000033H
  00018	b8 cc cc cc cc	 mov	 eax, -858993460		; ccccccccH
  0001d	f3 ab		 rep stosd
  0001f	59		 pop	 ecx
  00020	89 4d f8	 mov	 DWORD PTR _this$[ebp], ecx
  00023	8b 4d f8	 mov	 ecx, DWORD PTR _this$[ebp]
  00026	83 c1 68	 add	 ecx, 104		; 00000068H
  00029	e8 00 00 00 00	 call	 ??1?$basic_stringstream@DU?$char_traits@D@std@@V?$allocator@D@2@@std@@UAE@XZ ; std::basic_stringstream<char,std::char_traits<char>,std::allocator<char> >::~basic_stringstream<char,std::char_traits<char>,std::allocator<char> >
  0002e	8b 4d f8	 mov	 ecx, DWORD PTR _this$[ebp]
  00031	83 c1 68	 add	 ecx, 104		; 00000068H
  00034	8b f4		 mov	 esi, esp
  00036	ff 15 00 00 00
	00		 call	 DWORD PTR __imp_??1?$basic_ios@DU?$char_traits@D@std@@@std@@UAE@XZ
  0003c	3b f4		 cmp	 esi, esp
  0003e	e8 00 00 00 00	 call	 __RTC_CheckEsp
  00043	5f		 pop	 edi
  00044	5e		 pop	 esi
  00045	5b		 pop	 ebx
  00046	81 c4 cc 00 00
	00		 add	 esp, 204		; 000000ccH
  0004c	3b ec		 cmp	 ebp, esp
  0004e	e8 00 00 00 00	 call	 __RTC_CheckEsp
  00053	8b e5		 mov	 esp, ebp
  00055	5d		 pop	 ebp
  00056	c3		 ret	 0
??_D?$basic_stringstream@DU?$char_traits@D@std@@V?$allocator@D@2@@std@@QAEXXZ ENDP ; std::basic_stringstream<char,std::char_traits<char>,std::allocator<char> >::`vbase destructor'
_TEXT	ENDS
; Function compile flags: /Odtp /RTCsu /ZI
;	COMDAT ??_G?$basic_stringstream@DU?$char_traits@D@std@@V?$allocator@D@2@@std@@UAEPAXI@Z
_TEXT	SEGMENT
_this$ = -8						; size = 4
___flags$ = 8						; size = 4
??_G?$basic_stringstream@DU?$char_traits@D@std@@V?$allocator@D@2@@std@@UAEPAXI@Z PROC ; std::basic_stringstream<char,std::char_traits<char>,std::allocator<char> >::`scalar deleting destructor', COMDAT
; _this$ = ecx
  00000	55		 push	 ebp
  00001	8b ec		 mov	 ebp, esp
  00003	81 ec cc 00 00
	00		 sub	 esp, 204		; 000000ccH
  00009	53		 push	 ebx
  0000a	56		 push	 esi
  0000b	57		 push	 edi
  0000c	51		 push	 ecx
  0000d	8d bd 34 ff ff
	ff		 lea	 edi, DWORD PTR [ebp-204]
  00013	b9 33 00 00 00	 mov	 ecx, 51			; 00000033H
  00018	b8 cc cc cc cc	 mov	 eax, -858993460		; ccccccccH
  0001d	f3 ab		 rep stosd
  0001f	59		 pop	 ecx
  00020	89 4d f8	 mov	 DWORD PTR _this$[ebp], ecx
  00023	8b 4d f8	 mov	 ecx, DWORD PTR _this$[ebp]
  00026	83 e9 68	 sub	 ecx, 104		; 00000068H
  00029	e8 00 00 00 00	 call	 ??_D?$basic_stringstream@DU?$char_traits@D@std@@V?$allocator@D@2@@std@@QAEXXZ
  0002e	8b 45 08	 mov	 eax, DWORD PTR ___flags$[ebp]
  00031	83 e0 01	 and	 eax, 1
  00034	74 14		 je	 SHORT $LN2@scalar
  00036	68 b0 00 00 00	 push	 176			; 000000b0H
  0003b	8b 45 f8	 mov	 eax, DWORD PTR _this$[ebp]
  0003e	83 e8 68	 sub	 eax, 104		; 00000068H
  00041	50		 push	 eax
  00042	e8 00 00 00 00	 call	 ??3@YAXPAXI@Z		; operator delete
  00047	83 c4 08	 add	 esp, 8
$LN2@scalar:
  0004a	8b 45 f8	 mov	 eax, DWORD PTR _this$[ebp]
  0004d	83 e8 68	 sub	 eax, 104		; 00000068H
  00050	5f		 pop	 edi
  00051	5e		 pop	 esi
  00052	5b		 pop	 ebx
  00053	81 c4 cc 00 00
	00		 add	 esp, 204		; 000000ccH
  00059	3b ec		 cmp	 ebp, esp
  0005b	e8 00 00 00 00	 call	 __RTC_CheckEsp
  00060	8b e5		 mov	 esp, ebp
  00062	5d		 pop	 ebp
  00063	c2 04 00	 ret	 4
??_G?$basic_stringstream@DU?$char_traits@D@std@@V?$allocator@D@2@@std@@UAEPAXI@Z ENDP ; std::basic_stringstream<char,std::char_traits<char>,std::allocator<char> >::`scalar deleting destructor'
_TEXT	ENDS
; Function compile flags: /Odtp /RTCsu /ZI
;	COMDAT ?__autoclassinit2@?$basic_stringstream@DU?$char_traits@D@std@@V?$allocator@D@2@@std@@QAEXI@Z
_TEXT	SEGMENT
_this$ = -8						; size = 4
_classSize$ = 8						; size = 4
?__autoclassinit2@?$basic_stringstream@DU?$char_traits@D@std@@V?$allocator@D@2@@std@@QAEXI@Z PROC ; std::basic_stringstream<char,std::char_traits<char>,std::allocator<char> >::__autoclassinit2, COMDAT
; _this$ = ecx
  00000	55		 push	 ebp
  00001	8b ec		 mov	 ebp, esp
  00003	81 ec cc 00 00
	00		 sub	 esp, 204		; 000000ccH
  00009	53		 push	 ebx
  0000a	56		 push	 esi
  0000b	57		 push	 edi
  0000c	51		 push	 ecx
  0000d	8d bd 34 ff ff
	ff		 lea	 edi, DWORD PTR [ebp-204]
  00013	b9 33 00 00 00	 mov	 ecx, 51			; 00000033H
  00018	b8 cc cc cc cc	 mov	 eax, -858993460		; ccccccccH
  0001d	f3 ab		 rep stosd
  0001f	59		 pop	 ecx
  00020	89 4d f8	 mov	 DWORD PTR _this$[ebp], ecx
  00023	8b 45 08	 mov	 eax, DWORD PTR _classSize$[ebp]
  00026	50		 push	 eax
  00027	6a 00		 push	 0
  00029	8b 4d f8	 mov	 ecx, DWORD PTR _this$[ebp]
  0002c	51		 push	 ecx
  0002d	e8 00 00 00 00	 call	 _memset
  00032	83 c4 0c	 add	 esp, 12			; 0000000cH
  00035	5f		 pop	 edi
  00036	5e		 pop	 esi
  00037	5b		 pop	 ebx
  00038	81 c4 cc 00 00
	00		 add	 esp, 204		; 000000ccH
  0003e	3b ec		 cmp	 ebp, esp
  00040	e8 00 00 00 00	 call	 __RTC_CheckEsp
  00045	8b e5		 mov	 esp, ebp
  00047	5d		 pop	 ebp
  00048	c2 04 00	 ret	 4
?__autoclassinit2@?$basic_stringstream@DU?$char_traits@D@std@@V?$allocator@D@2@@std@@QAEXI@Z ENDP ; std::basic_stringstream<char,std::char_traits<char>,std::allocator<char> >::__autoclassinit2
_TEXT	ENDS
; Function compile flags: /Odtp /RTCsu /ZI
;	COMDAT ??_G?$basic_stringbuf@DU?$char_traits@D@std@@V?$allocator@D@2@@std@@UAEPAXI@Z
_TEXT	SEGMENT
_this$ = -8						; size = 4
___flags$ = 8						; size = 4
??_G?$basic_stringbuf@DU?$char_traits@D@std@@V?$allocator@D@2@@std@@UAEPAXI@Z PROC ; std::basic_stringbuf<char,std::char_traits<char>,std::allocator<char> >::`scalar deleting destructor', COMDAT
; _this$ = ecx
  00000	55		 push	 ebp
  00001	8b ec		 mov	 ebp, esp
  00003	81 ec cc 00 00
	00		 sub	 esp, 204		; 000000ccH
  00009	53		 push	 ebx
  0000a	56		 push	 esi
  0000b	57		 push	 edi
  0000c	51		 push	 ecx
  0000d	8d bd 34 ff ff
	ff		 lea	 edi, DWORD PTR [ebp-204]
  00013	b9 33 00 00 00	 mov	 ecx, 51			; 00000033H
  00018	b8 cc cc cc cc	 mov	 eax, -858993460		; ccccccccH
  0001d	f3 ab		 rep stosd
  0001f	59		 pop	 ecx
  00020	89 4d f8	 mov	 DWORD PTR _this$[ebp], ecx
  00023	8b 4d f8	 mov	 ecx, DWORD PTR _this$[ebp]
  00026	e8 00 00 00 00	 call	 ??1?$basic_stringbuf@DU?$char_traits@D@std@@V?$allocator@D@2@@std@@UAE@XZ ; std::basic_stringbuf<char,std::char_traits<char>,std::allocator<char> >::~basic_stringbuf<char,std::char_traits<char>,std::allocator<char> >
  0002b	8b 45 08	 mov	 eax, DWORD PTR ___flags$[ebp]
  0002e	83 e0 01	 and	 eax, 1
  00031	74 0e		 je	 SHORT $LN2@scalar
  00033	6a 44		 push	 68			; 00000044H
  00035	8b 45 f8	 mov	 eax, DWORD PTR _this$[ebp]
  00038	50		 push	 eax
  00039	e8 00 00 00 00	 call	 ??3@YAXPAXI@Z		; operator delete
  0003e	83 c4 08	 add	 esp, 8
$LN2@scalar:
  00041	8b 45 f8	 mov	 eax, DWORD PTR _this$[ebp]
  00044	5f		 pop	 edi
  00045	5e		 pop	 esi
  00046	5b		 pop	 ebx
  00047	81 c4 cc 00 00
	00		 add	 esp, 204		; 000000ccH
  0004d	3b ec		 cmp	 ebp, esp
  0004f	e8 00 00 00 00	 call	 __RTC_CheckEsp
  00054	8b e5		 mov	 esp, ebp
  00056	5d		 pop	 ebp
  00057	c2 04 00	 ret	 4
??_G?$basic_stringbuf@DU?$char_traits@D@std@@V?$allocator@D@2@@std@@UAEPAXI@Z ENDP ; std::basic_stringbuf<char,std::char_traits<char>,std::allocator<char> >::`scalar deleting destructor'
_TEXT	ENDS
; Function compile flags: /Odtp /RTCsu /ZI
; File C:\Program Files (x86)\Microsoft Visual Studio\2019\Community\VC\Tools\MSVC\14.24.28314\include\sstream
;	COMDAT ?_Getstate@?$basic_stringbuf@DU?$char_traits@D@std@@V?$allocator@D@2@@std@@CAHH@Z
_TEXT	SEGMENT
__State$ = -8						; size = 4
__Mode$ = 8						; size = 4
?_Getstate@?$basic_stringbuf@DU?$char_traits@D@std@@V?$allocator@D@2@@std@@CAHH@Z PROC ; std::basic_stringbuf<char,std::char_traits<char>,std::allocator<char> >::_Getstate, COMDAT

; 348  :     static int _Getstate(ios_base::openmode _Mode) { // convert open mode to stream state bits

  00000	55		 push	 ebp
  00001	8b ec		 mov	 ebp, esp
  00003	81 ec cc 00 00
	00		 sub	 esp, 204		; 000000ccH
  00009	53		 push	 ebx
  0000a	56		 push	 esi
  0000b	57		 push	 edi
  0000c	8d bd 34 ff ff
	ff		 lea	 edi, DWORD PTR [ebp-204]
  00012	b9 33 00 00 00	 mov	 ecx, 51			; 00000033H
  00017	b8 cc cc cc cc	 mov	 eax, -858993460		; ccccccccH
  0001c	f3 ab		 rep stosd
  0001e	b9 00 00 00 00	 mov	 ecx, OFFSET __A934846A_sstream
  00023	e8 00 00 00 00	 call	 @__CheckForDebuggerJustMyCode@4

; 349  :         int _State = 0;

  00028	c7 45 f8 00 00
	00 00		 mov	 DWORD PTR __State$[ebp], 0

; 350  :         if (!(_Mode & ios_base::in)) {

  0002f	8b 45 08	 mov	 eax, DWORD PTR __Mode$[ebp]
  00032	83 e0 01	 and	 eax, 1
  00035	75 09		 jne	 SHORT $LN2@Getstate

; 351  :             _State |= _Noread;

  00037	8b 45 f8	 mov	 eax, DWORD PTR __State$[ebp]
  0003a	83 c8 04	 or	 eax, 4
  0003d	89 45 f8	 mov	 DWORD PTR __State$[ebp], eax
$LN2@Getstate:

; 352  :         }
; 353  : 
; 354  :         if (!(_Mode & ios_base::out)) {

  00040	8b 45 08	 mov	 eax, DWORD PTR __Mode$[ebp]
  00043	83 e0 02	 and	 eax, 2
  00046	75 09		 jne	 SHORT $LN3@Getstate

; 355  :             _State |= _Constant;

  00048	8b 45 f8	 mov	 eax, DWORD PTR __State$[ebp]
  0004b	83 c8 02	 or	 eax, 2
  0004e	89 45 f8	 mov	 DWORD PTR __State$[ebp], eax
$LN3@Getstate:

; 356  :         }
; 357  : 
; 358  :         if (_Mode & ios_base::app) {

  00051	8b 45 08	 mov	 eax, DWORD PTR __Mode$[ebp]
  00054	83 e0 08	 and	 eax, 8
  00057	74 09		 je	 SHORT $LN4@Getstate

; 359  :             _State |= _Append;

  00059	8b 45 f8	 mov	 eax, DWORD PTR __State$[ebp]
  0005c	83 c8 08	 or	 eax, 8
  0005f	89 45 f8	 mov	 DWORD PTR __State$[ebp], eax
$LN4@Getstate:

; 360  :         }
; 361  : 
; 362  :         if (_Mode & ios_base::ate) {

  00062	8b 45 08	 mov	 eax, DWORD PTR __Mode$[ebp]
  00065	83 e0 04	 and	 eax, 4
  00068	74 09		 je	 SHORT $LN5@Getstate

; 363  :             _State |= _Atend;

  0006a	8b 45 f8	 mov	 eax, DWORD PTR __State$[ebp]
  0006d	83 c8 10	 or	 eax, 16			; 00000010H
  00070	89 45 f8	 mov	 DWORD PTR __State$[ebp], eax
$LN5@Getstate:

; 364  :         }
; 365  : 
; 366  :         return _State;

  00073	8b 45 f8	 mov	 eax, DWORD PTR __State$[ebp]

; 367  :     }

  00076	5f		 pop	 edi
  00077	5e		 pop	 esi
  00078	5b		 pop	 ebx
  00079	81 c4 cc 00 00
	00		 add	 esp, 204		; 000000ccH
  0007f	3b ec		 cmp	 ebp, esp
  00081	e8 00 00 00 00	 call	 __RTC_CheckEsp
  00086	8b e5		 mov	 esp, ebp
  00088	5d		 pop	 ebp
  00089	c3		 ret	 0
?_Getstate@?$basic_stringbuf@DU?$char_traits@D@std@@V?$allocator@D@2@@std@@CAHH@Z ENDP ; std::basic_stringbuf<char,std::char_traits<char>,std::allocator<char> >::_Getstate
_TEXT	ENDS
; Function compile flags: /Odtp /RTCsu /ZI
; File C:\Program Files (x86)\Microsoft Visual Studio\2019\Community\VC\Tools\MSVC\14.24.28314\include\sstream
;	COMDAT ?_Tidy@?$basic_stringbuf@DU?$char_traits@D@std@@V?$allocator@D@2@@std@@IAEXXZ
_TEXT	SEGMENT
tv88 = -220						; size = 4
_this$ = -20						; size = 4
__$EHRec$ = -12						; size = 12
?_Tidy@?$basic_stringbuf@DU?$char_traits@D@std@@V?$allocator@D@2@@std@@IAEXXZ PROC ; std::basic_stringbuf<char,std::char_traits<char>,std::allocator<char> >::_Tidy, COMDAT
; _this$ = ecx

; 328  :     void _Tidy() noexcept { // discard any allocated buffer and clear pointers

  00000	55		 push	 ebp
  00001	8b ec		 mov	 ebp, esp
  00003	6a ff		 push	 -1
  00005	68 00 00 00 00	 push	 __ehhandler$?_Tidy@?$basic_stringbuf@DU?$char_traits@D@std@@V?$allocator@D@2@@std@@IAEXXZ
  0000a	64 a1 00 00 00
	00		 mov	 eax, DWORD PTR fs:0
  00010	50		 push	 eax
  00011	81 ec d0 00 00
	00		 sub	 esp, 208		; 000000d0H
  00017	53		 push	 ebx
  00018	56		 push	 esi
  00019	57		 push	 edi
  0001a	51		 push	 ecx
  0001b	8d bd 24 ff ff
	ff		 lea	 edi, DWORD PTR [ebp-220]
  00021	b9 34 00 00 00	 mov	 ecx, 52			; 00000034H
  00026	b8 cc cc cc cc	 mov	 eax, -858993460		; ccccccccH
  0002b	f3 ab		 rep stosd
  0002d	59		 pop	 ecx
  0002e	a1 00 00 00 00	 mov	 eax, DWORD PTR ___security_cookie
  00033	33 c5		 xor	 eax, ebp
  00035	50		 push	 eax
  00036	8d 45 f4	 lea	 eax, DWORD PTR __$EHRec$[ebp]
  00039	64 a3 00 00 00
	00		 mov	 DWORD PTR fs:0, eax
  0003f	89 4d ec	 mov	 DWORD PTR _this$[ebp], ecx
  00042	b9 00 00 00 00	 mov	 ecx, OFFSET __A934846A_sstream
  00047	e8 00 00 00 00	 call	 @__CheckForDebuggerJustMyCode@4

; 329  :         if (_Mystate & _Allocated) {

  0004c	8b 45 ec	 mov	 eax, DWORD PTR _this$[ebp]
  0004f	8b 48 3c	 mov	 ecx, DWORD PTR [eax+60]
  00052	83 e1 01	 and	 ecx, 1
  00055	0f 84 8a 00 00
	00		 je	 $LN2@Tidy

; 330  :             _Al.deallocate(_Ptr_traits::pointer_to(*_Mysb::eback()),

  0005b	8b f4		 mov	 esi, esp
  0005d	8b 4d ec	 mov	 ecx, DWORD PTR _this$[ebp]
  00060	ff 15 00 00 00
	00		 call	 DWORD PTR __imp_?pptr@?$basic_streambuf@DU?$char_traits@D@std@@@std@@IBEPADXZ
  00066	3b f4		 cmp	 esi, esp
  00068	e8 00 00 00 00	 call	 __RTC_CheckEsp
  0006d	85 c0		 test	 eax, eax
  0006f	74 1a		 je	 SHORT $LN4@Tidy
  00071	8b f4		 mov	 esi, esp
  00073	8b 4d ec	 mov	 ecx, DWORD PTR _this$[ebp]
  00076	ff 15 00 00 00
	00		 call	 DWORD PTR __imp_?epptr@?$basic_streambuf@DU?$char_traits@D@std@@@std@@IBEPADXZ
  0007c	3b f4		 cmp	 esi, esp
  0007e	e8 00 00 00 00	 call	 __RTC_CheckEsp
  00083	89 85 24 ff ff
	ff		 mov	 DWORD PTR tv88[ebp], eax
  00089	eb 18		 jmp	 SHORT $LN5@Tidy
$LN4@Tidy:
  0008b	8b f4		 mov	 esi, esp
  0008d	8b 4d ec	 mov	 ecx, DWORD PTR _this$[ebp]
  00090	ff 15 00 00 00
	00		 call	 DWORD PTR __imp_?egptr@?$basic_streambuf@DU?$char_traits@D@std@@@std@@IBEPADXZ
  00096	3b f4		 cmp	 esi, esp
  00098	e8 00 00 00 00	 call	 __RTC_CheckEsp
  0009d	89 85 24 ff ff
	ff		 mov	 DWORD PTR tv88[ebp], eax
$LN5@Tidy:
  000a3	8b f4		 mov	 esi, esp
  000a5	8b 4d ec	 mov	 ecx, DWORD PTR _this$[ebp]
  000a8	ff 15 00 00 00
	00		 call	 DWORD PTR __imp_?eback@?$basic_streambuf@DU?$char_traits@D@std@@@std@@IBEPADXZ
  000ae	3b f4		 cmp	 esi, esp
  000b0	e8 00 00 00 00	 call	 __RTC_CheckEsp
  000b5	8b 8d 24 ff ff
	ff		 mov	 ecx, DWORD PTR tv88[ebp]
  000bb	2b c8		 sub	 ecx, eax
  000bd	51		 push	 ecx
  000be	8b f4		 mov	 esi, esp
  000c0	8b 4d ec	 mov	 ecx, DWORD PTR _this$[ebp]
  000c3	ff 15 00 00 00
	00		 call	 DWORD PTR __imp_?eback@?$basic_streambuf@DU?$char_traits@D@std@@@std@@IBEPADXZ
  000c9	3b f4		 cmp	 esi, esp
  000cb	e8 00 00 00 00	 call	 __RTC_CheckEsp
  000d0	50		 push	 eax
  000d1	e8 00 00 00 00	 call	 ?pointer_to@?$pointer_traits@PAD@std@@SAPADAAD@Z ; std::pointer_traits<char *>::pointer_to
  000d6	83 c4 04	 add	 esp, 4
  000d9	50		 push	 eax
  000da	8b 4d ec	 mov	 ecx, DWORD PTR _this$[ebp]
  000dd	83 c1 40	 add	 ecx, 64			; 00000040H
  000e0	e8 00 00 00 00	 call	 ?deallocate@?$allocator@D@std@@QAEXQADI@Z ; std::allocator<char>::deallocate
$LN2@Tidy:

; 331  :                 static_cast<typename allocator_traits<allocator_type>::size_type>(
; 332  :                     (_Mysb::pptr() ? _Mysb::epptr() : _Mysb::egptr()) - _Mysb::eback()));
; 333  :         }
; 334  : 
; 335  :         _Mysb::setg(nullptr, nullptr, nullptr);

  000e5	8b f4		 mov	 esi, esp
  000e7	6a 00		 push	 0
  000e9	6a 00		 push	 0
  000eb	6a 00		 push	 0
  000ed	8b 4d ec	 mov	 ecx, DWORD PTR _this$[ebp]
  000f0	ff 15 00 00 00
	00		 call	 DWORD PTR __imp_?setg@?$basic_streambuf@DU?$char_traits@D@std@@@std@@IAEXPAD00@Z
  000f6	3b f4		 cmp	 esi, esp
  000f8	e8 00 00 00 00	 call	 __RTC_CheckEsp

; 336  :         _Mysb::setp(nullptr, nullptr);

  000fd	8b f4		 mov	 esi, esp
  000ff	6a 00		 push	 0
  00101	6a 00		 push	 0
  00103	8b 4d ec	 mov	 ecx, DWORD PTR _this$[ebp]
  00106	ff 15 00 00 00
	00		 call	 DWORD PTR __imp_?setp@?$basic_streambuf@DU?$char_traits@D@std@@@std@@IAEXPAD0@Z
  0010c	3b f4		 cmp	 esi, esp
  0010e	e8 00 00 00 00	 call	 __RTC_CheckEsp

; 337  :         _Seekhigh = nullptr;

  00113	8b 45 ec	 mov	 eax, DWORD PTR _this$[ebp]
  00116	c7 40 38 00 00
	00 00		 mov	 DWORD PTR [eax+56], 0

; 338  :         _Mystate &= ~_Allocated;

  0011d	8b 45 ec	 mov	 eax, DWORD PTR _this$[ebp]
  00120	8b 48 3c	 mov	 ecx, DWORD PTR [eax+60]
  00123	83 e1 fe	 and	 ecx, -2			; fffffffeH
  00126	8b 55 ec	 mov	 edx, DWORD PTR _this$[ebp]
  00129	89 4a 3c	 mov	 DWORD PTR [edx+60], ecx

; 339  :     }

  0012c	8b 4d f4	 mov	 ecx, DWORD PTR __$EHRec$[ebp]
  0012f	64 89 0d 00 00
	00 00		 mov	 DWORD PTR fs:0, ecx
  00136	59		 pop	 ecx
  00137	5f		 pop	 edi
  00138	5e		 pop	 esi
  00139	5b		 pop	 ebx
  0013a	81 c4 dc 00 00
	00		 add	 esp, 220		; 000000dcH
  00140	3b ec		 cmp	 ebp, esp
  00142	e8 00 00 00 00	 call	 __RTC_CheckEsp
  00147	8b e5		 mov	 esp, ebp
  00149	5d		 pop	 ebp
  0014a	c3		 ret	 0
_TEXT	ENDS
;	COMDAT text$x
text$x	SEGMENT
__ehhandler$?_Tidy@?$basic_stringbuf@DU?$char_traits@D@std@@V?$allocator@D@2@@std@@IAEXXZ:
  00000	8b 54 24 08	 mov	 edx, DWORD PTR [esp+8]
  00004	8d 42 0c	 lea	 eax, DWORD PTR [edx+12]
  00007	8b 8a 20 ff ff
	ff		 mov	 ecx, DWORD PTR [edx-224]
  0000d	33 c8		 xor	 ecx, eax
  0000f	e8 00 00 00 00	 call	 @__security_check_cookie@4
  00014	b8 00 00 00 00	 mov	 eax, OFFSET __ehfuncinfo$?_Tidy@?$basic_stringbuf@DU?$char_traits@D@std@@V?$allocator@D@2@@std@@IAEXXZ
  00019	e9 00 00 00 00	 jmp	 ___CxxFrameHandler3
text$x	ENDS
?_Tidy@?$basic_stringbuf@DU?$char_traits@D@std@@V?$allocator@D@2@@std@@IAEXXZ ENDP ; std::basic_stringbuf<char,std::char_traits<char>,std::allocator<char> >::_Tidy
; Function compile flags: /Odtp /RTCsu /ZI
; File C:\Program Files (x86)\Microsoft Visual Studio\2019\Community\VC\Tools\MSVC\14.24.28314\include\sstream
;	COMDAT ?_Init@?$basic_stringbuf@DU?$char_traits@D@std@@V?$allocator@D@2@@std@@IAEXPBDIH@Z
_TEXT	SEGMENT
tv137 = -220						; size = 4
__Pnew$1 = -20						; size = 4
_this$ = -8						; size = 4
__Ptr$ = 8						; size = 4
__Count$ = 12						; size = 4
__State$ = 16						; size = 4
?_Init@?$basic_stringbuf@DU?$char_traits@D@std@@V?$allocator@D@2@@std@@IAEXPBDIH@Z PROC ; std::basic_stringbuf<char,std::char_traits<char>,std::allocator<char> >::_Init, COMDAT
; _this$ = ecx

; 295  :     void _Init(const _Elem* _Ptr, _Mysize_type _Count, int _State) {

  00000	55		 push	 ebp
  00001	8b ec		 mov	 ebp, esp
  00003	81 ec dc 00 00
	00		 sub	 esp, 220		; 000000dcH
  00009	53		 push	 ebx
  0000a	56		 push	 esi
  0000b	57		 push	 edi
  0000c	51		 push	 ecx
  0000d	8d bd 24 ff ff
	ff		 lea	 edi, DWORD PTR [ebp-220]
  00013	b9 37 00 00 00	 mov	 ecx, 55			; 00000037H
  00018	b8 cc cc cc cc	 mov	 eax, -858993460		; ccccccccH
  0001d	f3 ab		 rep stosd
  0001f	59		 pop	 ecx
  00020	89 4d f8	 mov	 DWORD PTR _this$[ebp], ecx
  00023	b9 00 00 00 00	 mov	 ecx, OFFSET __A934846A_sstream
  00028	e8 00 00 00 00	 call	 @__CheckForDebuggerJustMyCode@4

; 296  :         // initialize buffer to [_Ptr, _Ptr + _Count), set state
; 297  :         if (_Count > INT_MAX) { // TRANSITION, VSO#485517

  0002d	81 7d 0c ff ff
	ff 7f		 cmp	 DWORD PTR __Count$[ebp], 2147483647 ; 7fffffffH
  00034	76 05		 jbe	 SHORT $LN2@Init

; 298  :             _Xbad_alloc();

  00036	e8 00 00 00 00	 call	 ?_Xbad_alloc@std@@YAXXZ	; std::_Xbad_alloc
$LN2@Init:

; 299  :         }
; 300  : 
; 301  :         if (_Count != 0
; 302  :             && (_State & (_Noread | _Constant))

  0003b	83 7d 0c 00	 cmp	 DWORD PTR __Count$[ebp], 0
  0003f	0f 84 ed 00 00
	00		 je	 $LN3@Init
  00045	8b 45 10	 mov	 eax, DWORD PTR __State$[ebp]
  00048	83 e0 06	 and	 eax, 6
  0004b	83 f8 06	 cmp	 eax, 6
  0004e	0f 84 de 00 00
	00		 je	 $LN3@Init

; 303  :                    != (_Noread | _Constant)) { // finite buffer that can be read or written, set it up
; 304  :             const auto _Pnew = _Unfancy(_Al.allocate(_Count));

  00054	8b 45 0c	 mov	 eax, DWORD PTR __Count$[ebp]
  00057	50		 push	 eax
  00058	8b 4d f8	 mov	 ecx, DWORD PTR _this$[ebp]
  0005b	83 c1 40	 add	 ecx, 64			; 00000040H
  0005e	e8 00 00 00 00	 call	 ?allocate@?$allocator@D@std@@QAEPADI@Z ; std::allocator<char>::allocate
  00063	50		 push	 eax
  00064	e8 00 00 00 00	 call	 ??$_Unfancy@D@std@@YAPADPAD@Z ; std::_Unfancy<char>
  00069	83 c4 04	 add	 esp, 4
  0006c	89 45 ec	 mov	 DWORD PTR __Pnew$1[ebp], eax

; 305  :             _Traits::copy(_Pnew, _Ptr, _Count);

  0006f	8b 45 0c	 mov	 eax, DWORD PTR __Count$[ebp]
  00072	50		 push	 eax
  00073	8b 4d 08	 mov	 ecx, DWORD PTR __Ptr$[ebp]
  00076	51		 push	 ecx
  00077	8b 55 ec	 mov	 edx, DWORD PTR __Pnew$1[ebp]
  0007a	52		 push	 edx
  0007b	e8 00 00 00 00	 call	 ?copy@?$_Narrow_char_traits@DH@std@@SAPADQADQBDI@Z ; std::_Narrow_char_traits<char,int>::copy
  00080	83 c4 0c	 add	 esp, 12			; 0000000cH

; 306  :             _Seekhigh = _Pnew + _Count;

  00083	8b 45 ec	 mov	 eax, DWORD PTR __Pnew$1[ebp]
  00086	03 45 0c	 add	 eax, DWORD PTR __Count$[ebp]
  00089	8b 4d f8	 mov	 ecx, DWORD PTR _this$[ebp]
  0008c	89 41 38	 mov	 DWORD PTR [ecx+56], eax

; 307  : 
; 308  :             if (!(_State & _Noread)) {

  0008f	8b 45 10	 mov	 eax, DWORD PTR __State$[ebp]
  00092	83 e0 04	 and	 eax, 4
  00095	75 21		 jne	 SHORT $LN5@Init

; 309  :                 _Mysb::setg(_Pnew, _Pnew, _Seekhigh); // setup read buffer

  00097	8b f4		 mov	 esi, esp
  00099	8b 45 f8	 mov	 eax, DWORD PTR _this$[ebp]
  0009c	8b 48 38	 mov	 ecx, DWORD PTR [eax+56]
  0009f	51		 push	 ecx
  000a0	8b 55 ec	 mov	 edx, DWORD PTR __Pnew$1[ebp]
  000a3	52		 push	 edx
  000a4	8b 45 ec	 mov	 eax, DWORD PTR __Pnew$1[ebp]
  000a7	50		 push	 eax
  000a8	8b 4d f8	 mov	 ecx, DWORD PTR _this$[ebp]
  000ab	ff 15 00 00 00
	00		 call	 DWORD PTR __imp_?setg@?$basic_streambuf@DU?$char_traits@D@std@@@std@@IAEXPAD00@Z
  000b1	3b f4		 cmp	 esi, esp
  000b3	e8 00 00 00 00	 call	 __RTC_CheckEsp
$LN5@Init:

; 310  :             }
; 311  : 
; 312  :             if (!(_State & _Constant)) { // setup write buffer, and maybe read buffer

  000b8	8b 45 10	 mov	 eax, DWORD PTR __State$[ebp]
  000bb	83 e0 02	 and	 eax, 2
  000be	75 67		 jne	 SHORT $LN6@Init

; 313  :                 _Mysb::setp(_Pnew, (_State & (_Atend | _Append)) ? _Seekhigh : _Pnew, _Seekhigh);

  000c0	8b 45 10	 mov	 eax, DWORD PTR __State$[ebp]
  000c3	83 e0 18	 and	 eax, 24			; 00000018H
  000c6	74 0e		 je	 SHORT $LN9@Init
  000c8	8b 4d f8	 mov	 ecx, DWORD PTR _this$[ebp]
  000cb	8b 51 38	 mov	 edx, DWORD PTR [ecx+56]
  000ce	89 95 24 ff ff
	ff		 mov	 DWORD PTR tv137[ebp], edx
  000d4	eb 09		 jmp	 SHORT $LN10@Init
$LN9@Init:
  000d6	8b 45 ec	 mov	 eax, DWORD PTR __Pnew$1[ebp]
  000d9	89 85 24 ff ff
	ff		 mov	 DWORD PTR tv137[ebp], eax
$LN10@Init:
  000df	8b f4		 mov	 esi, esp
  000e1	8b 4d f8	 mov	 ecx, DWORD PTR _this$[ebp]
  000e4	8b 51 38	 mov	 edx, DWORD PTR [ecx+56]
  000e7	52		 push	 edx
  000e8	8b 85 24 ff ff
	ff		 mov	 eax, DWORD PTR tv137[ebp]
  000ee	50		 push	 eax
  000ef	8b 4d ec	 mov	 ecx, DWORD PTR __Pnew$1[ebp]
  000f2	51		 push	 ecx
  000f3	8b 4d f8	 mov	 ecx, DWORD PTR _this$[ebp]
  000f6	ff 15 00 00 00
	00		 call	 DWORD PTR __imp_?setp@?$basic_streambuf@DU?$char_traits@D@std@@@std@@IAEXPAD00@Z
  000fc	3b f4		 cmp	 esi, esp
  000fe	e8 00 00 00 00	 call	 __RTC_CheckEsp

; 314  : 
; 315  :                 if (_State & _Noread) { // maintain "_Allocated == eback() points to buffer base" invariant

  00103	8b 45 10	 mov	 eax, DWORD PTR __State$[ebp]
  00106	83 e0 04	 and	 eax, 4
  00109	74 1c		 je	 SHORT $LN6@Init

; 316  :                     _Mysb::setg(_Pnew, nullptr, _Pnew);

  0010b	8b f4		 mov	 esi, esp
  0010d	8b 45 ec	 mov	 eax, DWORD PTR __Pnew$1[ebp]
  00110	50		 push	 eax
  00111	6a 00		 push	 0
  00113	8b 4d ec	 mov	 ecx, DWORD PTR __Pnew$1[ebp]
  00116	51		 push	 ecx
  00117	8b 4d f8	 mov	 ecx, DWORD PTR _this$[ebp]
  0011a	ff 15 00 00 00
	00		 call	 DWORD PTR __imp_?setg@?$basic_streambuf@DU?$char_traits@D@std@@@std@@IAEXPAD00@Z
  00120	3b f4		 cmp	 esi, esp
  00122	e8 00 00 00 00	 call	 __RTC_CheckEsp
$LN6@Init:

; 317  :                 }
; 318  :             }
; 319  : 
; 320  :             _State |= _Allocated;

  00127	8b 45 10	 mov	 eax, DWORD PTR __State$[ebp]
  0012a	83 c8 01	 or	 eax, 1
  0012d	89 45 10	 mov	 DWORD PTR __State$[ebp], eax

; 321  :         } else {

  00130	eb 0a		 jmp	 SHORT $LN4@Init
$LN3@Init:

; 322  :             _Seekhigh = nullptr;

  00132	8b 45 f8	 mov	 eax, DWORD PTR _this$[ebp]
  00135	c7 40 38 00 00
	00 00		 mov	 DWORD PTR [eax+56], 0
$LN4@Init:

; 323  :         }
; 324  : 
; 325  :         _Mystate = _State;

  0013c	8b 45 f8	 mov	 eax, DWORD PTR _this$[ebp]
  0013f	8b 4d 10	 mov	 ecx, DWORD PTR __State$[ebp]
  00142	89 48 3c	 mov	 DWORD PTR [eax+60], ecx
$LN8@Init:

; 326  :     }

  00145	5f		 pop	 edi
  00146	5e		 pop	 esi
  00147	5b		 pop	 ebx
  00148	81 c4 dc 00 00
	00		 add	 esp, 220		; 000000dcH
  0014e	3b ec		 cmp	 ebp, esp
  00150	e8 00 00 00 00	 call	 __RTC_CheckEsp
  00155	8b e5		 mov	 esp, ebp
  00157	5d		 pop	 ebp
  00158	c2 0c 00	 ret	 12			; 0000000cH
?_Init@?$basic_stringbuf@DU?$char_traits@D@std@@V?$allocator@D@2@@std@@IAEXPBDIH@Z ENDP ; std::basic_stringbuf<char,std::char_traits<char>,std::allocator<char> >::_Init
_TEXT	ENDS
; Function compile flags: /Odtp /RTCsu /ZI
; File C:\Program Files (x86)\Microsoft Visual Studio\2019\Community\VC\Tools\MSVC\14.24.28314\include\sstream
;	COMDAT ?seekpos@?$basic_stringbuf@DU?$char_traits@D@std@@V?$allocator@D@2@@std@@MAE?AV?$fpos@U_Mbstatet@@@2@V32@H@Z
_TEXT	SEGMENT
tv195 = -288						; size = 8
__Newptr$ = -84						; size = 4
__Seekdist$ = -72					; size = 4
__Seeklow$ = -60					; size = 4
__Pptr_old$ = -48					; size = 4
__Gptr_old$ = -36					; size = 4
__Off$ = -24						; size = 8
_this$ = -8						; size = 4
___$ReturnUdt$ = 8					; size = 4
__Pos$ = 12						; size = 24
__Mode$ = 36						; size = 4
?seekpos@?$basic_stringbuf@DU?$char_traits@D@std@@V?$allocator@D@2@@std@@MAE?AV?$fpos@U_Mbstatet@@@2@V32@H@Z PROC ; std::basic_stringbuf<char,std::char_traits<char>,std::allocator<char> >::seekpos, COMDAT
; _this$ = ecx

; 263  :     virtual pos_type seekpos(pos_type _Pos, ios_base::openmode _Mode = ios_base::in | ios_base::out) {

  00000	55		 push	 ebp
  00001	8b ec		 mov	 ebp, esp
  00003	81 ec 20 01 00
	00		 sub	 esp, 288		; 00000120H
  00009	53		 push	 ebx
  0000a	56		 push	 esi
  0000b	57		 push	 edi
  0000c	51		 push	 ecx
  0000d	8d bd e0 fe ff
	ff		 lea	 edi, DWORD PTR [ebp-288]
  00013	b9 48 00 00 00	 mov	 ecx, 72			; 00000048H
  00018	b8 cc cc cc cc	 mov	 eax, -858993460		; ccccccccH
  0001d	f3 ab		 rep stosd
  0001f	59		 pop	 ecx
  00020	89 4d f8	 mov	 DWORD PTR _this$[ebp], ecx
  00023	b9 00 00 00 00	 mov	 ecx, OFFSET __A934846A_sstream
  00028	e8 00 00 00 00	 call	 @__CheckForDebuggerJustMyCode@4

; 264  :         // change position to _Pos, according to _Mode
; 265  :         const auto _Off      = static_cast<streamoff>(_Pos);

  0002d	8d 4d 0c	 lea	 ecx, DWORD PTR __Pos$[ebp]
  00030	e8 00 00 00 00	 call	 ??B?$fpos@U_Mbstatet@@@std@@QBE_JXZ ; std::fpos<_Mbstatet>::operator __int64
  00035	89 45 e8	 mov	 DWORD PTR __Off$[ebp], eax
  00038	89 55 ec	 mov	 DWORD PTR __Off$[ebp+4], edx

; 266  :         const auto _Gptr_old = _Mysb::gptr();

  0003b	8b f4		 mov	 esi, esp
  0003d	8b 4d f8	 mov	 ecx, DWORD PTR _this$[ebp]
  00040	ff 15 00 00 00
	00		 call	 DWORD PTR __imp_?gptr@?$basic_streambuf@DU?$char_traits@D@std@@@std@@IBEPADXZ
  00046	3b f4		 cmp	 esi, esp
  00048	e8 00 00 00 00	 call	 __RTC_CheckEsp
  0004d	89 45 dc	 mov	 DWORD PTR __Gptr_old$[ebp], eax

; 267  :         const auto _Pptr_old = _Mysb::pptr();

  00050	8b f4		 mov	 esi, esp
  00052	8b 4d f8	 mov	 ecx, DWORD PTR _this$[ebp]
  00055	ff 15 00 00 00
	00		 call	 DWORD PTR __imp_?pptr@?$basic_streambuf@DU?$char_traits@D@std@@@std@@IBEPADXZ
  0005b	3b f4		 cmp	 esi, esp
  0005d	e8 00 00 00 00	 call	 __RTC_CheckEsp
  00062	89 45 d0	 mov	 DWORD PTR __Pptr_old$[ebp], eax

; 268  :         if (_Pptr_old && _Seekhigh < _Pptr_old) { // update high-water pointer

  00065	83 7d d0 00	 cmp	 DWORD PTR __Pptr_old$[ebp], 0
  00069	74 14		 je	 SHORT $LN2@seekpos
  0006b	8b 45 f8	 mov	 eax, DWORD PTR _this$[ebp]
  0006e	8b 48 38	 mov	 ecx, DWORD PTR [eax+56]
  00071	3b 4d d0	 cmp	 ecx, DWORD PTR __Pptr_old$[ebp]
  00074	73 09		 jae	 SHORT $LN2@seekpos

; 269  :             _Seekhigh = _Pptr_old;

  00076	8b 45 f8	 mov	 eax, DWORD PTR _this$[ebp]
  00079	8b 4d d0	 mov	 ecx, DWORD PTR __Pptr_old$[ebp]
  0007c	89 48 38	 mov	 DWORD PTR [eax+56], ecx
$LN2@seekpos:

; 270  :         }
; 271  : 
; 272  :         const auto _Seeklow  = _Mysb::eback();

  0007f	8b f4		 mov	 esi, esp
  00081	8b 4d f8	 mov	 ecx, DWORD PTR _this$[ebp]
  00084	ff 15 00 00 00
	00		 call	 DWORD PTR __imp_?eback@?$basic_streambuf@DU?$char_traits@D@std@@@std@@IBEPADXZ
  0008a	3b f4		 cmp	 esi, esp
  0008c	e8 00 00 00 00	 call	 __RTC_CheckEsp
  00091	89 45 c4	 mov	 DWORD PTR __Seeklow$[ebp], eax

; 273  :         const auto _Seekdist = _Seekhigh - _Seeklow;

  00094	8b 45 f8	 mov	 eax, DWORD PTR _this$[ebp]
  00097	8b 48 38	 mov	 ecx, DWORD PTR [eax+56]
  0009a	2b 4d c4	 sub	 ecx, DWORD PTR __Seeklow$[ebp]
  0009d	89 4d b8	 mov	 DWORD PTR __Seekdist$[ebp], ecx

; 274  :         if (static_cast<unsigned long long>(_Off) > static_cast<unsigned long long>(_Seekdist)) {

  000a0	8b 45 b8	 mov	 eax, DWORD PTR __Seekdist$[ebp]
  000a3	99		 cdq
  000a4	89 85 e0 fe ff
	ff		 mov	 DWORD PTR tv195[ebp], eax
  000aa	89 95 e4 fe ff
	ff		 mov	 DWORD PTR tv195[ebp+4], edx
  000b0	8b 45 ec	 mov	 eax, DWORD PTR __Off$[ebp+4]
  000b3	3b 85 e4 fe ff
	ff		 cmp	 eax, DWORD PTR tv195[ebp+4]
  000b9	72 21		 jb	 SHORT $LN3@seekpos
  000bb	77 0b		 ja	 SHORT $LN10@seekpos
  000bd	8b 4d e8	 mov	 ecx, DWORD PTR __Off$[ebp]
  000c0	3b 8d e0 fe ff
	ff		 cmp	 ecx, DWORD PTR tv195[ebp]
  000c6	76 14		 jbe	 SHORT $LN3@seekpos
$LN10@seekpos:

; 275  :             return pos_type(off_type(-1));

  000c8	6a ff		 push	 -1
  000ca	6a ff		 push	 -1
  000cc	8b 4d 08	 mov	 ecx, DWORD PTR ___$ReturnUdt$[ebp]
  000cf	e8 00 00 00 00	 call	 ??0?$fpos@U_Mbstatet@@@std@@QAE@_J@Z ; std::fpos<_Mbstatet>::fpos<_Mbstatet>
  000d4	8b 45 08	 mov	 eax, DWORD PTR ___$ReturnUdt$[ebp]
  000d7	e9 be 00 00 00	 jmp	 $LN1@seekpos
$LN3@seekpos:

; 276  :         }
; 277  : 
; 278  :         if (_Off != 0 && (((_Mode & ios_base::in) && !_Gptr_old) || ((_Mode & ios_base::out) && !_Pptr_old))) {

  000dc	8b 45 e8	 mov	 eax, DWORD PTR __Off$[ebp]
  000df	0b 45 ec	 or	 eax, DWORD PTR __Off$[ebp+4]
  000e2	74 30		 je	 SHORT $LN4@seekpos
  000e4	8b 45 24	 mov	 eax, DWORD PTR __Mode$[ebp]
  000e7	83 e0 01	 and	 eax, 1
  000ea	74 06		 je	 SHORT $LN6@seekpos
  000ec	83 7d dc 00	 cmp	 DWORD PTR __Gptr_old$[ebp], 0
  000f0	74 0e		 je	 SHORT $LN5@seekpos
$LN6@seekpos:
  000f2	8b 45 24	 mov	 eax, DWORD PTR __Mode$[ebp]
  000f5	83 e0 02	 and	 eax, 2
  000f8	74 1a		 je	 SHORT $LN4@seekpos
  000fa	83 7d d0 00	 cmp	 DWORD PTR __Pptr_old$[ebp], 0
  000fe	75 14		 jne	 SHORT $LN4@seekpos
$LN5@seekpos:

; 279  :             return pos_type(off_type(-1));

  00100	6a ff		 push	 -1
  00102	6a ff		 push	 -1
  00104	8b 4d 08	 mov	 ecx, DWORD PTR ___$ReturnUdt$[ebp]
  00107	e8 00 00 00 00	 call	 ??0?$fpos@U_Mbstatet@@@std@@QAE@_J@Z ; std::fpos<_Mbstatet>::fpos<_Mbstatet>
  0010c	8b 45 08	 mov	 eax, DWORD PTR ___$ReturnUdt$[ebp]
  0010f	e9 86 00 00 00	 jmp	 $LN1@seekpos
$LN4@seekpos:

; 280  :         }
; 281  : 
; 282  :         const auto _Newptr = _Seeklow + _Off; // may perform nullptr + 0

  00114	8b 45 e8	 mov	 eax, DWORD PTR __Off$[ebp]
  00117	03 45 c4	 add	 eax, DWORD PTR __Seeklow$[ebp]
  0011a	89 45 ac	 mov	 DWORD PTR __Newptr$[ebp], eax

; 283  :         if ((_Mode & ios_base::in) && _Gptr_old) {

  0011d	8b 45 24	 mov	 eax, DWORD PTR __Mode$[ebp]
  00120	83 e0 01	 and	 eax, 1
  00123	74 27		 je	 SHORT $LN7@seekpos
  00125	83 7d dc 00	 cmp	 DWORD PTR __Gptr_old$[ebp], 0
  00129	74 21		 je	 SHORT $LN7@seekpos

; 284  :             _Mysb::setg(_Seeklow, _Newptr, _Seekhigh);

  0012b	8b f4		 mov	 esi, esp
  0012d	8b 45 f8	 mov	 eax, DWORD PTR _this$[ebp]
  00130	8b 48 38	 mov	 ecx, DWORD PTR [eax+56]
  00133	51		 push	 ecx
  00134	8b 55 ac	 mov	 edx, DWORD PTR __Newptr$[ebp]
  00137	52		 push	 edx
  00138	8b 45 c4	 mov	 eax, DWORD PTR __Seeklow$[ebp]
  0013b	50		 push	 eax
  0013c	8b 4d f8	 mov	 ecx, DWORD PTR _this$[ebp]
  0013f	ff 15 00 00 00
	00		 call	 DWORD PTR __imp_?setg@?$basic_streambuf@DU?$char_traits@D@std@@@std@@IAEXPAD00@Z
  00145	3b f4		 cmp	 esi, esp
  00147	e8 00 00 00 00	 call	 __RTC_CheckEsp
$LN7@seekpos:

; 285  :         }
; 286  : 
; 287  :         if ((_Mode & ios_base::out) && _Pptr_old) {

  0014c	8b 45 24	 mov	 eax, DWORD PTR __Mode$[ebp]
  0014f	83 e0 02	 and	 eax, 2
  00152	74 33		 je	 SHORT $LN8@seekpos
  00154	83 7d d0 00	 cmp	 DWORD PTR __Pptr_old$[ebp], 0
  00158	74 2d		 je	 SHORT $LN8@seekpos

; 288  :             _Mysb::setp(_Seeklow, _Newptr, _Mysb::epptr());

  0015a	8b f4		 mov	 esi, esp
  0015c	8b 4d f8	 mov	 ecx, DWORD PTR _this$[ebp]
  0015f	ff 15 00 00 00
	00		 call	 DWORD PTR __imp_?epptr@?$basic_streambuf@DU?$char_traits@D@std@@@std@@IBEPADXZ
  00165	3b f4		 cmp	 esi, esp
  00167	e8 00 00 00 00	 call	 __RTC_CheckEsp
  0016c	8b f4		 mov	 esi, esp
  0016e	50		 push	 eax
  0016f	8b 45 ac	 mov	 eax, DWORD PTR __Newptr$[ebp]
  00172	50		 push	 eax
  00173	8b 4d c4	 mov	 ecx, DWORD PTR __Seeklow$[ebp]
  00176	51		 push	 ecx
  00177	8b 4d f8	 mov	 ecx, DWORD PTR _this$[ebp]
  0017a	ff 15 00 00 00
	00		 call	 DWORD PTR __imp_?setp@?$basic_streambuf@DU?$char_traits@D@std@@@std@@IAEXPAD00@Z
  00180	3b f4		 cmp	 esi, esp
  00182	e8 00 00 00 00	 call	 __RTC_CheckEsp
$LN8@seekpos:

; 289  :         }
; 290  : 
; 291  :         return pos_type(_Off);

  00187	8b 45 ec	 mov	 eax, DWORD PTR __Off$[ebp+4]
  0018a	50		 push	 eax
  0018b	8b 4d e8	 mov	 ecx, DWORD PTR __Off$[ebp]
  0018e	51		 push	 ecx
  0018f	8b 4d 08	 mov	 ecx, DWORD PTR ___$ReturnUdt$[ebp]
  00192	e8 00 00 00 00	 call	 ??0?$fpos@U_Mbstatet@@@std@@QAE@_J@Z ; std::fpos<_Mbstatet>::fpos<_Mbstatet>
  00197	8b 45 08	 mov	 eax, DWORD PTR ___$ReturnUdt$[ebp]
$LN1@seekpos:

; 292  :     }

  0019a	5f		 pop	 edi
  0019b	5e		 pop	 esi
  0019c	5b		 pop	 ebx
  0019d	81 c4 20 01 00
	00		 add	 esp, 288		; 00000120H
  001a3	3b ec		 cmp	 ebp, esp
  001a5	e8 00 00 00 00	 call	 __RTC_CheckEsp
  001aa	8b e5		 mov	 esp, ebp
  001ac	5d		 pop	 ebp
  001ad	c2 20 00	 ret	 32			; 00000020H
?seekpos@?$basic_stringbuf@DU?$char_traits@D@std@@V?$allocator@D@2@@std@@MAE?AV?$fpos@U_Mbstatet@@@2@V32@H@Z ENDP ; std::basic_stringbuf<char,std::char_traits<char>,std::allocator<char> >::seekpos
_TEXT	ENDS
; Function compile flags: /Odtp /RTCsu /ZI
; File C:\Program Files (x86)\Microsoft Visual Studio\2019\Community\VC\Tools\MSVC\14.24.28314\include\sstream
;	COMDAT ?seekoff@?$basic_stringbuf@DU?$char_traits@D@std@@V?$allocator@D@2@@std@@MAE?AV?$fpos@U_Mbstatet@@@2@_JHH@Z
_TEXT	SEGMENT
tv247 = -308						; size = 8
tv244 = -300						; size = 8
tv88 = -296						; size = 4
__Newptr$ = -96						; size = 4
__Both$1 = -84						; size = 4
__Newoff$ = -72						; size = 8
__Seekdist$ = -56					; size = 4
__Seeklow$ = -44					; size = 4
__Pptr_old$ = -32					; size = 4
__Gptr_old$ = -20					; size = 4
_this$ = -8						; size = 4
___$ReturnUdt$ = 8					; size = 4
__Off$ = 12						; size = 8
__Way$ = 20						; size = 4
__Mode$ = 24						; size = 4
?seekoff@?$basic_stringbuf@DU?$char_traits@D@std@@V?$allocator@D@2@@std@@MAE?AV?$fpos@U_Mbstatet@@@2@_JHH@Z PROC ; std::basic_stringbuf<char,std::char_traits<char>,std::allocator<char> >::seekoff, COMDAT
; _this$ = ecx

; 204  :         off_type _Off, ios_base::seekdir _Way, ios_base::openmode _Mode = ios_base::in | ios_base::out) {

  00000	55		 push	 ebp
  00001	8b ec		 mov	 ebp, esp
  00003	81 ec 34 01 00
	00		 sub	 esp, 308		; 00000134H
  00009	53		 push	 ebx
  0000a	56		 push	 esi
  0000b	57		 push	 edi
  0000c	51		 push	 ecx
  0000d	8d bd cc fe ff
	ff		 lea	 edi, DWORD PTR [ebp-308]
  00013	b9 4d 00 00 00	 mov	 ecx, 77			; 0000004dH
  00018	b8 cc cc cc cc	 mov	 eax, -858993460		; ccccccccH
  0001d	f3 ab		 rep stosd
  0001f	59		 pop	 ecx
  00020	89 4d f8	 mov	 DWORD PTR _this$[ebp], ecx
  00023	b9 00 00 00 00	 mov	 ecx, OFFSET __A934846A_sstream
  00028	e8 00 00 00 00	 call	 @__CheckForDebuggerJustMyCode@4

; 205  :         // change position by _Off, according to _Way, _Mode
; 206  :         const auto _Gptr_old = _Mysb::gptr();

  0002d	8b f4		 mov	 esi, esp
  0002f	8b 4d f8	 mov	 ecx, DWORD PTR _this$[ebp]
  00032	ff 15 00 00 00
	00		 call	 DWORD PTR __imp_?gptr@?$basic_streambuf@DU?$char_traits@D@std@@@std@@IBEPADXZ
  00038	3b f4		 cmp	 esi, esp
  0003a	e8 00 00 00 00	 call	 __RTC_CheckEsp
  0003f	89 45 ec	 mov	 DWORD PTR __Gptr_old$[ebp], eax

; 207  :         const auto _Pptr_old = _Mysb::pptr();

  00042	8b f4		 mov	 esi, esp
  00044	8b 4d f8	 mov	 ecx, DWORD PTR _this$[ebp]
  00047	ff 15 00 00 00
	00		 call	 DWORD PTR __imp_?pptr@?$basic_streambuf@DU?$char_traits@D@std@@@std@@IBEPADXZ
  0004d	3b f4		 cmp	 esi, esp
  0004f	e8 00 00 00 00	 call	 __RTC_CheckEsp
  00054	89 45 e0	 mov	 DWORD PTR __Pptr_old$[ebp], eax

; 208  :         if (_Pptr_old && _Seekhigh < _Pptr_old) { // update high-water pointer

  00057	83 7d e0 00	 cmp	 DWORD PTR __Pptr_old$[ebp], 0
  0005b	74 14		 je	 SHORT $LN4@seekoff
  0005d	8b 45 f8	 mov	 eax, DWORD PTR _this$[ebp]
  00060	8b 48 38	 mov	 ecx, DWORD PTR [eax+56]
  00063	3b 4d e0	 cmp	 ecx, DWORD PTR __Pptr_old$[ebp]
  00066	73 09		 jae	 SHORT $LN4@seekoff

; 209  :             _Seekhigh = _Pptr_old;

  00068	8b 45 f8	 mov	 eax, DWORD PTR _this$[ebp]
  0006b	8b 4d e0	 mov	 ecx, DWORD PTR __Pptr_old$[ebp]
  0006e	89 48 38	 mov	 DWORD PTR [eax+56], ecx
$LN4@seekoff:

; 210  :         }
; 211  : 
; 212  :         const auto _Seeklow  = _Mysb::eback();

  00071	8b f4		 mov	 esi, esp
  00073	8b 4d f8	 mov	 ecx, DWORD PTR _this$[ebp]
  00076	ff 15 00 00 00
	00		 call	 DWORD PTR __imp_?eback@?$basic_streambuf@DU?$char_traits@D@std@@@std@@IBEPADXZ
  0007c	3b f4		 cmp	 esi, esp
  0007e	e8 00 00 00 00	 call	 __RTC_CheckEsp
  00083	89 45 d4	 mov	 DWORD PTR __Seeklow$[ebp], eax

; 213  :         const auto _Seekdist = _Seekhigh - _Seeklow;

  00086	8b 45 f8	 mov	 eax, DWORD PTR _this$[ebp]
  00089	8b 48 38	 mov	 ecx, DWORD PTR [eax+56]
  0008c	2b 4d d4	 sub	 ecx, DWORD PTR __Seeklow$[ebp]
  0008f	89 4d c8	 mov	 DWORD PTR __Seekdist$[ebp], ecx

; 214  :         off_type _Newoff;
; 215  :         switch (_Way) {

  00092	8b 45 14	 mov	 eax, DWORD PTR __Way$[ebp]
  00095	89 85 d8 fe ff
	ff		 mov	 DWORD PTR tv88[ebp], eax
  0009b	83 bd d8 fe ff
	ff 00		 cmp	 DWORD PTR tv88[ebp], 0
  000a2	74 14		 je	 SHORT $LN5@seekoff
  000a4	83 bd d8 fe ff
	ff 01		 cmp	 DWORD PTR tv88[ebp], 1
  000ab	74 21		 je	 SHORT $LN7@seekoff
  000ad	83 bd d8 fe ff
	ff 02		 cmp	 DWORD PTR tv88[ebp], 2
  000b4	74 0c		 je	 SHORT $LN6@seekoff
  000b6	eb 70		 jmp	 SHORT $LN15@seekoff
$LN5@seekoff:

; 216  :         case ios_base::beg:
; 217  :             _Newoff = 0;

  000b8	0f 57 c0	 xorps	 xmm0, xmm0
  000bb	66 0f 13 45 b8	 movlpd	 QWORD PTR __Newoff$[ebp], xmm0

; 218  :             break;

  000c0	eb 7a		 jmp	 SHORT $LN2@seekoff
$LN6@seekoff:

; 219  :         case ios_base::end:
; 220  :             _Newoff = _Seekdist;

  000c2	8b 45 c8	 mov	 eax, DWORD PTR __Seekdist$[ebp]
  000c5	99		 cdq
  000c6	89 45 b8	 mov	 DWORD PTR __Newoff$[ebp], eax
  000c9	89 55 bc	 mov	 DWORD PTR __Newoff$[ebp+4], edx

; 221  :             break;

  000cc	eb 6e		 jmp	 SHORT $LN2@seekoff
$LN7@seekoff:

; 222  :         case ios_base::cur: {
; 223  :             constexpr auto _Both = ios_base::in | ios_base::out;

  000ce	c7 45 ac 03 00
	00 00		 mov	 DWORD PTR __Both$1[ebp], 3

; 224  :             if ((_Mode & _Both) != _Both) { // prohibited by N4727 [stringbuf.virtuals] Table 107 "seekoff positioning"

  000d5	8b 45 18	 mov	 eax, DWORD PTR __Mode$[ebp]
  000d8	83 e0 03	 and	 eax, 3
  000db	83 f8 03	 cmp	 eax, 3
  000de	74 48		 je	 SHORT $LN15@seekoff

; 225  :                 if (_Mode & ios_base::in) {

  000e0	8b 45 18	 mov	 eax, DWORD PTR __Mode$[ebp]
  000e3	83 e0 01	 and	 eax, 1
  000e6	74 1d		 je	 SHORT $LN9@seekoff

; 226  :                     if (_Gptr_old || !_Seeklow) {

  000e8	83 7d ec 00	 cmp	 DWORD PTR __Gptr_old$[ebp], 0
  000ec	75 06		 jne	 SHORT $LN12@seekoff
  000ee	83 7d d4 00	 cmp	 DWORD PTR __Seeklow$[ebp], 0
  000f2	75 0f		 jne	 SHORT $LN11@seekoff
$LN12@seekoff:

; 227  :                         _Newoff = _Gptr_old - _Seeklow;

  000f4	8b 45 ec	 mov	 eax, DWORD PTR __Gptr_old$[ebp]
  000f7	2b 45 d4	 sub	 eax, DWORD PTR __Seeklow$[ebp]
  000fa	99		 cdq
  000fb	89 45 b8	 mov	 DWORD PTR __Newoff$[ebp], eax
  000fe	89 55 bc	 mov	 DWORD PTR __Newoff$[ebp+4], edx

; 228  :                         break;

  00101	eb 39		 jmp	 SHORT $LN2@seekoff
$LN11@seekoff:

; 229  :                     }

  00103	eb 23		 jmp	 SHORT $LN15@seekoff
$LN9@seekoff:

; 230  :                 } else if ((_Mode & ios_base::out) && (_Pptr_old || !_Seeklow)) {

  00105	8b 45 18	 mov	 eax, DWORD PTR __Mode$[ebp]
  00108	83 e0 02	 and	 eax, 2
  0010b	74 1b		 je	 SHORT $LN15@seekoff
  0010d	83 7d e0 00	 cmp	 DWORD PTR __Pptr_old$[ebp], 0
  00111	75 06		 jne	 SHORT $LN14@seekoff
  00113	83 7d d4 00	 cmp	 DWORD PTR __Seeklow$[ebp], 0
  00117	75 0f		 jne	 SHORT $LN15@seekoff
$LN14@seekoff:

; 231  :                     _Newoff = _Pptr_old - _Seeklow;

  00119	8b 45 e0	 mov	 eax, DWORD PTR __Pptr_old$[ebp]
  0011c	2b 45 d4	 sub	 eax, DWORD PTR __Seeklow$[ebp]
  0011f	99		 cdq
  00120	89 45 b8	 mov	 DWORD PTR __Newoff$[ebp], eax
  00123	89 55 bc	 mov	 DWORD PTR __Newoff$[ebp+4], edx

; 232  :                     break;

  00126	eb 14		 jmp	 SHORT $LN2@seekoff
$LN15@seekoff:

; 233  :                 }
; 234  :             }
; 235  :         }
; 236  : 
; 237  :             // fallthrough
; 238  :         default:
; 239  :             return pos_type(off_type(-1));

  00128	6a ff		 push	 -1
  0012a	6a ff		 push	 -1
  0012c	8b 4d 08	 mov	 ecx, DWORD PTR ___$ReturnUdt$[ebp]
  0012f	e8 00 00 00 00	 call	 ??0?$fpos@U_Mbstatet@@@std@@QAE@_J@Z ; std::fpos<_Mbstatet>::fpos<_Mbstatet>
  00134	8b 45 08	 mov	 eax, DWORD PTR ___$ReturnUdt$[ebp]
  00137	e9 2a 01 00 00	 jmp	 $LN1@seekoff
$LN2@seekoff:

; 240  :         }
; 241  : 
; 242  :         if (static_cast<unsigned long long>(_Off) + _Newoff > static_cast<unsigned long long>(_Seekdist)) {

  0013c	8b 4d 0c	 mov	 ecx, DWORD PTR __Off$[ebp]
  0013f	03 4d b8	 add	 ecx, DWORD PTR __Newoff$[ebp]
  00142	8b 75 10	 mov	 esi, DWORD PTR __Off$[ebp+4]
  00145	13 75 bc	 adc	 esi, DWORD PTR __Newoff$[ebp+4]
  00148	8b 45 c8	 mov	 eax, DWORD PTR __Seekdist$[ebp]
  0014b	99		 cdq
  0014c	89 8d d4 fe ff
	ff		 mov	 DWORD PTR tv244[ebp], ecx
  00152	89 b5 d8 fe ff
	ff		 mov	 DWORD PTR tv244[ebp+4], esi
  00158	89 85 cc fe ff
	ff		 mov	 DWORD PTR tv247[ebp], eax
  0015e	89 95 d0 fe ff
	ff		 mov	 DWORD PTR tv247[ebp+4], edx
  00164	8b 95 d8 fe ff
	ff		 mov	 edx, DWORD PTR tv244[ebp+4]
  0016a	3b 95 d0 fe ff
	ff		 cmp	 edx, DWORD PTR tv247[ebp+4]
  00170	72 24		 jb	 SHORT $LN16@seekoff
  00172	77 0e		 ja	 SHORT $LN23@seekoff
  00174	8b 85 d4 fe ff
	ff		 mov	 eax, DWORD PTR tv244[ebp]
  0017a	3b 85 cc fe ff
	ff		 cmp	 eax, DWORD PTR tv247[ebp]
  00180	76 14		 jbe	 SHORT $LN16@seekoff
$LN23@seekoff:

; 243  :             return pos_type(off_type(-1));

  00182	6a ff		 push	 -1
  00184	6a ff		 push	 -1
  00186	8b 4d 08	 mov	 ecx, DWORD PTR ___$ReturnUdt$[ebp]
  00189	e8 00 00 00 00	 call	 ??0?$fpos@U_Mbstatet@@@std@@QAE@_J@Z ; std::fpos<_Mbstatet>::fpos<_Mbstatet>
  0018e	8b 45 08	 mov	 eax, DWORD PTR ___$ReturnUdt$[ebp]
  00191	e9 d0 00 00 00	 jmp	 $LN1@seekoff
$LN16@seekoff:

; 244  :         }
; 245  : 
; 246  :         _Off += _Newoff;

  00196	8b 45 0c	 mov	 eax, DWORD PTR __Off$[ebp]
  00199	03 45 b8	 add	 eax, DWORD PTR __Newoff$[ebp]
  0019c	8b 4d 10	 mov	 ecx, DWORD PTR __Off$[ebp+4]
  0019f	13 4d bc	 adc	 ecx, DWORD PTR __Newoff$[ebp+4]
  001a2	89 45 0c	 mov	 DWORD PTR __Off$[ebp], eax
  001a5	89 4d 10	 mov	 DWORD PTR __Off$[ebp+4], ecx

; 247  :         if (_Off != 0 && (((_Mode & ios_base::in) && !_Gptr_old) || ((_Mode & ios_base::out) && !_Pptr_old))) {

  001a8	8b 45 0c	 mov	 eax, DWORD PTR __Off$[ebp]
  001ab	0b 45 10	 or	 eax, DWORD PTR __Off$[ebp+4]
  001ae	74 30		 je	 SHORT $LN17@seekoff
  001b0	8b 45 18	 mov	 eax, DWORD PTR __Mode$[ebp]
  001b3	83 e0 01	 and	 eax, 1
  001b6	74 06		 je	 SHORT $LN19@seekoff
  001b8	83 7d ec 00	 cmp	 DWORD PTR __Gptr_old$[ebp], 0
  001bc	74 0e		 je	 SHORT $LN18@seekoff
$LN19@seekoff:
  001be	8b 45 18	 mov	 eax, DWORD PTR __Mode$[ebp]
  001c1	83 e0 02	 and	 eax, 2
  001c4	74 1a		 je	 SHORT $LN17@seekoff
  001c6	83 7d e0 00	 cmp	 DWORD PTR __Pptr_old$[ebp], 0
  001ca	75 14		 jne	 SHORT $LN17@seekoff
$LN18@seekoff:

; 248  :             return pos_type(off_type(-1));

  001cc	6a ff		 push	 -1
  001ce	6a ff		 push	 -1
  001d0	8b 4d 08	 mov	 ecx, DWORD PTR ___$ReturnUdt$[ebp]
  001d3	e8 00 00 00 00	 call	 ??0?$fpos@U_Mbstatet@@@std@@QAE@_J@Z ; std::fpos<_Mbstatet>::fpos<_Mbstatet>
  001d8	8b 45 08	 mov	 eax, DWORD PTR ___$ReturnUdt$[ebp]
  001db	e9 86 00 00 00	 jmp	 $LN1@seekoff
$LN17@seekoff:

; 249  :         }
; 250  : 
; 251  :         const auto _Newptr = _Seeklow + _Off; // may perform nullptr + 0

  001e0	8b 45 0c	 mov	 eax, DWORD PTR __Off$[ebp]
  001e3	03 45 d4	 add	 eax, DWORD PTR __Seeklow$[ebp]
  001e6	89 45 a0	 mov	 DWORD PTR __Newptr$[ebp], eax

; 252  :         if ((_Mode & ios_base::in) && _Gptr_old) {

  001e9	8b 45 18	 mov	 eax, DWORD PTR __Mode$[ebp]
  001ec	83 e0 01	 and	 eax, 1
  001ef	74 27		 je	 SHORT $LN20@seekoff
  001f1	83 7d ec 00	 cmp	 DWORD PTR __Gptr_old$[ebp], 0
  001f5	74 21		 je	 SHORT $LN20@seekoff

; 253  :             _Mysb::setg(_Seeklow, _Newptr, _Seekhigh);

  001f7	8b f4		 mov	 esi, esp
  001f9	8b 45 f8	 mov	 eax, DWORD PTR _this$[ebp]
  001fc	8b 48 38	 mov	 ecx, DWORD PTR [eax+56]
  001ff	51		 push	 ecx
  00200	8b 55 a0	 mov	 edx, DWORD PTR __Newptr$[ebp]
  00203	52		 push	 edx
  00204	8b 45 d4	 mov	 eax, DWORD PTR __Seeklow$[ebp]
  00207	50		 push	 eax
  00208	8b 4d f8	 mov	 ecx, DWORD PTR _this$[ebp]
  0020b	ff 15 00 00 00
	00		 call	 DWORD PTR __imp_?setg@?$basic_streambuf@DU?$char_traits@D@std@@@std@@IAEXPAD00@Z
  00211	3b f4		 cmp	 esi, esp
  00213	e8 00 00 00 00	 call	 __RTC_CheckEsp
$LN20@seekoff:

; 254  :         }
; 255  : 
; 256  :         if ((_Mode & ios_base::out) && _Pptr_old) {

  00218	8b 45 18	 mov	 eax, DWORD PTR __Mode$[ebp]
  0021b	83 e0 02	 and	 eax, 2
  0021e	74 33		 je	 SHORT $LN21@seekoff
  00220	83 7d e0 00	 cmp	 DWORD PTR __Pptr_old$[ebp], 0
  00224	74 2d		 je	 SHORT $LN21@seekoff

; 257  :             _Mysb::setp(_Seeklow, _Newptr, _Mysb::epptr());

  00226	8b f4		 mov	 esi, esp
  00228	8b 4d f8	 mov	 ecx, DWORD PTR _this$[ebp]
  0022b	ff 15 00 00 00
	00		 call	 DWORD PTR __imp_?epptr@?$basic_streambuf@DU?$char_traits@D@std@@@std@@IBEPADXZ
  00231	3b f4		 cmp	 esi, esp
  00233	e8 00 00 00 00	 call	 __RTC_CheckEsp
  00238	8b f4		 mov	 esi, esp
  0023a	50		 push	 eax
  0023b	8b 45 a0	 mov	 eax, DWORD PTR __Newptr$[ebp]
  0023e	50		 push	 eax
  0023f	8b 4d d4	 mov	 ecx, DWORD PTR __Seeklow$[ebp]
  00242	51		 push	 ecx
  00243	8b 4d f8	 mov	 ecx, DWORD PTR _this$[ebp]
  00246	ff 15 00 00 00
	00		 call	 DWORD PTR __imp_?setp@?$basic_streambuf@DU?$char_traits@D@std@@@std@@IAEXPAD00@Z
  0024c	3b f4		 cmp	 esi, esp
  0024e	e8 00 00 00 00	 call	 __RTC_CheckEsp
$LN21@seekoff:

; 258  :         }
; 259  : 
; 260  :         return pos_type(_Off);

  00253	8b 45 10	 mov	 eax, DWORD PTR __Off$[ebp+4]
  00256	50		 push	 eax
  00257	8b 4d 0c	 mov	 ecx, DWORD PTR __Off$[ebp]
  0025a	51		 push	 ecx
  0025b	8b 4d 08	 mov	 ecx, DWORD PTR ___$ReturnUdt$[ebp]
  0025e	e8 00 00 00 00	 call	 ??0?$fpos@U_Mbstatet@@@std@@QAE@_J@Z ; std::fpos<_Mbstatet>::fpos<_Mbstatet>
  00263	8b 45 08	 mov	 eax, DWORD PTR ___$ReturnUdt$[ebp]
$LN1@seekoff:

; 261  :     }

  00266	5f		 pop	 edi
  00267	5e		 pop	 esi
  00268	5b		 pop	 ebx
  00269	81 c4 34 01 00
	00		 add	 esp, 308		; 00000134H
  0026f	3b ec		 cmp	 ebp, esp
  00271	e8 00 00 00 00	 call	 __RTC_CheckEsp
  00276	8b e5		 mov	 esp, ebp
  00278	5d		 pop	 ebp
  00279	c2 14 00	 ret	 20			; 00000014H
?seekoff@?$basic_stringbuf@DU?$char_traits@D@std@@V?$allocator@D@2@@std@@MAE?AV?$fpos@U_Mbstatet@@@2@_JHH@Z ENDP ; std::basic_stringbuf<char,std::char_traits<char>,std::allocator<char> >::seekoff
_TEXT	ENDS
; Function compile flags: /Odtp /RTCsu /ZI
; File C:\Program Files (x86)\Microsoft Visual Studio\2019\Community\VC\Tools\MSVC\14.24.28314\include\sstream
;	COMDAT ?underflow@?$basic_stringbuf@DU?$char_traits@D@std@@V?$allocator@D@2@@std@@MAEHXZ
_TEXT	SEGMENT
__Local_highwater$ = -48				; size = 4
__Pptr$ = -36						; size = 4
__Gptr$ = -24						; size = 4
_this$ = -12						; size = 4
__$ArrayPad$ = -4					; size = 4
?underflow@?$basic_stringbuf@DU?$char_traits@D@std@@V?$allocator@D@2@@std@@MAEHXZ PROC ; std::basic_stringbuf<char,std::char_traits<char>,std::allocator<char> >::underflow, COMDAT
; _this$ = ecx

; 177  :     virtual int_type underflow() { // get an element from stream, but don't point past it

  00000	55		 push	 ebp
  00001	8b ec		 mov	 ebp, esp
  00003	81 ec f4 00 00
	00		 sub	 esp, 244		; 000000f4H
  00009	53		 push	 ebx
  0000a	56		 push	 esi
  0000b	57		 push	 edi
  0000c	51		 push	 ecx
  0000d	8d bd 0c ff ff
	ff		 lea	 edi, DWORD PTR [ebp-244]
  00013	b9 3d 00 00 00	 mov	 ecx, 61			; 0000003dH
  00018	b8 cc cc cc cc	 mov	 eax, -858993460		; ccccccccH
  0001d	f3 ab		 rep stosd
  0001f	59		 pop	 ecx
  00020	a1 00 00 00 00	 mov	 eax, DWORD PTR ___security_cookie
  00025	33 c5		 xor	 eax, ebp
  00027	89 45 fc	 mov	 DWORD PTR __$ArrayPad$[ebp], eax
  0002a	89 4d f4	 mov	 DWORD PTR _this$[ebp], ecx
  0002d	b9 00 00 00 00	 mov	 ecx, OFFSET __A934846A_sstream
  00032	e8 00 00 00 00	 call	 @__CheckForDebuggerJustMyCode@4

; 178  :         const auto _Gptr = _Mysb::gptr();

  00037	8b f4		 mov	 esi, esp
  00039	8b 4d f4	 mov	 ecx, DWORD PTR _this$[ebp]
  0003c	ff 15 00 00 00
	00		 call	 DWORD PTR __imp_?gptr@?$basic_streambuf@DU?$char_traits@D@std@@@std@@IBEPADXZ
  00042	3b f4		 cmp	 esi, esp
  00044	e8 00 00 00 00	 call	 __RTC_CheckEsp
  00049	89 45 e8	 mov	 DWORD PTR __Gptr$[ebp], eax

; 179  :         if (!_Gptr) { // no character buffer, fail

  0004c	83 7d e8 00	 cmp	 DWORD PTR __Gptr$[ebp], 0
  00050	75 0a		 jne	 SHORT $LN2@underflow

; 180  :             return _Traits::eof();

  00052	e8 00 00 00 00	 call	 ?eof@?$_Narrow_char_traits@DH@std@@SAHXZ ; std::_Narrow_char_traits<char,int>::eof
  00057	e9 df 00 00 00	 jmp	 $LN1@underflow
$LN2@underflow:

; 181  :         }
; 182  : 
; 183  :         if (_Gptr < _Mysb::egptr()) {

  0005c	8b f4		 mov	 esi, esp
  0005e	8b 4d f4	 mov	 ecx, DWORD PTR _this$[ebp]
  00061	ff 15 00 00 00
	00		 call	 DWORD PTR __imp_?egptr@?$basic_streambuf@DU?$char_traits@D@std@@@std@@IBEPADXZ
  00067	3b f4		 cmp	 esi, esp
  00069	e8 00 00 00 00	 call	 __RTC_CheckEsp
  0006e	39 45 e8	 cmp	 DWORD PTR __Gptr$[ebp], eax
  00071	73 11		 jae	 SHORT $LN3@underflow

; 184  :             return _Traits::to_int_type(*_Gptr);

  00073	8b 45 e8	 mov	 eax, DWORD PTR __Gptr$[ebp]
  00076	50		 push	 eax
  00077	e8 00 00 00 00	 call	 ?to_int_type@?$_Narrow_char_traits@DH@std@@SAHABD@Z ; std::_Narrow_char_traits<char,int>::to_int_type
  0007c	83 c4 04	 add	 esp, 4
  0007f	e9 b7 00 00 00	 jmp	 $LN1@underflow
$LN3@underflow:

; 185  :         }
; 186  : 
; 187  :         // try to add initialized characters from the put area into the get area
; 188  :         const auto _Pptr = _Mysb::pptr();

  00084	8b f4		 mov	 esi, esp
  00086	8b 4d f4	 mov	 ecx, DWORD PTR _this$[ebp]
  00089	ff 15 00 00 00
	00		 call	 DWORD PTR __imp_?pptr@?$basic_streambuf@DU?$char_traits@D@std@@@std@@IBEPADXZ
  0008f	3b f4		 cmp	 esi, esp
  00091	e8 00 00 00 00	 call	 __RTC_CheckEsp
  00096	89 45 dc	 mov	 DWORD PTR __Pptr$[ebp], eax

; 189  :         if (!_Pptr || (_Mystate & _Noread)) { // no put area or read disallowed

  00099	83 7d dc 00	 cmp	 DWORD PTR __Pptr$[ebp], 0
  0009d	74 0b		 je	 SHORT $LN5@underflow
  0009f	8b 45 f4	 mov	 eax, DWORD PTR _this$[ebp]
  000a2	8b 48 3c	 mov	 ecx, DWORD PTR [eax+60]
  000a5	83 e1 04	 and	 ecx, 4
  000a8	74 0a		 je	 SHORT $LN4@underflow
$LN5@underflow:

; 190  :             return _Traits::eof();

  000aa	e8 00 00 00 00	 call	 ?eof@?$_Narrow_char_traits@DH@std@@SAHXZ ; std::_Narrow_char_traits<char,int>::eof
  000af	e9 87 00 00 00	 jmp	 $LN1@underflow
$LN4@underflow:

; 191  :         }
; 192  : 
; 193  :         const auto _Local_highwater = _Max_value(_Seekhigh, _Pptr);

  000b4	8d 45 dc	 lea	 eax, DWORD PTR __Pptr$[ebp]
  000b7	50		 push	 eax
  000b8	8b 4d f4	 mov	 ecx, DWORD PTR _this$[ebp]
  000bb	83 c1 38	 add	 ecx, 56			; 00000038H
  000be	51		 push	 ecx
  000bf	e8 00 00 00 00	 call	 ??$_Max_value@PAD@std@@YAABQADABQAD0@Z ; std::_Max_value<char *>
  000c4	83 c4 08	 add	 esp, 8
  000c7	8b 10		 mov	 edx, DWORD PTR [eax]
  000c9	89 55 d0	 mov	 DWORD PTR __Local_highwater$[ebp], edx

; 194  :         if (_Local_highwater <= _Gptr) { // nothing in the put area to take

  000cc	8b 45 d0	 mov	 eax, DWORD PTR __Local_highwater$[ebp]
  000cf	3b 45 e8	 cmp	 eax, DWORD PTR __Gptr$[ebp]
  000d2	77 07		 ja	 SHORT $LN6@underflow

; 195  :             return _Traits::eof();

  000d4	e8 00 00 00 00	 call	 ?eof@?$_Narrow_char_traits@DH@std@@SAHXZ ; std::_Narrow_char_traits<char,int>::eof
  000d9	eb 60		 jmp	 SHORT $LN1@underflow
$LN6@underflow:

; 196  :         }
; 197  : 
; 198  :         _Seekhigh = _Local_highwater;

  000db	8b 45 f4	 mov	 eax, DWORD PTR _this$[ebp]
  000de	8b 4d d0	 mov	 ecx, DWORD PTR __Local_highwater$[ebp]
  000e1	89 48 38	 mov	 DWORD PTR [eax+56], ecx

; 199  :         _Mysb::setg(_Mysb::eback(), _Mysb::gptr(), _Local_highwater);

  000e4	8b f4		 mov	 esi, esp
  000e6	8b 45 d0	 mov	 eax, DWORD PTR __Local_highwater$[ebp]
  000e9	50		 push	 eax
  000ea	8b fc		 mov	 edi, esp
  000ec	8b 4d f4	 mov	 ecx, DWORD PTR _this$[ebp]
  000ef	ff 15 00 00 00
	00		 call	 DWORD PTR __imp_?gptr@?$basic_streambuf@DU?$char_traits@D@std@@@std@@IBEPADXZ
  000f5	3b fc		 cmp	 edi, esp
  000f7	e8 00 00 00 00	 call	 __RTC_CheckEsp
  000fc	50		 push	 eax
  000fd	8b fc		 mov	 edi, esp
  000ff	8b 4d f4	 mov	 ecx, DWORD PTR _this$[ebp]
  00102	ff 15 00 00 00
	00		 call	 DWORD PTR __imp_?eback@?$basic_streambuf@DU?$char_traits@D@std@@@std@@IBEPADXZ
  00108	3b fc		 cmp	 edi, esp
  0010a	e8 00 00 00 00	 call	 __RTC_CheckEsp
  0010f	50		 push	 eax
  00110	8b 4d f4	 mov	 ecx, DWORD PTR _this$[ebp]
  00113	ff 15 00 00 00
	00		 call	 DWORD PTR __imp_?setg@?$basic_streambuf@DU?$char_traits@D@std@@@std@@IAEXPAD00@Z
  00119	3b f4		 cmp	 esi, esp
  0011b	e8 00 00 00 00	 call	 __RTC_CheckEsp

; 200  :         return _Traits::to_int_type(*_Mysb::gptr());

  00120	8b f4		 mov	 esi, esp
  00122	8b 4d f4	 mov	 ecx, DWORD PTR _this$[ebp]
  00125	ff 15 00 00 00
	00		 call	 DWORD PTR __imp_?gptr@?$basic_streambuf@DU?$char_traits@D@std@@@std@@IBEPADXZ
  0012b	3b f4		 cmp	 esi, esp
  0012d	e8 00 00 00 00	 call	 __RTC_CheckEsp
  00132	50		 push	 eax
  00133	e8 00 00 00 00	 call	 ?to_int_type@?$_Narrow_char_traits@DH@std@@SAHABD@Z ; std::_Narrow_char_traits<char,int>::to_int_type
  00138	83 c4 04	 add	 esp, 4
$LN1@underflow:

; 201  :     }

  0013b	52		 push	 edx
  0013c	8b cd		 mov	 ecx, ebp
  0013e	50		 push	 eax
  0013f	8d 15 00 00 00
	00		 lea	 edx, DWORD PTR $LN10@underflow
  00145	e8 00 00 00 00	 call	 @_RTC_CheckStackVars@8
  0014a	58		 pop	 eax
  0014b	5a		 pop	 edx
  0014c	5f		 pop	 edi
  0014d	5e		 pop	 esi
  0014e	5b		 pop	 ebx
  0014f	8b 4d fc	 mov	 ecx, DWORD PTR __$ArrayPad$[ebp]
  00152	33 cd		 xor	 ecx, ebp
  00154	e8 00 00 00 00	 call	 @__security_check_cookie@4
  00159	81 c4 f4 00 00
	00		 add	 esp, 244		; 000000f4H
  0015f	3b ec		 cmp	 ebp, esp
  00161	e8 00 00 00 00	 call	 __RTC_CheckEsp
  00166	8b e5		 mov	 esp, ebp
  00168	5d		 pop	 ebp
  00169	c3		 ret	 0
  0016a	66 90		 npad	 2
$LN10@underflow:
  0016c	01 00 00 00	 DD	 1
  00170	00 00 00 00	 DD	 $LN9@underflow
$LN9@underflow:
  00174	dc ff ff ff	 DD	 -36			; ffffffdcH
  00178	04 00 00 00	 DD	 4
  0017c	00 00 00 00	 DD	 $LN8@underflow
$LN8@underflow:
  00180	5f		 DB	 95			; 0000005fH
  00181	50		 DB	 80			; 00000050H
  00182	70		 DB	 112			; 00000070H
  00183	74		 DB	 116			; 00000074H
  00184	72		 DB	 114			; 00000072H
  00185	00		 DB	 0
?underflow@?$basic_stringbuf@DU?$char_traits@D@std@@V?$allocator@D@2@@std@@MAEHXZ ENDP ; std::basic_stringbuf<char,std::char_traits<char>,std::allocator<char> >::underflow
_TEXT	ENDS
; Function compile flags: /Odtp /RTCsu /ZI
; File C:\Program Files (x86)\Microsoft Visual Studio\2019\Community\VC\Tools\MSVC\14.24.28314\include\sstream
;	COMDAT ?pbackfail@?$basic_stringbuf@DU?$char_traits@D@std@@V?$allocator@D@2@@std@@MAEHH@Z
_TEXT	SEGMENT
$T1 = -248						; size = 4
$T2 = -233						; size = 1
$T3 = -224						; size = 4
__Gptr$ = -20						; size = 4
_this$ = -8						; size = 4
__Meta$ = 8						; size = 4
?pbackfail@?$basic_stringbuf@DU?$char_traits@D@std@@V?$allocator@D@2@@std@@MAEHH@Z PROC ; std::basic_stringbuf<char,std::char_traits<char>,std::allocator<char> >::pbackfail, COMDAT
; _this$ = ecx

; 160  :     virtual int_type pbackfail(int_type _Meta = _Traits::eof()) { // put an element back to stream

  00000	55		 push	 ebp
  00001	8b ec		 mov	 ebp, esp
  00003	81 ec fc 00 00
	00		 sub	 esp, 252		; 000000fcH
  00009	53		 push	 ebx
  0000a	56		 push	 esi
  0000b	57		 push	 edi
  0000c	51		 push	 ecx
  0000d	8d bd 04 ff ff
	ff		 lea	 edi, DWORD PTR [ebp-252]
  00013	b9 3f 00 00 00	 mov	 ecx, 63			; 0000003fH
  00018	b8 cc cc cc cc	 mov	 eax, -858993460		; ccccccccH
  0001d	f3 ab		 rep stosd
  0001f	59		 pop	 ecx
  00020	89 4d f8	 mov	 DWORD PTR _this$[ebp], ecx
  00023	b9 00 00 00 00	 mov	 ecx, OFFSET __A934846A_sstream
  00028	e8 00 00 00 00	 call	 @__CheckForDebuggerJustMyCode@4

; 161  :         const auto _Gptr = _Mysb::gptr();

  0002d	8b f4		 mov	 esi, esp
  0002f	8b 4d f8	 mov	 ecx, DWORD PTR _this$[ebp]
  00032	ff 15 00 00 00
	00		 call	 DWORD PTR __imp_?gptr@?$basic_streambuf@DU?$char_traits@D@std@@@std@@IBEPADXZ
  00038	3b f4		 cmp	 esi, esp
  0003a	e8 00 00 00 00	 call	 __RTC_CheckEsp
  0003f	89 45 ec	 mov	 DWORD PTR __Gptr$[ebp], eax

; 162  :         if (!_Gptr || _Gptr <= _Mysb::eback()
; 163  :             || (!_Traits::eq_int_type(_Traits::eof(), _Meta) && !_Traits::eq(_Traits::to_char_type(_Meta), _Gptr[-1])

  00042	83 7d ec 00	 cmp	 DWORD PTR __Gptr$[ebp], 0
  00046	74 7b		 je	 SHORT $LN3@pbackfail
  00048	8b f4		 mov	 esi, esp
  0004a	8b 4d f8	 mov	 ecx, DWORD PTR _this$[ebp]
  0004d	ff 15 00 00 00
	00		 call	 DWORD PTR __imp_?eback@?$basic_streambuf@DU?$char_traits@D@std@@@std@@IBEPADXZ
  00053	3b f4		 cmp	 esi, esp
  00055	e8 00 00 00 00	 call	 __RTC_CheckEsp
  0005a	39 45 ec	 cmp	 DWORD PTR __Gptr$[ebp], eax
  0005d	76 64		 jbe	 SHORT $LN3@pbackfail
  0005f	e8 00 00 00 00	 call	 ?eof@?$_Narrow_char_traits@DH@std@@SAHXZ ; std::_Narrow_char_traits<char,int>::eof
  00064	89 85 20 ff ff
	ff		 mov	 DWORD PTR $T3[ebp], eax
  0006a	8d 45 08	 lea	 eax, DWORD PTR __Meta$[ebp]
  0006d	50		 push	 eax
  0006e	8d 8d 20 ff ff
	ff		 lea	 ecx, DWORD PTR $T3[ebp]
  00074	51		 push	 ecx
  00075	e8 00 00 00 00	 call	 ?eq_int_type@?$_Narrow_char_traits@DH@std@@SA_NABH0@Z ; std::_Narrow_char_traits<char,int>::eq_int_type
  0007a	83 c4 08	 add	 esp, 8
  0007d	0f b6 d0	 movzx	 edx, al
  00080	85 d2		 test	 edx, edx
  00082	75 46		 jne	 SHORT $LN2@pbackfail
  00084	8d 45 08	 lea	 eax, DWORD PTR __Meta$[ebp]
  00087	50		 push	 eax
  00088	e8 00 00 00 00	 call	 ?to_char_type@?$_Narrow_char_traits@DH@std@@SADABH@Z ; std::_Narrow_char_traits<char,int>::to_char_type
  0008d	83 c4 04	 add	 esp, 4
  00090	88 85 17 ff ff
	ff		 mov	 BYTE PTR $T2[ebp], al
  00096	b9 01 00 00 00	 mov	 ecx, 1
  0009b	6b d1 ff	 imul	 edx, ecx, -1
  0009e	03 55 ec	 add	 edx, DWORD PTR __Gptr$[ebp]
  000a1	52		 push	 edx
  000a2	8d 85 17 ff ff
	ff		 lea	 eax, DWORD PTR $T2[ebp]
  000a8	50		 push	 eax
  000a9	e8 00 00 00 00	 call	 ?eq@?$_Narrow_char_traits@DH@std@@SA_NABD0@Z ; std::_Narrow_char_traits<char,int>::eq
  000ae	83 c4 08	 add	 esp, 8
  000b1	0f b6 c8	 movzx	 ecx, al
  000b4	85 c9		 test	 ecx, ecx
  000b6	75 12		 jne	 SHORT $LN2@pbackfail
  000b8	8b 45 f8	 mov	 eax, DWORD PTR _this$[ebp]
  000bb	8b 48 3c	 mov	 ecx, DWORD PTR [eax+60]
  000be	83 e1 02	 and	 ecx, 2
  000c1	74 07		 je	 SHORT $LN2@pbackfail
$LN3@pbackfail:

; 164  :                 && (_Mystate & _Constant))) { // can't put back, fail
; 165  :             return _Traits::eof();

  000c3	e8 00 00 00 00	 call	 ?eof@?$_Narrow_char_traits@DH@std@@SAHXZ ; std::_Narrow_char_traits<char,int>::eof
  000c8	eb 67		 jmp	 SHORT $LN1@pbackfail
$LN2@pbackfail:

; 166  :         }
; 167  : 
; 168  :         // back up one position and store put-back character
; 169  :         _Mysb::gbump(-1);

  000ca	8b f4		 mov	 esi, esp
  000cc	6a ff		 push	 -1
  000ce	8b 4d f8	 mov	 ecx, DWORD PTR _this$[ebp]
  000d1	ff 15 00 00 00
	00		 call	 DWORD PTR __imp_?gbump@?$basic_streambuf@DU?$char_traits@D@std@@@std@@IAEXH@Z
  000d7	3b f4		 cmp	 esi, esp
  000d9	e8 00 00 00 00	 call	 __RTC_CheckEsp

; 170  :         if (!_Traits::eq_int_type(_Traits::eof(), _Meta)) {

  000de	e8 00 00 00 00	 call	 ?eof@?$_Narrow_char_traits@DH@std@@SAHXZ ; std::_Narrow_char_traits<char,int>::eof
  000e3	89 85 08 ff ff
	ff		 mov	 DWORD PTR $T1[ebp], eax
  000e9	8d 45 08	 lea	 eax, DWORD PTR __Meta$[ebp]
  000ec	50		 push	 eax
  000ed	8d 8d 08 ff ff
	ff		 lea	 ecx, DWORD PTR $T1[ebp]
  000f3	51		 push	 ecx
  000f4	e8 00 00 00 00	 call	 ?eq_int_type@?$_Narrow_char_traits@DH@std@@SA_NABH0@Z ; std::_Narrow_char_traits<char,int>::eq_int_type
  000f9	83 c4 08	 add	 esp, 8
  000fc	0f b6 d0	 movzx	 edx, al
  000ff	85 d2		 test	 edx, edx
  00101	75 22		 jne	 SHORT $LN4@pbackfail

; 171  :             *_Mysb::gptr() = _Traits::to_char_type(_Meta);

  00103	8d 45 08	 lea	 eax, DWORD PTR __Meta$[ebp]
  00106	50		 push	 eax
  00107	e8 00 00 00 00	 call	 ?to_char_type@?$_Narrow_char_traits@DH@std@@SADABH@Z ; std::_Narrow_char_traits<char,int>::to_char_type
  0010c	83 c4 04	 add	 esp, 4
  0010f	8a d8		 mov	 bl, al
  00111	8b f4		 mov	 esi, esp
  00113	8b 4d f8	 mov	 ecx, DWORD PTR _this$[ebp]
  00116	ff 15 00 00 00
	00		 call	 DWORD PTR __imp_?gptr@?$basic_streambuf@DU?$char_traits@D@std@@@std@@IBEPADXZ
  0011c	3b f4		 cmp	 esi, esp
  0011e	e8 00 00 00 00	 call	 __RTC_CheckEsp
  00123	88 18		 mov	 BYTE PTR [eax], bl
$LN4@pbackfail:

; 172  :         }
; 173  : 
; 174  :         return _Traits::not_eof(_Meta);

  00125	8d 45 08	 lea	 eax, DWORD PTR __Meta$[ebp]
  00128	50		 push	 eax
  00129	e8 00 00 00 00	 call	 ?not_eof@?$_Narrow_char_traits@DH@std@@SAHABH@Z ; std::_Narrow_char_traits<char,int>::not_eof
  0012e	83 c4 04	 add	 esp, 4
$LN1@pbackfail:

; 175  :     }

  00131	5f		 pop	 edi
  00132	5e		 pop	 esi
  00133	5b		 pop	 ebx
  00134	81 c4 fc 00 00
	00		 add	 esp, 252		; 000000fcH
  0013a	3b ec		 cmp	 ebp, esp
  0013c	e8 00 00 00 00	 call	 __RTC_CheckEsp
  00141	8b e5		 mov	 esp, ebp
  00143	5d		 pop	 ebp
  00144	c2 04 00	 ret	 4
?pbackfail@?$basic_stringbuf@DU?$char_traits@D@std@@V?$allocator@D@2@@std@@MAEHH@Z ENDP ; std::basic_stringbuf<char,std::char_traits<char>,std::allocator<char> >::pbackfail
_TEXT	ENDS
; Function compile flags: /Odtp /RTCsu /ZI
; File C:\Program Files (x86)\Microsoft Visual Studio\2019\Community\VC\Tools\MSVC\14.24.28314\include\sstream
;	COMDAT ?overflow@?$basic_stringbuf@DU?$char_traits@D@std@@V?$allocator@D@2@@std@@MAEHH@Z
_TEXT	SEGMENT
$T1 = -296						; size = 4
__New_pnext$ = -92					; size = 4
__Newptr$ = -80						; size = 4
__Newsize$ = -68					; size = 4
__Oldptr$ = -56						; size = 4
__Oldsize$ = -44					; size = 4
__Epptr$ = -32						; size = 4
__Pptr$ = -20						; size = 4
_this$ = -8						; size = 4
__Meta$ = 8						; size = 4
?overflow@?$basic_stringbuf@DU?$char_traits@D@std@@V?$allocator@D@2@@std@@MAEHH@Z PROC ; std::basic_stringbuf<char,std::char_traits<char>,std::allocator<char> >::overflow, COMDAT
; _this$ = ecx

; 103  :     virtual int_type overflow(int_type _Meta = _Traits::eof()) { // put an element to stream

  00000	55		 push	 ebp
  00001	8b ec		 mov	 ebp, esp
  00003	81 ec 2c 01 00
	00		 sub	 esp, 300		; 0000012cH
  00009	53		 push	 ebx
  0000a	56		 push	 esi
  0000b	57		 push	 edi
  0000c	51		 push	 ecx
  0000d	8d bd d4 fe ff
	ff		 lea	 edi, DWORD PTR [ebp-300]
  00013	b9 4b 00 00 00	 mov	 ecx, 75			; 0000004bH
  00018	b8 cc cc cc cc	 mov	 eax, -858993460		; ccccccccH
  0001d	f3 ab		 rep stosd
  0001f	59		 pop	 ecx
  00020	89 4d f8	 mov	 DWORD PTR _this$[ebp], ecx
  00023	b9 00 00 00 00	 mov	 ecx, OFFSET __A934846A_sstream
  00028	e8 00 00 00 00	 call	 @__CheckForDebuggerJustMyCode@4

; 104  :         if (_Mystate & _Constant) {

  0002d	8b 45 f8	 mov	 eax, DWORD PTR _this$[ebp]
  00030	8b 48 3c	 mov	 ecx, DWORD PTR [eax+60]
  00033	83 e1 02	 and	 ecx, 2
  00036	74 0a		 je	 SHORT $LN2@overflow

; 105  :             return _Traits::eof(); // array nonmutable, fail

  00038	e8 00 00 00 00	 call	 ?eof@?$_Narrow_char_traits@DH@std@@SAHXZ ; std::_Narrow_char_traits<char,int>::eof
  0003d	e9 2c 02 00 00	 jmp	 $LN1@overflow
$LN2@overflow:

; 106  :         }
; 107  : 
; 108  :         if (_Traits::eq_int_type(_Traits::eof(), _Meta)) {

  00042	e8 00 00 00 00	 call	 ?eof@?$_Narrow_char_traits@DH@std@@SAHXZ ; std::_Narrow_char_traits<char,int>::eof
  00047	89 85 d8 fe ff
	ff		 mov	 DWORD PTR $T1[ebp], eax
  0004d	8d 45 08	 lea	 eax, DWORD PTR __Meta$[ebp]
  00050	50		 push	 eax
  00051	8d 8d d8 fe ff
	ff		 lea	 ecx, DWORD PTR $T1[ebp]
  00057	51		 push	 ecx
  00058	e8 00 00 00 00	 call	 ?eq_int_type@?$_Narrow_char_traits@DH@std@@SA_NABH0@Z ; std::_Narrow_char_traits<char,int>::eq_int_type
  0005d	83 c4 08	 add	 esp, 8
  00060	0f b6 d0	 movzx	 edx, al
  00063	85 d2		 test	 edx, edx
  00065	74 11		 je	 SHORT $LN3@overflow

; 109  :             return _Traits::not_eof(_Meta); // EOF, return success code

  00067	8d 45 08	 lea	 eax, DWORD PTR __Meta$[ebp]
  0006a	50		 push	 eax
  0006b	e8 00 00 00 00	 call	 ?not_eof@?$_Narrow_char_traits@DH@std@@SAHABH@Z ; std::_Narrow_char_traits<char,int>::not_eof
  00070	83 c4 04	 add	 esp, 4
  00073	e9 f6 01 00 00	 jmp	 $LN1@overflow
$LN3@overflow:

; 110  :         }
; 111  : 
; 112  :         const auto _Pptr  = _Mysb::pptr();

  00078	8b f4		 mov	 esi, esp
  0007a	8b 4d f8	 mov	 ecx, DWORD PTR _this$[ebp]
  0007d	ff 15 00 00 00
	00		 call	 DWORD PTR __imp_?pptr@?$basic_streambuf@DU?$char_traits@D@std@@@std@@IBEPADXZ
  00083	3b f4		 cmp	 esi, esp
  00085	e8 00 00 00 00	 call	 __RTC_CheckEsp
  0008a	89 45 ec	 mov	 DWORD PTR __Pptr$[ebp], eax

; 113  :         const auto _Epptr = _Mysb::epptr();

  0008d	8b f4		 mov	 esi, esp
  0008f	8b 4d f8	 mov	 ecx, DWORD PTR _this$[ebp]
  00092	ff 15 00 00 00
	00		 call	 DWORD PTR __imp_?epptr@?$basic_streambuf@DU?$char_traits@D@std@@@std@@IBEPADXZ
  00098	3b f4		 cmp	 esi, esp
  0009a	e8 00 00 00 00	 call	 __RTC_CheckEsp
  0009f	89 45 e0	 mov	 DWORD PTR __Epptr$[ebp], eax

; 114  :         if (_Pptr && _Pptr < _Epptr) { // room in buffer, store it

  000a2	83 7d ec 00	 cmp	 DWORD PTR __Pptr$[ebp], 0
  000a6	74 3e		 je	 SHORT $LN4@overflow
  000a8	8b 45 ec	 mov	 eax, DWORD PTR __Pptr$[ebp]
  000ab	3b 45 e0	 cmp	 eax, DWORD PTR __Epptr$[ebp]
  000ae	73 36		 jae	 SHORT $LN4@overflow

; 115  :             *_Mysb::_Pninc() = _Traits::to_char_type(_Meta);

  000b0	8d 45 08	 lea	 eax, DWORD PTR __Meta$[ebp]
  000b3	50		 push	 eax
  000b4	e8 00 00 00 00	 call	 ?to_char_type@?$_Narrow_char_traits@DH@std@@SADABH@Z ; std::_Narrow_char_traits<char,int>::to_char_type
  000b9	83 c4 04	 add	 esp, 4
  000bc	8a d8		 mov	 bl, al
  000be	8b f4		 mov	 esi, esp
  000c0	8b 4d f8	 mov	 ecx, DWORD PTR _this$[ebp]
  000c3	ff 15 00 00 00
	00		 call	 DWORD PTR __imp_?_Pninc@?$basic_streambuf@DU?$char_traits@D@std@@@std@@IAEPADXZ
  000c9	3b f4		 cmp	 esi, esp
  000cb	e8 00 00 00 00	 call	 __RTC_CheckEsp
  000d0	88 18		 mov	 BYTE PTR [eax], bl

; 116  :             _Seekhigh        = _Pptr + 1;

  000d2	8b 45 ec	 mov	 eax, DWORD PTR __Pptr$[ebp]
  000d5	83 c0 01	 add	 eax, 1
  000d8	8b 4d f8	 mov	 ecx, DWORD PTR _this$[ebp]
  000db	89 41 38	 mov	 DWORD PTR [ecx+56], eax

; 117  :             return _Meta;

  000de	8b 45 08	 mov	 eax, DWORD PTR __Meta$[ebp]
  000e1	e9 88 01 00 00	 jmp	 $LN1@overflow
$LN4@overflow:

; 118  :         }
; 119  : 
; 120  :         // grow buffer and store element
; 121  :         size_t _Oldsize    = 0;

  000e6	c7 45 d4 00 00
	00 00		 mov	 DWORD PTR __Oldsize$[ebp], 0

; 122  :         const auto _Oldptr = _Mysb::eback();

  000ed	8b f4		 mov	 esi, esp
  000ef	8b 4d f8	 mov	 ecx, DWORD PTR _this$[ebp]
  000f2	ff 15 00 00 00
	00		 call	 DWORD PTR __imp_?eback@?$basic_streambuf@DU?$char_traits@D@std@@@std@@IBEPADXZ
  000f8	3b f4		 cmp	 esi, esp
  000fa	e8 00 00 00 00	 call	 __RTC_CheckEsp
  000ff	89 45 c8	 mov	 DWORD PTR __Oldptr$[ebp], eax

; 123  :         if (_Pptr) {

  00102	83 7d ec 00	 cmp	 DWORD PTR __Pptr$[ebp], 0
  00106	74 09		 je	 SHORT $LN5@overflow

; 124  :             _Oldsize = static_cast<size_t>(_Epptr - _Oldptr);

  00108	8b 45 e0	 mov	 eax, DWORD PTR __Epptr$[ebp]
  0010b	2b 45 c8	 sub	 eax, DWORD PTR __Oldptr$[ebp]
  0010e	89 45 d4	 mov	 DWORD PTR __Oldsize$[ebp], eax
$LN5@overflow:

; 125  :         }
; 126  : 
; 127  :         size_t _Newsize;
; 128  :         if (_Oldsize < _MINSIZE) {

  00111	83 7d d4 20	 cmp	 DWORD PTR __Oldsize$[ebp], 32 ; 00000020H
  00115	73 09		 jae	 SHORT $LN6@overflow

; 129  :             _Newsize = _MINSIZE;

  00117	c7 45 bc 20 00
	00 00		 mov	 DWORD PTR __Newsize$[ebp], 32 ; 00000020H
  0011e	eb 2f		 jmp	 SHORT $LN7@overflow
$LN6@overflow:

; 130  :         } else if (_Oldsize < INT_MAX / 2) { // grow by 50 percent

  00120	81 7d d4 ff ff
	ff 3f		 cmp	 DWORD PTR __Oldsize$[ebp], 1073741823 ; 3fffffffH
  00127	73 0a		 jae	 SHORT $LN8@overflow

; 131  :             _Newsize = _Oldsize << 1;

  00129	8b 45 d4	 mov	 eax, DWORD PTR __Oldsize$[ebp]
  0012c	d1 e0		 shl	 eax, 1
  0012e	89 45 bc	 mov	 DWORD PTR __Newsize$[ebp], eax
  00131	eb 1c		 jmp	 SHORT $LN7@overflow
$LN8@overflow:

; 132  :         } else if (_Oldsize < INT_MAX) {

  00133	81 7d d4 ff ff
	ff 7f		 cmp	 DWORD PTR __Oldsize$[ebp], 2147483647 ; 7fffffffH
  0013a	73 09		 jae	 SHORT $LN10@overflow

; 133  :             _Newsize = INT_MAX;

  0013c	c7 45 bc ff ff
	ff 7f		 mov	 DWORD PTR __Newsize$[ebp], 2147483647 ; 7fffffffH

; 134  :         } else { // buffer can't grow, fail

  00143	eb 0a		 jmp	 SHORT $LN7@overflow
$LN10@overflow:

; 135  :             return _Traits::eof();

  00145	e8 00 00 00 00	 call	 ?eof@?$_Narrow_char_traits@DH@std@@SAHXZ ; std::_Narrow_char_traits<char,int>::eof
  0014a	e9 1f 01 00 00	 jmp	 $LN1@overflow
$LN7@overflow:

; 136  :         }
; 137  : 
; 138  :         const auto _Newptr = _Unfancy(_Al.allocate(_Newsize));

  0014f	8b 45 bc	 mov	 eax, DWORD PTR __Newsize$[ebp]
  00152	50		 push	 eax
  00153	8b 4d f8	 mov	 ecx, DWORD PTR _this$[ebp]
  00156	83 c1 40	 add	 ecx, 64			; 00000040H
  00159	e8 00 00 00 00	 call	 ?allocate@?$allocator@D@std@@QAEPADI@Z ; std::allocator<char>::allocate
  0015e	50		 push	 eax
  0015f	e8 00 00 00 00	 call	 ??$_Unfancy@D@std@@YAPADPAD@Z ; std::_Unfancy<char>
  00164	83 c4 04	 add	 esp, 4
  00167	89 45 b0	 mov	 DWORD PTR __Newptr$[ebp], eax

; 139  :         _Traits::copy(_Newptr, _Oldptr, _Oldsize);

  0016a	8b 45 d4	 mov	 eax, DWORD PTR __Oldsize$[ebp]
  0016d	50		 push	 eax
  0016e	8b 4d c8	 mov	 ecx, DWORD PTR __Oldptr$[ebp]
  00171	51		 push	 ecx
  00172	8b 55 b0	 mov	 edx, DWORD PTR __Newptr$[ebp]
  00175	52		 push	 edx
  00176	e8 00 00 00 00	 call	 ?copy@?$_Narrow_char_traits@DH@std@@SAPADQADQBDI@Z ; std::_Narrow_char_traits<char,int>::copy
  0017b	83 c4 0c	 add	 esp, 12			; 0000000cH

; 140  : 
; 141  :         const auto _New_pnext = _Newptr + _Oldsize;

  0017e	8b 45 b0	 mov	 eax, DWORD PTR __Newptr$[ebp]
  00181	03 45 d4	 add	 eax, DWORD PTR __Oldsize$[ebp]
  00184	89 45 a4	 mov	 DWORD PTR __New_pnext$[ebp], eax

; 142  :         _Seekhigh             = _New_pnext + 1; // to include _Meta

  00187	8b 45 a4	 mov	 eax, DWORD PTR __New_pnext$[ebp]
  0018a	83 c0 01	 add	 eax, 1
  0018d	8b 4d f8	 mov	 ecx, DWORD PTR _this$[ebp]
  00190	89 41 38	 mov	 DWORD PTR [ecx+56], eax

; 143  : 
; 144  :         _Mysb::setp(_Newptr, _New_pnext, _Newptr + _Newsize);

  00193	8b 45 b0	 mov	 eax, DWORD PTR __Newptr$[ebp]
  00196	03 45 bc	 add	 eax, DWORD PTR __Newsize$[ebp]
  00199	8b f4		 mov	 esi, esp
  0019b	50		 push	 eax
  0019c	8b 4d a4	 mov	 ecx, DWORD PTR __New_pnext$[ebp]
  0019f	51		 push	 ecx
  001a0	8b 55 b0	 mov	 edx, DWORD PTR __Newptr$[ebp]
  001a3	52		 push	 edx
  001a4	8b 4d f8	 mov	 ecx, DWORD PTR _this$[ebp]
  001a7	ff 15 00 00 00
	00		 call	 DWORD PTR __imp_?setp@?$basic_streambuf@DU?$char_traits@D@std@@@std@@IAEXPAD00@Z
  001ad	3b f4		 cmp	 esi, esp
  001af	e8 00 00 00 00	 call	 __RTC_CheckEsp

; 145  :         if (_Mystate & _Noread) { // maintain eback() == allocated pointer invariant

  001b4	8b 45 f8	 mov	 eax, DWORD PTR _this$[ebp]
  001b7	8b 48 3c	 mov	 ecx, DWORD PTR [eax+60]
  001ba	83 e1 04	 and	 ecx, 4
  001bd	74 1e		 je	 SHORT $LN12@overflow

; 146  :             _Mysb::setg(_Newptr, nullptr, _Newptr);

  001bf	8b f4		 mov	 esi, esp
  001c1	8b 45 b0	 mov	 eax, DWORD PTR __Newptr$[ebp]
  001c4	50		 push	 eax
  001c5	6a 00		 push	 0
  001c7	8b 4d b0	 mov	 ecx, DWORD PTR __Newptr$[ebp]
  001ca	51		 push	 ecx
  001cb	8b 4d f8	 mov	 ecx, DWORD PTR _this$[ebp]
  001ce	ff 15 00 00 00
	00		 call	 DWORD PTR __imp_?setg@?$basic_streambuf@DU?$char_traits@D@std@@@std@@IAEXPAD00@Z
  001d4	3b f4		 cmp	 esi, esp
  001d6	e8 00 00 00 00	 call	 __RTC_CheckEsp

; 147  :         } else { // if readable, set the get area to initialized region

  001db	eb 36		 jmp	 SHORT $LN13@overflow
$LN12@overflow:

; 148  :             _Mysb::setg(_Newptr, _Newptr + (_Mysb::gptr() - _Oldptr), _Seekhigh);

  001dd	8b f4		 mov	 esi, esp
  001df	8b 45 f8	 mov	 eax, DWORD PTR _this$[ebp]
  001e2	8b 48 38	 mov	 ecx, DWORD PTR [eax+56]
  001e5	51		 push	 ecx
  001e6	8b fc		 mov	 edi, esp
  001e8	8b 4d f8	 mov	 ecx, DWORD PTR _this$[ebp]
  001eb	ff 15 00 00 00
	00		 call	 DWORD PTR __imp_?gptr@?$basic_streambuf@DU?$char_traits@D@std@@@std@@IBEPADXZ
  001f1	3b fc		 cmp	 edi, esp
  001f3	e8 00 00 00 00	 call	 __RTC_CheckEsp
  001f8	2b 45 c8	 sub	 eax, DWORD PTR __Oldptr$[ebp]
  001fb	03 45 b0	 add	 eax, DWORD PTR __Newptr$[ebp]
  001fe	50		 push	 eax
  001ff	8b 55 b0	 mov	 edx, DWORD PTR __Newptr$[ebp]
  00202	52		 push	 edx
  00203	8b 4d f8	 mov	 ecx, DWORD PTR _this$[ebp]
  00206	ff 15 00 00 00
	00		 call	 DWORD PTR __imp_?setg@?$basic_streambuf@DU?$char_traits@D@std@@@std@@IAEXPAD00@Z
  0020c	3b f4		 cmp	 esi, esp
  0020e	e8 00 00 00 00	 call	 __RTC_CheckEsp
$LN13@overflow:

; 149  :         }
; 150  : 
; 151  :         if (_Mystate & _Allocated) {

  00213	8b 45 f8	 mov	 eax, DWORD PTR _this$[ebp]
  00216	8b 48 3c	 mov	 ecx, DWORD PTR [eax+60]
  00219	83 e1 01	 and	 ecx, 1
  0021c	74 1c		 je	 SHORT $LN14@overflow

; 152  :             _Al.deallocate(_Ptr_traits::pointer_to(*_Oldptr), _Oldsize);

  0021e	8b 45 d4	 mov	 eax, DWORD PTR __Oldsize$[ebp]
  00221	50		 push	 eax
  00222	8b 4d c8	 mov	 ecx, DWORD PTR __Oldptr$[ebp]
  00225	51		 push	 ecx
  00226	e8 00 00 00 00	 call	 ?pointer_to@?$pointer_traits@PAD@std@@SAPADAAD@Z ; std::pointer_traits<char *>::pointer_to
  0022b	83 c4 04	 add	 esp, 4
  0022e	50		 push	 eax
  0022f	8b 4d f8	 mov	 ecx, DWORD PTR _this$[ebp]
  00232	83 c1 40	 add	 ecx, 64			; 00000040H
  00235	e8 00 00 00 00	 call	 ?deallocate@?$allocator@D@std@@QAEXQADI@Z ; std::allocator<char>::deallocate
$LN14@overflow:

; 153  :         }
; 154  : 
; 155  :         _Mystate |= _Allocated;

  0023a	8b 45 f8	 mov	 eax, DWORD PTR _this$[ebp]
  0023d	8b 48 3c	 mov	 ecx, DWORD PTR [eax+60]
  00240	83 c9 01	 or	 ecx, 1
  00243	8b 55 f8	 mov	 edx, DWORD PTR _this$[ebp]
  00246	89 4a 3c	 mov	 DWORD PTR [edx+60], ecx

; 156  :         *_Mysb::_Pninc() = _Traits::to_char_type(_Meta);

  00249	8d 45 08	 lea	 eax, DWORD PTR __Meta$[ebp]
  0024c	50		 push	 eax
  0024d	e8 00 00 00 00	 call	 ?to_char_type@?$_Narrow_char_traits@DH@std@@SADABH@Z ; std::_Narrow_char_traits<char,int>::to_char_type
  00252	83 c4 04	 add	 esp, 4
  00255	8a d8		 mov	 bl, al
  00257	8b f4		 mov	 esi, esp
  00259	8b 4d f8	 mov	 ecx, DWORD PTR _this$[ebp]
  0025c	ff 15 00 00 00
	00		 call	 DWORD PTR __imp_?_Pninc@?$basic_streambuf@DU?$char_traits@D@std@@@std@@IAEPADXZ
  00262	3b f4		 cmp	 esi, esp
  00264	e8 00 00 00 00	 call	 __RTC_CheckEsp
  00269	88 18		 mov	 BYTE PTR [eax], bl

; 157  :         return _Meta;

  0026b	8b 45 08	 mov	 eax, DWORD PTR __Meta$[ebp]
$LN1@overflow:

; 158  :     }

  0026e	5f		 pop	 edi
  0026f	5e		 pop	 esi
  00270	5b		 pop	 ebx
  00271	81 c4 2c 01 00
	00		 add	 esp, 300		; 0000012cH
  00277	3b ec		 cmp	 ebp, esp
  00279	e8 00 00 00 00	 call	 __RTC_CheckEsp
  0027e	8b e5		 mov	 esp, ebp
  00280	5d		 pop	 ebp
  00281	c2 04 00	 ret	 4
?overflow@?$basic_stringbuf@DU?$char_traits@D@std@@V?$allocator@D@2@@std@@MAEHH@Z ENDP ; std::basic_stringbuf<char,std::char_traits<char>,std::allocator<char> >::overflow
_TEXT	ENDS
; Function compile flags: /Odtp /RTCsu /ZI
; File C:\Program Files (x86)\Microsoft Visual Studio\2019\Community\VC\Tools\MSVC\14.24.28314\include\sstream
;	COMDAT ??1?$basic_stringbuf@DU?$char_traits@D@std@@V?$allocator@D@2@@std@@UAE@XZ
_TEXT	SEGMENT
_this$ = -20						; size = 4
__$EHRec$ = -12						; size = 12
??1?$basic_stringbuf@DU?$char_traits@D@std@@V?$allocator@D@2@@std@@UAE@XZ PROC ; std::basic_stringbuf<char,std::char_traits<char>,std::allocator<char> >::~basic_stringbuf<char,std::char_traits<char>,std::allocator<char> >, COMDAT
; _this$ = ecx

; 68   :     virtual ~basic_stringbuf() noexcept {

  00000	55		 push	 ebp
  00001	8b ec		 mov	 ebp, esp
  00003	6a ff		 push	 -1
  00005	68 00 00 00 00	 push	 __ehhandler$??1?$basic_stringbuf@DU?$char_traits@D@std@@V?$allocator@D@2@@std@@UAE@XZ
  0000a	64 a1 00 00 00
	00		 mov	 eax, DWORD PTR fs:0
  00010	50		 push	 eax
  00011	81 ec cc 00 00
	00		 sub	 esp, 204		; 000000ccH
  00017	53		 push	 ebx
  00018	56		 push	 esi
  00019	57		 push	 edi
  0001a	51		 push	 ecx
  0001b	8d bd 28 ff ff
	ff		 lea	 edi, DWORD PTR [ebp-216]
  00021	b9 33 00 00 00	 mov	 ecx, 51			; 00000033H
  00026	b8 cc cc cc cc	 mov	 eax, -858993460		; ccccccccH
  0002b	f3 ab		 rep stosd
  0002d	59		 pop	 ecx
  0002e	a1 00 00 00 00	 mov	 eax, DWORD PTR ___security_cookie
  00033	33 c5		 xor	 eax, ebp
  00035	50		 push	 eax
  00036	8d 45 f4	 lea	 eax, DWORD PTR __$EHRec$[ebp]
  00039	64 a3 00 00 00
	00		 mov	 DWORD PTR fs:0, eax
  0003f	89 4d ec	 mov	 DWORD PTR _this$[ebp], ecx
  00042	b9 00 00 00 00	 mov	 ecx, OFFSET __A934846A_sstream
  00047	e8 00 00 00 00	 call	 @__CheckForDebuggerJustMyCode@4
  0004c	8b 45 ec	 mov	 eax, DWORD PTR _this$[ebp]
  0004f	c7 00 00 00 00
	00		 mov	 DWORD PTR [eax], OFFSET ??_7?$basic_stringbuf@DU?$char_traits@D@std@@V?$allocator@D@2@@std@@6B@

; 69   :         _Tidy();

  00055	8b 4d ec	 mov	 ecx, DWORD PTR _this$[ebp]
  00058	e8 00 00 00 00	 call	 ?_Tidy@?$basic_stringbuf@DU?$char_traits@D@std@@V?$allocator@D@2@@std@@IAEXXZ ; std::basic_stringbuf<char,std::char_traits<char>,std::allocator<char> >::_Tidy

; 70   :     }

  0005d	8b f4		 mov	 esi, esp
  0005f	8b 4d ec	 mov	 ecx, DWORD PTR _this$[ebp]
  00062	ff 15 00 00 00
	00		 call	 DWORD PTR __imp_??1?$basic_streambuf@DU?$char_traits@D@std@@@std@@UAE@XZ
  00068	3b f4		 cmp	 esi, esp
  0006a	e8 00 00 00 00	 call	 __RTC_CheckEsp
  0006f	8b 4d f4	 mov	 ecx, DWORD PTR __$EHRec$[ebp]
  00072	64 89 0d 00 00
	00 00		 mov	 DWORD PTR fs:0, ecx
  00079	59		 pop	 ecx
  0007a	5f		 pop	 edi
  0007b	5e		 pop	 esi
  0007c	5b		 pop	 ebx
  0007d	81 c4 d8 00 00
	00		 add	 esp, 216		; 000000d8H
  00083	3b ec		 cmp	 ebp, esp
  00085	e8 00 00 00 00	 call	 __RTC_CheckEsp
  0008a	8b e5		 mov	 esp, ebp
  0008c	5d		 pop	 ebp
  0008d	c3		 ret	 0
_TEXT	ENDS
;	COMDAT text$x
text$x	SEGMENT
__ehhandler$??1?$basic_stringbuf@DU?$char_traits@D@std@@V?$allocator@D@2@@std@@UAE@XZ:
  00000	8b 54 24 08	 mov	 edx, DWORD PTR [esp+8]
  00004	8d 42 0c	 lea	 eax, DWORD PTR [edx+12]
  00007	8b 8a 24 ff ff
	ff		 mov	 ecx, DWORD PTR [edx-220]
  0000d	33 c8		 xor	 ecx, eax
  0000f	e8 00 00 00 00	 call	 @__security_check_cookie@4
  00014	b8 00 00 00 00	 mov	 eax, OFFSET __ehfuncinfo$??1?$basic_stringbuf@DU?$char_traits@D@std@@V?$allocator@D@2@@std@@UAE@XZ
  00019	e9 00 00 00 00	 jmp	 ___CxxFrameHandler3
text$x	ENDS
??1?$basic_stringbuf@DU?$char_traits@D@std@@V?$allocator@D@2@@std@@UAE@XZ ENDP ; std::basic_stringbuf<char,std::char_traits<char>,std::allocator<char> >::~basic_stringbuf<char,std::char_traits<char>,std::allocator<char> >
; Function compile flags: /Odtp /RTCsu /ZI
; File C:\Program Files (x86)\Microsoft Visual Studio\2019\Community\VC\Tools\MSVC\14.24.28314\include\sstream
;	COMDAT ??0?$basic_stringbuf@DU?$char_traits@D@std@@V?$allocator@D@2@@std@@QAE@ABV?$basic_string@DU?$char_traits@D@std@@V?$allocator@D@2@@1@H@Z
_TEXT	SEGMENT
_this$ = -20						; size = 4
__$EHRec$ = -12						; size = 12
__Str$ = 8						; size = 4
__Mode$ = 12						; size = 4
??0?$basic_stringbuf@DU?$char_traits@D@std@@V?$allocator@D@2@@std@@QAE@ABV?$basic_string@DU?$char_traits@D@std@@V?$allocator@D@2@@1@H@Z PROC ; std::basic_stringbuf<char,std::char_traits<char>,std::allocator<char> >::basic_stringbuf<char,std::char_traits<char>,std::allocator<char> >, COMDAT
; _this$ = ecx

; 35   :     explicit basic_stringbuf(const _Mystr& _Str, ios_base::openmode _Mode = ios_base::in | ios_base::out)

  00000	55		 push	 ebp
  00001	8b ec		 mov	 ebp, esp
  00003	6a ff		 push	 -1
  00005	68 00 00 00 00	 push	 __ehhandler$??0?$basic_stringbuf@DU?$char_traits@D@std@@V?$allocator@D@2@@std@@QAE@ABV?$basic_string@DU?$char_traits@D@std@@V?$allocator@D@2@@1@H@Z
  0000a	64 a1 00 00 00
	00		 mov	 eax, DWORD PTR fs:0
  00010	50		 push	 eax
  00011	81 ec cc 00 00
	00		 sub	 esp, 204		; 000000ccH
  00017	53		 push	 ebx
  00018	56		 push	 esi
  00019	57		 push	 edi
  0001a	51		 push	 ecx
  0001b	8d bd 28 ff ff
	ff		 lea	 edi, DWORD PTR [ebp-216]
  00021	b9 33 00 00 00	 mov	 ecx, 51			; 00000033H
  00026	b8 cc cc cc cc	 mov	 eax, -858993460		; ccccccccH
  0002b	f3 ab		 rep stosd
  0002d	59		 pop	 ecx
  0002e	a1 00 00 00 00	 mov	 eax, DWORD PTR ___security_cookie
  00033	33 c5		 xor	 eax, ebp
  00035	50		 push	 eax
  00036	8d 45 f4	 lea	 eax, DWORD PTR __$EHRec$[ebp]
  00039	64 a3 00 00 00
	00		 mov	 DWORD PTR fs:0, eax
  0003f	89 4d ec	 mov	 DWORD PTR _this$[ebp], ecx
  00042	b9 00 00 00 00	 mov	 ecx, OFFSET __A934846A_sstream
  00047	e8 00 00 00 00	 call	 @__CheckForDebuggerJustMyCode@4

; 36   :         : _Al(_Str.get_allocator()) {

  0004c	8b f4		 mov	 esi, esp
  0004e	8b 4d ec	 mov	 ecx, DWORD PTR _this$[ebp]
  00051	ff 15 00 00 00
	00		 call	 DWORD PTR __imp_??0?$basic_streambuf@DU?$char_traits@D@std@@@std@@IAE@XZ
  00057	3b f4		 cmp	 esi, esp
  00059	e8 00 00 00 00	 call	 __RTC_CheckEsp
  0005e	c7 45 fc 00 00
	00 00		 mov	 DWORD PTR __$EHRec$[ebp+8], 0
  00065	8b 45 ec	 mov	 eax, DWORD PTR _this$[ebp]
  00068	c7 00 00 00 00
	00		 mov	 DWORD PTR [eax], OFFSET ??_7?$basic_stringbuf@DU?$char_traits@D@std@@V?$allocator@D@2@@std@@6B@
  0006e	8b 45 ec	 mov	 eax, DWORD PTR _this$[ebp]
  00071	83 c0 40	 add	 eax, 64			; 00000040H
  00074	50		 push	 eax
  00075	8b 4d 08	 mov	 ecx, DWORD PTR __Str$[ebp]
  00078	e8 00 00 00 00	 call	 ?get_allocator@?$basic_string@DU?$char_traits@D@std@@V?$allocator@D@2@@std@@QBE?AV?$allocator@D@2@XZ ; std::basic_string<char,std::char_traits<char>,std::allocator<char> >::get_allocator

; 37   :         _Init(_Str.c_str(), _Str.size(), _Getstate(_Mode));

  0007d	8b 45 0c	 mov	 eax, DWORD PTR __Mode$[ebp]
  00080	50		 push	 eax
  00081	e8 00 00 00 00	 call	 ?_Getstate@?$basic_stringbuf@DU?$char_traits@D@std@@V?$allocator@D@2@@std@@CAHH@Z ; std::basic_stringbuf<char,std::char_traits<char>,std::allocator<char> >::_Getstate
  00086	83 c4 04	 add	 esp, 4
  00089	50		 push	 eax
  0008a	8b 4d 08	 mov	 ecx, DWORD PTR __Str$[ebp]
  0008d	e8 00 00 00 00	 call	 ?size@?$basic_string@DU?$char_traits@D@std@@V?$allocator@D@2@@std@@QBEIXZ ; std::basic_string<char,std::char_traits<char>,std::allocator<char> >::size
  00092	50		 push	 eax
  00093	8b 4d 08	 mov	 ecx, DWORD PTR __Str$[ebp]
  00096	e8 00 00 00 00	 call	 ?c_str@?$basic_string@DU?$char_traits@D@std@@V?$allocator@D@2@@std@@QBEPBDXZ ; std::basic_string<char,std::char_traits<char>,std::allocator<char> >::c_str
  0009b	50		 push	 eax
  0009c	8b 4d ec	 mov	 ecx, DWORD PTR _this$[ebp]
  0009f	e8 00 00 00 00	 call	 ?_Init@?$basic_stringbuf@DU?$char_traits@D@std@@V?$allocator@D@2@@std@@IAEXPBDIH@Z ; std::basic_stringbuf<char,std::char_traits<char>,std::allocator<char> >::_Init

; 38   :     }

  000a4	c7 45 fc ff ff
	ff ff		 mov	 DWORD PTR __$EHRec$[ebp+8], -1
  000ab	8b 45 ec	 mov	 eax, DWORD PTR _this$[ebp]
  000ae	8b 4d f4	 mov	 ecx, DWORD PTR __$EHRec$[ebp]
  000b1	64 89 0d 00 00
	00 00		 mov	 DWORD PTR fs:0, ecx
  000b8	59		 pop	 ecx
  000b9	5f		 pop	 edi
  000ba	5e		 pop	 esi
  000bb	5b		 pop	 ebx
  000bc	81 c4 d8 00 00
	00		 add	 esp, 216		; 000000d8H
  000c2	3b ec		 cmp	 ebp, esp
  000c4	e8 00 00 00 00	 call	 __RTC_CheckEsp
  000c9	8b e5		 mov	 esp, ebp
  000cb	5d		 pop	 ebp
  000cc	c2 08 00	 ret	 8
_TEXT	ENDS
;	COMDAT text$x
text$x	SEGMENT
__unwindfunclet$??0?$basic_stringbuf@DU?$char_traits@D@std@@V?$allocator@D@2@@std@@QAE@ABV?$basic_string@DU?$char_traits@D@std@@V?$allocator@D@2@@1@H@Z$0:
  00000	8b f4		 mov	 esi, esp
  00002	8b 4d ec	 mov	 ecx, DWORD PTR _this$[ebp]
  00005	ff 15 00 00 00
	00		 call	 DWORD PTR __imp_??1?$basic_streambuf@DU?$char_traits@D@std@@@std@@UAE@XZ
  0000b	3b f4		 cmp	 esi, esp
  0000d	e9 00 00 00 00	 jmp	 __RTC_CheckEsp
__ehhandler$??0?$basic_stringbuf@DU?$char_traits@D@std@@V?$allocator@D@2@@std@@QAE@ABV?$basic_string@DU?$char_traits@D@std@@V?$allocator@D@2@@1@H@Z:
  00012	8b 54 24 08	 mov	 edx, DWORD PTR [esp+8]
  00016	8d 42 0c	 lea	 eax, DWORD PTR [edx+12]
  00019	8b 8a 24 ff ff
	ff		 mov	 ecx, DWORD PTR [edx-220]
  0001f	33 c8		 xor	 ecx, eax
  00021	e8 00 00 00 00	 call	 @__security_check_cookie@4
  00026	b8 00 00 00 00	 mov	 eax, OFFSET __ehfuncinfo$??0?$basic_stringbuf@DU?$char_traits@D@std@@V?$allocator@D@2@@std@@QAE@ABV?$basic_string@DU?$char_traits@D@std@@V?$allocator@D@2@@1@H@Z
  0002b	e9 00 00 00 00	 jmp	 ___CxxFrameHandler3
text$x	ENDS
??0?$basic_stringbuf@DU?$char_traits@D@std@@V?$allocator@D@2@@std@@QAE@ABV?$basic_string@DU?$char_traits@D@std@@V?$allocator@D@2@@1@H@Z ENDP ; std::basic_stringbuf<char,std::char_traits<char>,std::allocator<char> >::basic_stringbuf<char,std::char_traits<char>,std::allocator<char> >
; Function compile flags: /Odtp /RTCsu /ZI
; File C:\Program Files (x86)\Microsoft Visual Studio\2019\Community\VC\Tools\MSVC\14.24.28314\include\sstream
;	COMDAT ??1?$basic_stringstream@DU?$char_traits@D@std@@V?$allocator@D@2@@std@@UAE@XZ
_TEXT	SEGMENT
_this$ = -20						; size = 4
__$EHRec$ = -12						; size = 12
??1?$basic_stringstream@DU?$char_traits@D@std@@V?$allocator@D@2@@std@@UAE@XZ PROC ; std::basic_stringstream<char,std::char_traits<char>,std::allocator<char> >::~basic_stringstream<char,std::char_traits<char>,std::allocator<char> >, COMDAT
; _this$ = ecx

; 554  :     virtual ~basic_stringstream() noexcept {}

  00000	55		 push	 ebp
  00001	8b ec		 mov	 ebp, esp
  00003	6a ff		 push	 -1
  00005	68 00 00 00 00	 push	 __ehhandler$??1?$basic_stringstream@DU?$char_traits@D@std@@V?$allocator@D@2@@std@@UAE@XZ
  0000a	64 a1 00 00 00
	00		 mov	 eax, DWORD PTR fs:0
  00010	50		 push	 eax
  00011	81 ec cc 00 00
	00		 sub	 esp, 204		; 000000ccH
  00017	53		 push	 ebx
  00018	56		 push	 esi
  00019	57		 push	 edi
  0001a	51		 push	 ecx
  0001b	8d bd 28 ff ff
	ff		 lea	 edi, DWORD PTR [ebp-216]
  00021	b9 33 00 00 00	 mov	 ecx, 51			; 00000033H
  00026	b8 cc cc cc cc	 mov	 eax, -858993460		; ccccccccH
  0002b	f3 ab		 rep stosd
  0002d	59		 pop	 ecx
  0002e	a1 00 00 00 00	 mov	 eax, DWORD PTR ___security_cookie
  00033	33 c5		 xor	 eax, ebp
  00035	50		 push	 eax
  00036	8d 45 f4	 lea	 eax, DWORD PTR __$EHRec$[ebp]
  00039	64 a3 00 00 00
	00		 mov	 DWORD PTR fs:0, eax
  0003f	89 4d ec	 mov	 DWORD PTR _this$[ebp], ecx
  00042	b9 00 00 00 00	 mov	 ecx, OFFSET __A934846A_sstream
  00047	e8 00 00 00 00	 call	 @__CheckForDebuggerJustMyCode@4
  0004c	8b 45 ec	 mov	 eax, DWORD PTR _this$[ebp]
  0004f	8b 48 98	 mov	 ecx, DWORD PTR [eax-104]
  00052	8b 51 04	 mov	 edx, DWORD PTR [ecx+4]
  00055	8b 45 ec	 mov	 eax, DWORD PTR _this$[ebp]
  00058	c7 44 10 98 00
	00 00 00	 mov	 DWORD PTR [eax+edx-104], OFFSET ??_7?$basic_stringstream@DU?$char_traits@D@std@@V?$allocator@D@2@@std@@6B@
  00060	8b 45 ec	 mov	 eax, DWORD PTR _this$[ebp]
  00063	8b 48 98	 mov	 ecx, DWORD PTR [eax-104]
  00066	8b 51 04	 mov	 edx, DWORD PTR [ecx+4]
  00069	83 ea 68	 sub	 edx, 104		; 00000068H
  0006c	8b 45 ec	 mov	 eax, DWORD PTR _this$[ebp]
  0006f	8b 48 98	 mov	 ecx, DWORD PTR [eax-104]
  00072	8b 41 04	 mov	 eax, DWORD PTR [ecx+4]
  00075	8b 4d ec	 mov	 ecx, DWORD PTR _this$[ebp]
  00078	89 54 01 94	 mov	 DWORD PTR [ecx+eax-108], edx
  0007c	8b 4d ec	 mov	 ecx, DWORD PTR _this$[ebp]
  0007f	83 e9 50	 sub	 ecx, 80			; 00000050H
  00082	e8 00 00 00 00	 call	 ??1?$basic_stringbuf@DU?$char_traits@D@std@@V?$allocator@D@2@@std@@UAE@XZ ; std::basic_stringbuf<char,std::char_traits<char>,std::allocator<char> >::~basic_stringbuf<char,std::char_traits<char>,std::allocator<char> >
  00087	8b 4d ec	 mov	 ecx, DWORD PTR _this$[ebp]
  0008a	83 e9 48	 sub	 ecx, 72			; 00000048H
  0008d	8b f4		 mov	 esi, esp
  0008f	ff 15 00 00 00
	00		 call	 DWORD PTR __imp_??1?$basic_iostream@DU?$char_traits@D@std@@@std@@UAE@XZ
  00095	3b f4		 cmp	 esi, esp
  00097	e8 00 00 00 00	 call	 __RTC_CheckEsp
  0009c	8b 4d f4	 mov	 ecx, DWORD PTR __$EHRec$[ebp]
  0009f	64 89 0d 00 00
	00 00		 mov	 DWORD PTR fs:0, ecx
  000a6	59		 pop	 ecx
  000a7	5f		 pop	 edi
  000a8	5e		 pop	 esi
  000a9	5b		 pop	 ebx
  000aa	81 c4 d8 00 00
	00		 add	 esp, 216		; 000000d8H
  000b0	3b ec		 cmp	 ebp, esp
  000b2	e8 00 00 00 00	 call	 __RTC_CheckEsp
  000b7	8b e5		 mov	 esp, ebp
  000b9	5d		 pop	 ebp
  000ba	c3		 ret	 0
_TEXT	ENDS
;	COMDAT text$x
text$x	SEGMENT
__ehhandler$??1?$basic_stringstream@DU?$char_traits@D@std@@V?$allocator@D@2@@std@@UAE@XZ:
  00000	8b 54 24 08	 mov	 edx, DWORD PTR [esp+8]
  00004	8d 42 0c	 lea	 eax, DWORD PTR [edx+12]
  00007	8b 8a 24 ff ff
	ff		 mov	 ecx, DWORD PTR [edx-220]
  0000d	33 c8		 xor	 ecx, eax
  0000f	e8 00 00 00 00	 call	 @__security_check_cookie@4
  00014	b8 00 00 00 00	 mov	 eax, OFFSET __ehfuncinfo$??1?$basic_stringstream@DU?$char_traits@D@std@@V?$allocator@D@2@@std@@UAE@XZ
  00019	e9 00 00 00 00	 jmp	 ___CxxFrameHandler3
text$x	ENDS
??1?$basic_stringstream@DU?$char_traits@D@std@@V?$allocator@D@2@@std@@UAE@XZ ENDP ; std::basic_stringstream<char,std::char_traits<char>,std::allocator<char> >::~basic_stringstream<char,std::char_traits<char>,std::allocator<char> >
; Function compile flags: /Odtp /RTCsu /ZI
; File C:\Program Files (x86)\Microsoft Visual Studio\2019\Community\VC\Tools\MSVC\14.24.28314\include\sstream
;	COMDAT ??0?$basic_stringstream@DU?$char_traits@D@std@@V?$allocator@D@2@@std@@QAE@ABV?$basic_string@DU?$char_traits@D@std@@V?$allocator@D@2@@1@H@Z
_TEXT	SEGMENT
$T2 = -224						; size = 4
_this$ = -20						; size = 4
__$EHRec$ = -12						; size = 12
__Str$ = 8						; size = 4
__Mode$ = 12						; size = 4
_$initVBases$ = 16					; size = 4
??0?$basic_stringstream@DU?$char_traits@D@std@@V?$allocator@D@2@@std@@QAE@ABV?$basic_string@DU?$char_traits@D@std@@V?$allocator@D@2@@1@H@Z PROC ; std::basic_stringstream<char,std::char_traits<char>,std::allocator<char> >::basic_stringstream<char,std::char_traits<char>,std::allocator<char> >, COMDAT
; _this$ = ecx

; 526  :         : _Mybase(_STD addressof(_Stringbuffer)), _Stringbuffer(_Str, _Mode) {}

  00000	55		 push	 ebp
  00001	8b ec		 mov	 ebp, esp
  00003	6a ff		 push	 -1
  00005	68 00 00 00 00	 push	 __ehhandler$??0?$basic_stringstream@DU?$char_traits@D@std@@V?$allocator@D@2@@std@@QAE@ABV?$basic_string@DU?$char_traits@D@std@@V?$allocator@D@2@@1@H@Z
  0000a	64 a1 00 00 00
	00		 mov	 eax, DWORD PTR fs:0
  00010	50		 push	 eax
  00011	81 ec d8 00 00
	00		 sub	 esp, 216		; 000000d8H
  00017	53		 push	 ebx
  00018	56		 push	 esi
  00019	57		 push	 edi
  0001a	51		 push	 ecx
  0001b	8d bd 1c ff ff
	ff		 lea	 edi, DWORD PTR [ebp-228]
  00021	b9 36 00 00 00	 mov	 ecx, 54			; 00000036H
  00026	b8 cc cc cc cc	 mov	 eax, -858993460		; ccccccccH
  0002b	f3 ab		 rep stosd
  0002d	59		 pop	 ecx
  0002e	a1 00 00 00 00	 mov	 eax, DWORD PTR ___security_cookie
  00033	33 c5		 xor	 eax, ebp
  00035	50		 push	 eax
  00036	8d 45 f4	 lea	 eax, DWORD PTR __$EHRec$[ebp]
  00039	64 a3 00 00 00
	00		 mov	 DWORD PTR fs:0, eax
  0003f	89 4d ec	 mov	 DWORD PTR _this$[ebp], ecx
  00042	c7 85 20 ff ff
	ff 00 00 00 00	 mov	 DWORD PTR $T2[ebp], 0
  0004c	b9 00 00 00 00	 mov	 ecx, OFFSET __A934846A_sstream
  00051	e8 00 00 00 00	 call	 @__CheckForDebuggerJustMyCode@4
  00056	83 7d 10 00	 cmp	 DWORD PTR _$initVBases$[ebp], 0
  0005a	74 3e		 je	 SHORT $LN2@basic_stri
  0005c	8b 45 ec	 mov	 eax, DWORD PTR _this$[ebp]
  0005f	c7 00 00 00 00
	00		 mov	 DWORD PTR [eax], OFFSET ??_8?$basic_stringstream@DU?$char_traits@D@std@@V?$allocator@D@2@@std@@7B?$basic_istream@DU?$char_traits@D@std@@@1@@
  00065	8b 45 ec	 mov	 eax, DWORD PTR _this$[ebp]
  00068	c7 40 10 00 00
	00 00		 mov	 DWORD PTR [eax+16], OFFSET ??_8?$basic_stringstream@DU?$char_traits@D@std@@V?$allocator@D@2@@std@@7B?$basic_ostream@DU?$char_traits@D@std@@@1@@
  0006f	8b 4d ec	 mov	 ecx, DWORD PTR _this$[ebp]
  00072	83 c1 68	 add	 ecx, 104		; 00000068H
  00075	8b f4		 mov	 esi, esp
  00077	ff 15 00 00 00
	00		 call	 DWORD PTR __imp_??0?$basic_ios@DU?$char_traits@D@std@@@std@@IAE@XZ
  0007d	3b f4		 cmp	 esi, esp
  0007f	e8 00 00 00 00	 call	 __RTC_CheckEsp
  00084	c7 45 fc 00 00
	00 00		 mov	 DWORD PTR __$EHRec$[ebp+8], 0
  0008b	8b 85 20 ff ff
	ff		 mov	 eax, DWORD PTR $T2[ebp]
  00091	83 c8 01	 or	 eax, 1
  00094	89 85 20 ff ff
	ff		 mov	 DWORD PTR $T2[ebp], eax
$LN2@basic_stri:
  0009a	8b f4		 mov	 esi, esp
  0009c	6a 00		 push	 0
  0009e	8b 45 ec	 mov	 eax, DWORD PTR _this$[ebp]
  000a1	83 c0 18	 add	 eax, 24			; 00000018H
  000a4	50		 push	 eax
  000a5	e8 00 00 00 00	 call	 ??$addressof@V?$basic_stringbuf@DU?$char_traits@D@std@@V?$allocator@D@2@@std@@@std@@YAPAV?$basic_stringbuf@DU?$char_traits@D@std@@V?$allocator@D@2@@0@AAV10@@Z ; std::addressof<std::basic_stringbuf<char,std::char_traits<char>,std::allocator<char> > >
  000aa	83 c4 04	 add	 esp, 4
  000ad	50		 push	 eax
  000ae	8b 4d ec	 mov	 ecx, DWORD PTR _this$[ebp]
  000b1	ff 15 00 00 00
	00		 call	 DWORD PTR __imp_??0?$basic_iostream@DU?$char_traits@D@std@@@std@@QAE@PAV?$basic_streambuf@DU?$char_traits@D@std@@@1@@Z
  000b7	3b f4		 cmp	 esi, esp
  000b9	e8 00 00 00 00	 call	 __RTC_CheckEsp
  000be	c7 45 fc 01 00
	00 00		 mov	 DWORD PTR __$EHRec$[ebp+8], 1
  000c5	8b 45 ec	 mov	 eax, DWORD PTR _this$[ebp]
  000c8	8b 08		 mov	 ecx, DWORD PTR [eax]
  000ca	8b 51 04	 mov	 edx, DWORD PTR [ecx+4]
  000cd	8b 45 ec	 mov	 eax, DWORD PTR _this$[ebp]
  000d0	c7 04 10 00 00
	00 00		 mov	 DWORD PTR [eax+edx], OFFSET ??_7?$basic_stringstream@DU?$char_traits@D@std@@V?$allocator@D@2@@std@@6B@
  000d7	8b 45 ec	 mov	 eax, DWORD PTR _this$[ebp]
  000da	8b 08		 mov	 ecx, DWORD PTR [eax]
  000dc	8b 51 04	 mov	 edx, DWORD PTR [ecx+4]
  000df	83 ea 68	 sub	 edx, 104		; 00000068H
  000e2	8b 45 ec	 mov	 eax, DWORD PTR _this$[ebp]
  000e5	8b 08		 mov	 ecx, DWORD PTR [eax]
  000e7	8b 41 04	 mov	 eax, DWORD PTR [ecx+4]
  000ea	8b 4d ec	 mov	 ecx, DWORD PTR _this$[ebp]
  000ed	89 54 01 fc	 mov	 DWORD PTR [ecx+eax-4], edx
  000f1	8b 45 0c	 mov	 eax, DWORD PTR __Mode$[ebp]
  000f4	50		 push	 eax
  000f5	8b 4d 08	 mov	 ecx, DWORD PTR __Str$[ebp]
  000f8	51		 push	 ecx
  000f9	8b 4d ec	 mov	 ecx, DWORD PTR _this$[ebp]
  000fc	83 c1 18	 add	 ecx, 24			; 00000018H
  000ff	e8 00 00 00 00	 call	 ??0?$basic_stringbuf@DU?$char_traits@D@std@@V?$allocator@D@2@@std@@QAE@ABV?$basic_string@DU?$char_traits@D@std@@V?$allocator@D@2@@1@H@Z ; std::basic_stringbuf<char,std::char_traits<char>,std::allocator<char> >::basic_stringbuf<char,std::char_traits<char>,std::allocator<char> >
  00104	c7 45 fc ff ff
	ff ff		 mov	 DWORD PTR __$EHRec$[ebp+8], -1
  0010b	8b 45 ec	 mov	 eax, DWORD PTR _this$[ebp]
  0010e	8b 4d f4	 mov	 ecx, DWORD PTR __$EHRec$[ebp]
  00111	64 89 0d 00 00
	00 00		 mov	 DWORD PTR fs:0, ecx
  00118	59		 pop	 ecx
  00119	5f		 pop	 edi
  0011a	5e		 pop	 esi
  0011b	5b		 pop	 ebx
  0011c	81 c4 e4 00 00
	00		 add	 esp, 228		; 000000e4H
  00122	3b ec		 cmp	 ebp, esp
  00124	e8 00 00 00 00	 call	 __RTC_CheckEsp
  00129	8b e5		 mov	 esp, ebp
  0012b	5d		 pop	 ebp
  0012c	c2 0c 00	 ret	 12			; 0000000cH
_TEXT	ENDS
;	COMDAT text$x
text$x	SEGMENT
__unwindfunclet$??0?$basic_stringstream@DU?$char_traits@D@std@@V?$allocator@D@2@@std@@QAE@ABV?$basic_string@DU?$char_traits@D@std@@V?$allocator@D@2@@1@H@Z$0:
  00000	8b 85 20 ff ff
	ff		 mov	 eax, DWORD PTR $T2[ebp]
  00006	83 e0 01	 and	 eax, 1
  00009	0f 84 1c 00 00
	00		 je	 $LN5@basic_stri
  0000f	83 a5 20 ff ff
	ff fe		 and	 DWORD PTR $T2[ebp], -2	; fffffffeH
  00016	8b 4d ec	 mov	 ecx, DWORD PTR _this$[ebp]
  00019	83 c1 68	 add	 ecx, 104		; 00000068H
  0001c	8b f4		 mov	 esi, esp
  0001e	ff 15 00 00 00
	00		 call	 DWORD PTR __imp_??1?$basic_ios@DU?$char_traits@D@std@@@std@@UAE@XZ
  00024	3b f4		 cmp	 esi, esp
  00026	e9 00 00 00 00	 jmp	 __RTC_CheckEsp
$LN5@basic_stri:
  0002b	c3		 ret	 0
__unwindfunclet$??0?$basic_stringstream@DU?$char_traits@D@std@@V?$allocator@D@2@@std@@QAE@ABV?$basic_string@DU?$char_traits@D@std@@V?$allocator@D@2@@1@H@Z$1:
  0002c	8b 4d ec	 mov	 ecx, DWORD PTR _this$[ebp]
  0002f	83 c1 20	 add	 ecx, 32			; 00000020H
  00032	8b f4		 mov	 esi, esp
  00034	ff 15 00 00 00
	00		 call	 DWORD PTR __imp_??1?$basic_iostream@DU?$char_traits@D@std@@@std@@UAE@XZ
  0003a	3b f4		 cmp	 esi, esp
  0003c	e9 00 00 00 00	 jmp	 __RTC_CheckEsp
__ehhandler$??0?$basic_stringstream@DU?$char_traits@D@std@@V?$allocator@D@2@@std@@QAE@ABV?$basic_string@DU?$char_traits@D@std@@V?$allocator@D@2@@1@H@Z:
  00041	8b 54 24 08	 mov	 edx, DWORD PTR [esp+8]
  00045	8d 42 0c	 lea	 eax, DWORD PTR [edx+12]
  00048	8b 8a 18 ff ff
	ff		 mov	 ecx, DWORD PTR [edx-232]
  0004e	33 c8		 xor	 ecx, eax
  00050	e8 00 00 00 00	 call	 @__security_check_cookie@4
  00055	b8 00 00 00 00	 mov	 eax, OFFSET __ehfuncinfo$??0?$basic_stringstream@DU?$char_traits@D@std@@V?$allocator@D@2@@std@@QAE@ABV?$basic_string@DU?$char_traits@D@std@@V?$allocator@D@2@@1@H@Z
  0005a	e9 00 00 00 00	 jmp	 ___CxxFrameHandler3
text$x	ENDS
??0?$basic_stringstream@DU?$char_traits@D@std@@V?$allocator@D@2@@std@@QAE@ABV?$basic_string@DU?$char_traits@D@std@@V?$allocator@D@2@@1@H@Z ENDP ; std::basic_stringstream<char,std::char_traits<char>,std::allocator<char> >::basic_stringstream<char,std::char_traits<char>,std::allocator<char> >
; Function compile flags: /Odtp /RTCsu /ZI
; File C:\Program Files (x86)\Microsoft Visual Studio\2019\Community\VC\Tools\MSVC\14.24.28314\include\xstring
;	COMDAT ??$?5DU?$char_traits@D@std@@V?$allocator@D@1@@std@@YAAAV?$basic_istream@DU?$char_traits@D@std@@@0@$$QAV10@AAV?$basic_string@DU?$char_traits@D@std@@V?$allocator@D@2@@0@@Z
_TEXT	SEGMENT
tv261 = -336						; size = 4
tv259 = -336						; size = 4
tv257 = -336						; size = 8
tv256 = -336						; size = 8
tv255 = -336						; size = 8
tv252 = -336						; size = 4
tv260 = -332						; size = 4
tv258 = -332						; size = 4
tv65 = -332						; size = 4
tv262 = -329						; size = 1
$T2 = -324						; size = 4
$T3 = -312						; size = 4
$T4 = -300						; size = 8
__Meta$5 = -92						; size = 4
__Size$6 = -80						; size = 4
__Ctype_fac$7 = -68					; size = 4
__Ok$ = -56						; size = 8
__Changed$ = -37					; size = 1
__State$ = -28						; size = 4
__$ArrayPad$ = -20					; size = 4
__$EHRec$ = -16						; size = 16
__Istr$ = 8						; size = 4
__Str$ = 12						; size = 4
??$?5DU?$char_traits@D@std@@V?$allocator@D@1@@std@@YAAAV?$basic_istream@DU?$char_traits@D@std@@@0@$$QAV10@AAV?$basic_string@DU?$char_traits@D@std@@V?$allocator@D@2@@0@@Z PROC ; std::operator>><char,std::char_traits<char>,std::allocator<char> >, COMDAT

; 4470 :     basic_istream<_Elem, _Traits>&& _Istr, basic_string<_Elem, _Traits, _Alloc>& _Str) {

  00000	55		 push	 ebp
  00001	8b ec		 mov	 ebp, esp
  00003	6a ff		 push	 -1
  00005	68 00 00 00 00	 push	 __ehhandler$??$?5DU?$char_traits@D@std@@V?$allocator@D@1@@std@@YAAAV?$basic_istream@DU?$char_traits@D@std@@@0@$$QAV10@AAV?$basic_string@DU?$char_traits@D@std@@V?$allocator@D@2@@0@@Z
  0000a	64 a1 00 00 00
	00		 mov	 eax, DWORD PTR fs:0
  00010	50		 push	 eax
  00011	51		 push	 ecx
  00012	81 ec 40 01 00
	00		 sub	 esp, 320		; 00000140H
  00018	53		 push	 ebx
  00019	56		 push	 esi
  0001a	57		 push	 edi
  0001b	8d bd b0 fe ff
	ff		 lea	 edi, DWORD PTR [ebp-336]
  00021	b9 50 00 00 00	 mov	 ecx, 80			; 00000050H
  00026	b8 cc cc cc cc	 mov	 eax, -858993460		; ccccccccH
  0002b	f3 ab		 rep stosd
  0002d	a1 00 00 00 00	 mov	 eax, DWORD PTR ___security_cookie
  00032	33 c5		 xor	 eax, ebp
  00034	89 45 ec	 mov	 DWORD PTR __$ArrayPad$[ebp], eax
  00037	50		 push	 eax
  00038	8d 45 f4	 lea	 eax, DWORD PTR __$EHRec$[ebp+4]
  0003b	64 a3 00 00 00
	00		 mov	 DWORD PTR fs:0, eax
  00041	89 65 f0	 mov	 DWORD PTR __$EHRec$[ebp], esp
  00044	b9 00 00 00 00	 mov	 ecx, OFFSET __C564DC25_xstring
  00049	e8 00 00 00 00	 call	 @__CheckForDebuggerJustMyCode@4

; 4471 :     using _Myis   = basic_istream<_Elem, _Traits>;
; 4472 :     using _Ctype  = typename _Myis::_Ctype;
; 4473 :     using _Mystr  = basic_string<_Elem, _Traits, _Alloc>;
; 4474 :     using _Mysizt = typename _Mystr::size_type;
; 4475 : 
; 4476 :     typename _Myis::iostate _State = _Myis::goodbit;

  0004e	c7 45 e4 00 00
	00 00		 mov	 DWORD PTR __State$[ebp], 0

; 4477 :     bool _Changed                  = false;

  00055	c6 45 db 00	 mov	 BYTE PTR __Changed$[ebp], 0

; 4478 :     const typename _Myis::sentry _Ok(_Istr);

  00059	6a 00		 push	 0
  0005b	8b 45 08	 mov	 eax, DWORD PTR __Istr$[ebp]
  0005e	50		 push	 eax
  0005f	8d 4d c8	 lea	 ecx, DWORD PTR __Ok$[ebp]
  00062	e8 00 00 00 00	 call	 ??0sentry@?$basic_istream@DU?$char_traits@D@std@@@std@@QAE@AAV12@_N@Z ; std::basic_istream<char,std::char_traits<char> >::sentry::sentry
  00067	c7 45 fc 00 00
	00 00		 mov	 DWORD PTR __$EHRec$[ebp+12], 0

; 4479 : 
; 4480 :     if (_Ok) { // state okay, extract characters

  0006e	8d 4d c8	 lea	 ecx, DWORD PTR __Ok$[ebp]
  00071	e8 00 00 00 00	 call	 ??Bsentry@?$basic_istream@DU?$char_traits@D@std@@@std@@QBE_NXZ ; std::basic_istream<char,std::char_traits<char> >::sentry::operator bool
  00076	0f b6 c0	 movzx	 eax, al
  00079	85 c0		 test	 eax, eax
  0007b	0f 84 7b 02 00
	00		 je	 $LN5@operator

; 4481 :         const _Ctype& _Ctype_fac = _STD use_facet<_Ctype>(_Istr.getloc());

  00081	8b f4		 mov	 esi, esp
  00083	8d 85 d4 fe ff
	ff		 lea	 eax, DWORD PTR $T4[ebp]
  00089	50		 push	 eax
  0008a	8b 4d 08	 mov	 ecx, DWORD PTR __Istr$[ebp]
  0008d	8b 11		 mov	 edx, DWORD PTR [ecx]
  0008f	8b 4d 08	 mov	 ecx, DWORD PTR __Istr$[ebp]
  00092	03 4a 04	 add	 ecx, DWORD PTR [edx+4]
  00095	ff 15 00 00 00
	00		 call	 DWORD PTR __imp_?getloc@ios_base@std@@QBE?AVlocale@2@XZ
  0009b	3b f4		 cmp	 esi, esp
  0009d	e8 00 00 00 00	 call	 __RTC_CheckEsp
  000a2	89 85 b4 fe ff
	ff		 mov	 DWORD PTR tv65[ebp], eax
  000a8	8b 85 b4 fe ff
	ff		 mov	 eax, DWORD PTR tv65[ebp]
  000ae	89 85 b0 fe ff
	ff		 mov	 DWORD PTR tv252[ebp], eax
  000b4	c6 45 fc 01	 mov	 BYTE PTR __$EHRec$[ebp+12], 1
  000b8	8b 8d b0 fe ff
	ff		 mov	 ecx, DWORD PTR tv252[ebp]
  000be	51		 push	 ecx
  000bf	e8 00 00 00 00	 call	 ??$use_facet@V?$ctype@D@std@@@std@@YAABV?$ctype@D@0@ABVlocale@0@@Z ; std::use_facet<std::ctype<char> >
  000c4	83 c4 04	 add	 esp, 4
  000c7	89 45 bc	 mov	 DWORD PTR __Ctype_fac$7[ebp], eax
  000ca	c6 45 fc 00	 mov	 BYTE PTR __$EHRec$[ebp+12], 0
  000ce	8d 8d d4 fe ff
	ff		 lea	 ecx, DWORD PTR $T4[ebp]
  000d4	e8 00 00 00 00	 call	 ??1locale@std@@QAE@XZ	; std::locale::~locale

; 4482 :         _Str.erase();

  000d9	6a 00		 push	 0
  000db	8b 4d 0c	 mov	 ecx, DWORD PTR __Str$[ebp]
  000de	e8 00 00 00 00	 call	 ?erase@?$basic_string@DU?$char_traits@D@std@@V?$allocator@D@2@@std@@QAEAAV12@I@Z ; std::basic_string<char,std::char_traits<char>,std::allocator<char> >::erase

; 4483 : 
; 4484 :         _TRY_IO_BEGIN

  000e3	c6 45 fc 02	 mov	 BYTE PTR __$EHRec$[ebp+12], 2

; 4485 :         _Mysizt _Size;
; 4486 :         if (0 < _Istr.width() && static_cast<_Mysizt>(_Istr.width()) < _Str.max_size()) {

  000e7	8b 45 08	 mov	 eax, DWORD PTR __Istr$[ebp]
  000ea	8b 08		 mov	 ecx, DWORD PTR [eax]
  000ec	8b 55 08	 mov	 edx, DWORD PTR __Istr$[ebp]
  000ef	03 51 04	 add	 edx, DWORD PTR [ecx+4]
  000f2	8b f4		 mov	 esi, esp
  000f4	8b ca		 mov	 ecx, edx
  000f6	ff 15 00 00 00
	00		 call	 DWORD PTR __imp_?width@ios_base@std@@QBE_JXZ
  000fc	3b f4		 cmp	 esi, esp
  000fe	e8 00 00 00 00	 call	 __RTC_CheckEsp
  00103	89 85 b0 fe ff
	ff		 mov	 DWORD PTR tv255[ebp], eax
  00109	89 95 b4 fe ff
	ff		 mov	 DWORD PTR tv255[ebp+4], edx
  0010f	83 bd b4 fe ff
	ff 00		 cmp	 DWORD PTR tv255[ebp+4], 0
  00116	7c 76		 jl	 SHORT $LN7@operator
  00118	7f 09		 jg	 SHORT $LN21@operator
  0011a	83 bd b0 fe ff
	ff 00		 cmp	 DWORD PTR tv255[ebp], 0
  00121	76 6b		 jbe	 SHORT $LN7@operator
$LN21@operator:
  00123	8b 45 08	 mov	 eax, DWORD PTR __Istr$[ebp]
  00126	8b 08		 mov	 ecx, DWORD PTR [eax]
  00128	8b 55 08	 mov	 edx, DWORD PTR __Istr$[ebp]
  0012b	03 51 04	 add	 edx, DWORD PTR [ecx+4]
  0012e	8b f4		 mov	 esi, esp
  00130	8b ca		 mov	 ecx, edx
  00132	ff 15 00 00 00
	00		 call	 DWORD PTR __imp_?width@ios_base@std@@QBE_JXZ
  00138	3b f4		 cmp	 esi, esp
  0013a	e8 00 00 00 00	 call	 __RTC_CheckEsp
  0013f	89 85 b0 fe ff
	ff		 mov	 DWORD PTR tv256[ebp], eax
  00145	89 95 b4 fe ff
	ff		 mov	 DWORD PTR tv256[ebp+4], edx
  0014b	8b 4d 0c	 mov	 ecx, DWORD PTR __Str$[ebp]
  0014e	e8 00 00 00 00	 call	 ?max_size@?$basic_string@DU?$char_traits@D@std@@V?$allocator@D@2@@std@@QBEIXZ ; std::basic_string<char,std::char_traits<char>,std::allocator<char> >::max_size
  00153	39 85 b0 fe ff
	ff		 cmp	 DWORD PTR tv256[ebp], eax
  00159	73 33		 jae	 SHORT $LN7@operator

; 4487 :             _Size = static_cast<_Mysizt>(_Istr.width());

  0015b	8b 45 08	 mov	 eax, DWORD PTR __Istr$[ebp]
  0015e	8b 08		 mov	 ecx, DWORD PTR [eax]
  00160	8b 55 08	 mov	 edx, DWORD PTR __Istr$[ebp]
  00163	03 51 04	 add	 edx, DWORD PTR [ecx+4]
  00166	8b f4		 mov	 esi, esp
  00168	8b ca		 mov	 ecx, edx
  0016a	ff 15 00 00 00
	00		 call	 DWORD PTR __imp_?width@ios_base@std@@QBE_JXZ
  00170	3b f4		 cmp	 esi, esp
  00172	e8 00 00 00 00	 call	 __RTC_CheckEsp
  00177	89 85 b0 fe ff
	ff		 mov	 DWORD PTR tv257[ebp], eax
  0017d	89 95 b4 fe ff
	ff		 mov	 DWORD PTR tv257[ebp+4], edx
  00183	8b 85 b0 fe ff
	ff		 mov	 eax, DWORD PTR tv257[ebp]
  00189	89 45 b0	 mov	 DWORD PTR __Size$6[ebp], eax

; 4488 :         } else {

  0018c	eb 0b		 jmp	 SHORT $LN8@operator
$LN7@operator:

; 4489 :             _Size = _Str.max_size();

  0018e	8b 4d 0c	 mov	 ecx, DWORD PTR __Str$[ebp]
  00191	e8 00 00 00 00	 call	 ?max_size@?$basic_string@DU?$char_traits@D@std@@V?$allocator@D@2@@std@@QBEIXZ ; std::basic_string<char,std::char_traits<char>,std::allocator<char> >::max_size
  00196	89 45 b0	 mov	 DWORD PTR __Size$6[ebp], eax
$LN8@operator:

; 4490 :         }
; 4491 : 
; 4492 :         typename _Traits::int_type _Meta = _Istr.rdbuf()->sgetc();

  00199	8b 45 08	 mov	 eax, DWORD PTR __Istr$[ebp]
  0019c	8b 08		 mov	 ecx, DWORD PTR [eax]
  0019e	8b 55 08	 mov	 edx, DWORD PTR __Istr$[ebp]
  001a1	03 51 04	 add	 edx, DWORD PTR [ecx+4]
  001a4	8b f4		 mov	 esi, esp
  001a6	8b ca		 mov	 ecx, edx
  001a8	ff 15 00 00 00
	00		 call	 DWORD PTR __imp_?rdbuf@?$basic_ios@DU?$char_traits@D@std@@@std@@QBEPAV?$basic_streambuf@DU?$char_traits@D@std@@@2@XZ
  001ae	3b f4		 cmp	 esi, esp
  001b0	e8 00 00 00 00	 call	 __RTC_CheckEsp
  001b5	89 85 b4 fe ff
	ff		 mov	 DWORD PTR tv258[ebp], eax
  001bb	8b f4		 mov	 esi, esp
  001bd	8b 8d b4 fe ff
	ff		 mov	 ecx, DWORD PTR tv258[ebp]
  001c3	ff 15 00 00 00
	00		 call	 DWORD PTR __imp_?sgetc@?$basic_streambuf@DU?$char_traits@D@std@@@std@@QAEHXZ
  001c9	3b f4		 cmp	 esi, esp
  001cb	e8 00 00 00 00	 call	 __RTC_CheckEsp
  001d0	89 85 b0 fe ff
	ff		 mov	 DWORD PTR tv259[ebp], eax
  001d6	8b 85 b0 fe ff
	ff		 mov	 eax, DWORD PTR tv259[ebp]
  001dc	89 45 a4	 mov	 DWORD PTR __Meta$5[ebp], eax

; 4493 : 
; 4494 :         for (; 0 < _Size; --_Size, _Meta = _Istr.rdbuf()->snextc()) {

  001df	eb 4d		 jmp	 SHORT $LN4@operator
$LN2@operator:
  001e1	8b 45 b0	 mov	 eax, DWORD PTR __Size$6[ebp]
  001e4	83 e8 01	 sub	 eax, 1
  001e7	89 45 b0	 mov	 DWORD PTR __Size$6[ebp], eax
  001ea	8b 4d 08	 mov	 ecx, DWORD PTR __Istr$[ebp]
  001ed	8b 11		 mov	 edx, DWORD PTR [ecx]
  001ef	8b 4d 08	 mov	 ecx, DWORD PTR __Istr$[ebp]
  001f2	03 4a 04	 add	 ecx, DWORD PTR [edx+4]
  001f5	8b f4		 mov	 esi, esp
  001f7	ff 15 00 00 00
	00		 call	 DWORD PTR __imp_?rdbuf@?$basic_ios@DU?$char_traits@D@std@@@std@@QBEPAV?$basic_streambuf@DU?$char_traits@D@std@@@2@XZ
  001fd	3b f4		 cmp	 esi, esp
  001ff	e8 00 00 00 00	 call	 __RTC_CheckEsp
  00204	89 85 b4 fe ff
	ff		 mov	 DWORD PTR tv260[ebp], eax
  0020a	8b f4		 mov	 esi, esp
  0020c	8b 8d b4 fe ff
	ff		 mov	 ecx, DWORD PTR tv260[ebp]
  00212	ff 15 00 00 00
	00		 call	 DWORD PTR __imp_?snextc@?$basic_streambuf@DU?$char_traits@D@std@@@std@@QAEHXZ
  00218	3b f4		 cmp	 esi, esp
  0021a	e8 00 00 00 00	 call	 __RTC_CheckEsp
  0021f	89 85 b0 fe ff
	ff		 mov	 DWORD PTR tv261[ebp], eax
  00225	8b 85 b0 fe ff
	ff		 mov	 eax, DWORD PTR tv261[ebp]
  0022b	89 45 a4	 mov	 DWORD PTR __Meta$5[ebp], eax
$LN4@operator:
  0022e	83 7d b0 00	 cmp	 DWORD PTR __Size$6[ebp], 0
  00232	0f 86 8c 00 00
	00		 jbe	 $LN3@operator

; 4495 :             if (_Traits::eq_int_type(_Traits::eof(), _Meta)) { // end of file, quit

  00238	e8 00 00 00 00	 call	 ?eof@?$_Narrow_char_traits@DH@std@@SAHXZ ; std::_Narrow_char_traits<char,int>::eof
  0023d	89 85 c8 fe ff
	ff		 mov	 DWORD PTR $T3[ebp], eax
  00243	8d 45 a4	 lea	 eax, DWORD PTR __Meta$5[ebp]
  00246	50		 push	 eax
  00247	8d 8d c8 fe ff
	ff		 lea	 ecx, DWORD PTR $T3[ebp]
  0024d	51		 push	 ecx
  0024e	e8 00 00 00 00	 call	 ?eq_int_type@?$_Narrow_char_traits@DH@std@@SA_NABH0@Z ; std::_Narrow_char_traits<char,int>::eq_int_type
  00253	83 c4 08	 add	 esp, 8
  00256	0f b6 d0	 movzx	 edx, al
  00259	85 d2		 test	 edx, edx
  0025b	74 0d		 je	 SHORT $LN9@operator

; 4496 :                 _State |= _Myis::eofbit;

  0025d	8b 45 e4	 mov	 eax, DWORD PTR __State$[ebp]
  00260	83 c8 01	 or	 eax, 1
  00263	89 45 e4	 mov	 DWORD PTR __State$[ebp], eax

; 4497 :                 break;

  00266	eb 5c		 jmp	 SHORT $LN3@operator
  00268	eb 55		 jmp	 SHORT $LN10@operator
$LN9@operator:

; 4498 :             } else if (_Ctype_fac.is(_Ctype::space, _Traits::to_char_type(_Meta))) {

  0026a	8d 45 a4	 lea	 eax, DWORD PTR __Meta$5[ebp]
  0026d	50		 push	 eax
  0026e	e8 00 00 00 00	 call	 ?to_char_type@?$_Narrow_char_traits@DH@std@@SADABH@Z ; std::_Narrow_char_traits<char,int>::to_char_type
  00273	83 c4 04	 add	 esp, 4
  00276	8b f4		 mov	 esi, esp
  00278	0f b6 c8	 movzx	 ecx, al
  0027b	51		 push	 ecx
  0027c	6a 48		 push	 72			; 00000048H
  0027e	8b 4d bc	 mov	 ecx, DWORD PTR __Ctype_fac$7[ebp]
  00281	ff 15 00 00 00
	00		 call	 DWORD PTR __imp_?is@?$ctype@D@std@@QBE_NFD@Z
  00287	3b f4		 cmp	 esi, esp
  00289	e8 00 00 00 00	 call	 __RTC_CheckEsp
  0028e	88 85 b7 fe ff
	ff		 mov	 BYTE PTR tv262[ebp], al
  00294	0f b6 95 b7 fe
	ff ff		 movzx	 edx, BYTE PTR tv262[ebp]
  0029b	85 d2		 test	 edx, edx
  0029d	74 04		 je	 SHORT $LN11@operator

; 4499 :                 break; // whitespace, quit

  0029f	eb 23		 jmp	 SHORT $LN3@operator

; 4500 :             } else { // add character to string

  002a1	eb 1c		 jmp	 SHORT $LN10@operator
$LN11@operator:

; 4501 :                 _Str.push_back(_Traits::to_char_type(_Meta));

  002a3	8d 45 a4	 lea	 eax, DWORD PTR __Meta$5[ebp]
  002a6	50		 push	 eax
  002a7	e8 00 00 00 00	 call	 ?to_char_type@?$_Narrow_char_traits@DH@std@@SADABH@Z ; std::_Narrow_char_traits<char,int>::to_char_type
  002ac	83 c4 04	 add	 esp, 4
  002af	0f b6 c8	 movzx	 ecx, al
  002b2	51		 push	 ecx
  002b3	8b 4d 0c	 mov	 ecx, DWORD PTR __Str$[ebp]
  002b6	e8 00 00 00 00	 call	 ?push_back@?$basic_string@DU?$char_traits@D@std@@V?$allocator@D@2@@std@@QAEXD@Z ; std::basic_string<char,std::char_traits<char>,std::allocator<char> >::push_back

; 4502 :                 _Changed = true;

  002bb	c6 45 db 01	 mov	 BYTE PTR __Changed$[ebp], 1
$LN10@operator:

; 4503 :             }
; 4504 :         }

  002bf	e9 1d ff ff ff	 jmp	 $LN2@operator
$LN3@operator:
  002c4	eb 26		 jmp	 SHORT $LN15@operator
__catch$??$?5DU?$char_traits@D@std@@V?$allocator@D@1@@std@@YAAAV?$basic_istream@DU?$char_traits@D@std@@@0@$$QAV10@AAV?$basic_string@DU?$char_traits@D@std@@V?$allocator@D@2@@0@@Z$0:

; 4505 :         _CATCH_IO_(_Myis, _Istr)

  002c6	8b f4		 mov	 esi, esp
  002c8	6a 01		 push	 1
  002ca	6a 04		 push	 4
  002cc	8b 45 08	 mov	 eax, DWORD PTR __Istr$[ebp]
  002cf	8b 08		 mov	 ecx, DWORD PTR [eax]
  002d1	8b 55 08	 mov	 edx, DWORD PTR __Istr$[ebp]
  002d4	03 51 04	 add	 edx, DWORD PTR [ecx+4]
  002d7	8b ca		 mov	 ecx, edx
  002d9	ff 15 00 00 00
	00		 call	 DWORD PTR __imp_?setstate@?$basic_ios@DU?$char_traits@D@std@@@std@@QAEXH_N@Z
  002df	3b f4		 cmp	 esi, esp
  002e1	e8 00 00 00 00	 call	 __RTC_CheckEsp
  002e6	b8 00 00 00 00	 mov	 eax, $LN20@operator
  002eb	c3		 ret	 0
$LN15@operator:
  002ec	c7 45 fc 00 00
	00 00		 mov	 DWORD PTR __$EHRec$[ebp+12], 0
  002f3	eb 07		 jmp	 SHORT $LN5@operator
$LN20@operator:
  002f5	c7 45 fc 00 00
	00 00		 mov	 DWORD PTR __$EHRec$[ebp+12], 0
$LN5@operator:

; 4506 :     }
; 4507 : 
; 4508 :     _Istr.width(0);

  002fc	8b f4		 mov	 esi, esp
  002fe	6a 00		 push	 0
  00300	6a 00		 push	 0
  00302	8b 45 08	 mov	 eax, DWORD PTR __Istr$[ebp]
  00305	8b 08		 mov	 ecx, DWORD PTR [eax]
  00307	8b 55 08	 mov	 edx, DWORD PTR __Istr$[ebp]
  0030a	03 51 04	 add	 edx, DWORD PTR [ecx+4]
  0030d	8b ca		 mov	 ecx, edx
  0030f	ff 15 00 00 00
	00		 call	 DWORD PTR __imp_?width@ios_base@std@@QAE_J_J@Z
  00315	3b f4		 cmp	 esi, esp
  00317	e8 00 00 00 00	 call	 __RTC_CheckEsp

; 4509 :     if (!_Changed) {

  0031c	0f b6 45 db	 movzx	 eax, BYTE PTR __Changed$[ebp]
  00320	85 c0		 test	 eax, eax
  00322	75 09		 jne	 SHORT $LN13@operator

; 4510 :         _State |= _Myis::failbit;

  00324	8b 45 e4	 mov	 eax, DWORD PTR __State$[ebp]
  00327	83 c8 02	 or	 eax, 2
  0032a	89 45 e4	 mov	 DWORD PTR __State$[ebp], eax
$LN13@operator:

; 4511 :     }
; 4512 : 
; 4513 :     _Istr.setstate(_State);

  0032d	8b f4		 mov	 esi, esp
  0032f	6a 00		 push	 0
  00331	8b 45 e4	 mov	 eax, DWORD PTR __State$[ebp]
  00334	50		 push	 eax
  00335	8b 4d 08	 mov	 ecx, DWORD PTR __Istr$[ebp]
  00338	8b 11		 mov	 edx, DWORD PTR [ecx]
  0033a	8b 4d 08	 mov	 ecx, DWORD PTR __Istr$[ebp]
  0033d	03 4a 04	 add	 ecx, DWORD PTR [edx+4]
  00340	ff 15 00 00 00
	00		 call	 DWORD PTR __imp_?setstate@?$basic_ios@DU?$char_traits@D@std@@@std@@QAEXH_N@Z
  00346	3b f4		 cmp	 esi, esp
  00348	e8 00 00 00 00	 call	 __RTC_CheckEsp

; 4514 :     return _Istr;

  0034d	8b 45 08	 mov	 eax, DWORD PTR __Istr$[ebp]
  00350	89 85 bc fe ff
	ff		 mov	 DWORD PTR $T2[ebp], eax
  00356	c7 45 fc ff ff
	ff ff		 mov	 DWORD PTR __$EHRec$[ebp+12], -1
  0035d	8d 4d c8	 lea	 ecx, DWORD PTR __Ok$[ebp]
  00360	e8 00 00 00 00	 call	 ??1sentry@?$basic_istream@DU?$char_traits@D@std@@@std@@QAE@XZ
  00365	8b 85 bc fe ff
	ff		 mov	 eax, DWORD PTR $T2[ebp]

; 4515 : }

  0036b	52		 push	 edx
  0036c	8b cd		 mov	 ecx, ebp
  0036e	50		 push	 eax
  0036f	8d 15 00 00 00
	00		 lea	 edx, DWORD PTR $LN26@operator
  00375	e8 00 00 00 00	 call	 @_RTC_CheckStackVars@8
  0037a	58		 pop	 eax
  0037b	5a		 pop	 edx
  0037c	8b 4d f4	 mov	 ecx, DWORD PTR __$EHRec$[ebp+4]
  0037f	64 89 0d 00 00
	00 00		 mov	 DWORD PTR fs:0, ecx
  00386	59		 pop	 ecx
  00387	5f		 pop	 edi
  00388	5e		 pop	 esi
  00389	5b		 pop	 ebx
  0038a	8b 4d ec	 mov	 ecx, DWORD PTR __$ArrayPad$[ebp]
  0038d	33 cd		 xor	 ecx, ebp
  0038f	e8 00 00 00 00	 call	 @__security_check_cookie@4
  00394	81 c4 50 01 00
	00		 add	 esp, 336		; 00000150H
  0039a	3b ec		 cmp	 ebp, esp
  0039c	e8 00 00 00 00	 call	 __RTC_CheckEsp
  003a1	8b e5		 mov	 esp, ebp
  003a3	5d		 pop	 ebp
  003a4	c3		 ret	 0
  003a5	0f 1f 00	 npad	 3
$LN26@operator:
  003a8	02 00 00 00	 DD	 2
  003ac	00 00 00 00	 DD	 $LN25@operator
$LN25@operator:
  003b0	c8 ff ff ff	 DD	 -56			; ffffffc8H
  003b4	08 00 00 00	 DD	 8
  003b8	00 00 00 00	 DD	 $LN22@operator
  003bc	a4 ff ff ff	 DD	 -92			; ffffffa4H
  003c0	04 00 00 00	 DD	 4
  003c4	00 00 00 00	 DD	 $LN23@operator
$LN23@operator:
  003c8	5f		 DB	 95			; 0000005fH
  003c9	4d		 DB	 77			; 0000004dH
  003ca	65		 DB	 101			; 00000065H
  003cb	74		 DB	 116			; 00000074H
  003cc	61		 DB	 97			; 00000061H
  003cd	00		 DB	 0
$LN22@operator:
  003ce	5f		 DB	 95			; 0000005fH
  003cf	4f		 DB	 79			; 0000004fH
  003d0	6b		 DB	 107			; 0000006bH
  003d1	00		 DB	 0
_TEXT	ENDS
;	COMDAT text$x
text$x	SEGMENT
__unwindfunclet$??$?5DU?$char_traits@D@std@@V?$allocator@D@1@@std@@YAAAV?$basic_istream@DU?$char_traits@D@std@@@0@$$QAV10@AAV?$basic_string@DU?$char_traits@D@std@@V?$allocator@D@2@@0@@Z$2:
  00000	8d 4d c8	 lea	 ecx, DWORD PTR __Ok$[ebp]
  00003	e9 00 00 00 00	 jmp	 ??1sentry@?$basic_istream@DU?$char_traits@D@std@@@std@@QAE@XZ
__unwindfunclet$??$?5DU?$char_traits@D@std@@V?$allocator@D@1@@std@@YAAAV?$basic_istream@DU?$char_traits@D@std@@@0@$$QAV10@AAV?$basic_string@DU?$char_traits@D@std@@V?$allocator@D@2@@0@@Z$3:
  00008	8d 8d d4 fe ff
	ff		 lea	 ecx, DWORD PTR $T4[ebp]
  0000e	e9 00 00 00 00	 jmp	 ??1locale@std@@QAE@XZ	; std::locale::~locale
__ehhandler$??$?5DU?$char_traits@D@std@@V?$allocator@D@1@@std@@YAAAV?$basic_istream@DU?$char_traits@D@std@@@0@$$QAV10@AAV?$basic_string@DU?$char_traits@D@std@@V?$allocator@D@2@@0@@Z:
  00013	8b 54 24 08	 mov	 edx, DWORD PTR [esp+8]
  00017	8d 42 0c	 lea	 eax, DWORD PTR [edx+12]
  0001a	8b 8a ac fe ff
	ff		 mov	 ecx, DWORD PTR [edx-340]
  00020	33 c8		 xor	 ecx, eax
  00022	e8 00 00 00 00	 call	 @__security_check_cookie@4
  00027	8b 4a f8	 mov	 ecx, DWORD PTR [edx-8]
  0002a	33 c8		 xor	 ecx, eax
  0002c	e8 00 00 00 00	 call	 @__security_check_cookie@4
  00031	b8 00 00 00 00	 mov	 eax, OFFSET __ehfuncinfo$??$?5DU?$char_traits@D@std@@V?$allocator@D@1@@std@@YAAAV?$basic_istream@DU?$char_traits@D@std@@@0@$$QAV10@AAV?$basic_string@DU?$char_traits@D@std@@V?$allocator@D@2@@0@@Z
  00036	e9 00 00 00 00	 jmp	 ___CxxFrameHandler3
text$x	ENDS
??$?5DU?$char_traits@D@std@@V?$allocator@D@1@@std@@YAAAV?$basic_istream@DU?$char_traits@D@std@@@0@$$QAV10@AAV?$basic_string@DU?$char_traits@D@std@@V?$allocator@D@2@@0@@Z ENDP ; std::operator>><char,std::char_traits<char>,std::allocator<char> >
; Function compile flags: /Odtp /RTCsu /ZI
; File C:\Program Files (x86)\Microsoft Visual Studio\2019\Community\VC\Tools\MSVC\14.24.28314\include\xstring
;	COMDAT ??$?5DU?$char_traits@D@std@@V?$allocator@D@1@@std@@YAAAV?$basic_istream@DU?$char_traits@D@std@@@0@AAV10@AAV?$basic_string@DU?$char_traits@D@std@@V?$allocator@D@2@@0@@Z
_TEXT	SEGMENT
__Istr$ = 8						; size = 4
__Str$ = 12						; size = 4
??$?5DU?$char_traits@D@std@@V?$allocator@D@1@@std@@YAAAV?$basic_istream@DU?$char_traits@D@std@@@0@AAV10@AAV?$basic_string@DU?$char_traits@D@std@@V?$allocator@D@2@@0@@Z PROC ; std::operator>><char,std::char_traits<char>,std::allocator<char> >, COMDAT

; 4519 :     basic_istream<_Elem, _Traits>& _Istr, basic_string<_Elem, _Traits, _Alloc>& _Str) {

  00000	55		 push	 ebp
  00001	8b ec		 mov	 ebp, esp
  00003	81 ec c0 00 00
	00		 sub	 esp, 192		; 000000c0H
  00009	53		 push	 ebx
  0000a	56		 push	 esi
  0000b	57		 push	 edi
  0000c	8d bd 40 ff ff
	ff		 lea	 edi, DWORD PTR [ebp-192]
  00012	b9 30 00 00 00	 mov	 ecx, 48			; 00000030H
  00017	b8 cc cc cc cc	 mov	 eax, -858993460		; ccccccccH
  0001c	f3 ab		 rep stosd
  0001e	b9 00 00 00 00	 mov	 ecx, OFFSET __C564DC25_xstring
  00023	e8 00 00 00 00	 call	 @__CheckForDebuggerJustMyCode@4

; 4520 :     return _STD move(_Istr) >> _Str;

  00028	8b 45 0c	 mov	 eax, DWORD PTR __Str$[ebp]
  0002b	50		 push	 eax
  0002c	8b 4d 08	 mov	 ecx, DWORD PTR __Istr$[ebp]
  0002f	51		 push	 ecx
  00030	e8 00 00 00 00	 call	 ??$move@AAV?$basic_istream@DU?$char_traits@D@std@@@std@@@std@@YA$$QAV?$basic_istream@DU?$char_traits@D@std@@@0@AAV10@@Z ; std::move<std::basic_istream<char,std::char_traits<char> > &>
  00035	83 c4 04	 add	 esp, 4
  00038	50		 push	 eax
  00039	e8 00 00 00 00	 call	 ??$?5DU?$char_traits@D@std@@V?$allocator@D@1@@std@@YAAAV?$basic_istream@DU?$char_traits@D@std@@@0@$$QAV10@AAV?$basic_string@DU?$char_traits@D@std@@V?$allocator@D@2@@0@@Z ; std::operator>><char,std::char_traits<char>,std::allocator<char> >
  0003e	83 c4 08	 add	 esp, 8

; 4521 : }

  00041	5f		 pop	 edi
  00042	5e		 pop	 esi
  00043	5b		 pop	 ebx
  00044	81 c4 c0 00 00
	00		 add	 esp, 192		; 000000c0H
  0004a	3b ec		 cmp	 ebp, esp
  0004c	e8 00 00 00 00	 call	 __RTC_CheckEsp
  00051	8b e5		 mov	 esp, ebp
  00053	5d		 pop	 ebp
  00054	c3		 ret	 0
??$?5DU?$char_traits@D@std@@V?$allocator@D@1@@std@@YAAAV?$basic_istream@DU?$char_traits@D@std@@@0@AAV10@AAV?$basic_string@DU?$char_traits@D@std@@V?$allocator@D@2@@0@@Z ENDP ; std::operator>><char,std::char_traits<char>,std::allocator<char> >
_TEXT	ENDS
; Function compile flags: /Odtp /RTCsu /ZI
; File C:\Users\Vlad\LP\Laba1LP\Laba1LP.cpp
;	COMDAT _main
_TEXT	SEGMENT
_TempYear$ = -732					; size = 176
_TempMonth$ = -548					; size = 176
_TempDay$ = -364					; size = 176
_daysnum$ = -180					; size = 4
_Year$ = -168						; size = 4
_Mounth$ = -156						; size = 4
_Day$ = -144						; size = 4
_Year1$ = -132						; size = 28
_Mounth1$ = -96						; size = 28
_Day1$ = -60						; size = 28
_Zero$ = -21						; size = 1
__$ArrayPad$ = -16					; size = 4
__$EHRec$ = -12						; size = 12
_main	PROC						; COMDAT

; 10   : int main() {

  00000	55		 push	 ebp
  00001	8b ec		 mov	 ebp, esp
  00003	6a ff		 push	 -1
  00005	68 00 00 00 00	 push	 __ehhandler$_main
  0000a	64 a1 00 00 00
	00		 mov	 eax, DWORD PTR fs:0
  00010	50		 push	 eax
  00011	81 ec 54 04 00
	00		 sub	 esp, 1108		; 00000454H
  00017	53		 push	 ebx
  00018	56		 push	 esi
  00019	57		 push	 edi
  0001a	8d bd a0 fb ff
	ff		 lea	 edi, DWORD PTR [ebp-1120]
  00020	b9 15 01 00 00	 mov	 ecx, 277		; 00000115H
  00025	b8 cc cc cc cc	 mov	 eax, -858993460		; ccccccccH
  0002a	f3 ab		 rep stosd
  0002c	a1 00 00 00 00	 mov	 eax, DWORD PTR ___security_cookie
  00031	33 c5		 xor	 eax, ebp
  00033	89 45 f0	 mov	 DWORD PTR __$ArrayPad$[ebp], eax
  00036	50		 push	 eax
  00037	8d 45 f4	 lea	 eax, DWORD PTR __$EHRec$[ebp]
  0003a	64 a3 00 00 00
	00		 mov	 DWORD PTR fs:0, eax
  00040	b9 00 00 00 00	 mov	 ecx, OFFSET __6EC763AE_Laba1LP@cpp
  00045	e8 00 00 00 00	 call	 @__CheckForDebuggerJustMyCode@4

; 11   : 	setlocale(LC_ALL, "Rus");

  0004a	8b f4		 mov	 esi, esp
  0004c	68 00 00 00 00	 push	 OFFSET ??_C@_03OJJHGHEE@Rus@
  00051	6a 00		 push	 0
  00053	ff 15 00 00 00
	00		 call	 DWORD PTR __imp__setlocale
  00059	83 c4 08	 add	 esp, 8
  0005c	3b f4		 cmp	 esi, esp
  0005e	e8 00 00 00 00	 call	 __RTC_CheckEsp

; 12   : 	// 
; 13   : 	const char Zero = '0';

  00063	c6 45 eb 30	 mov	 BYTE PTR _Zero$[ebp], 48 ; 00000030H

; 14   : 	string Day1, Mounth1, Year1;

  00067	8d 4d c4	 lea	 ecx, DWORD PTR _Day1$[ebp]
  0006a	e8 00 00 00 00	 call	 ??0?$basic_string@DU?$char_traits@D@std@@V?$allocator@D@2@@std@@QAE@XZ ; std::basic_string<char,std::char_traits<char>,std::allocator<char> >::basic_string<char,std::char_traits<char>,std::allocator<char> >
  0006f	c7 45 fc 00 00
	00 00		 mov	 DWORD PTR __$EHRec$[ebp+8], 0
  00076	8d 4d a0	 lea	 ecx, DWORD PTR _Mounth1$[ebp]
  00079	e8 00 00 00 00	 call	 ??0?$basic_string@DU?$char_traits@D@std@@V?$allocator@D@2@@std@@QAE@XZ ; std::basic_string<char,std::char_traits<char>,std::allocator<char> >::basic_string<char,std::char_traits<char>,std::allocator<char> >
  0007e	c6 45 fc 01	 mov	 BYTE PTR __$EHRec$[ebp+8], 1
  00082	8d 8d 7c ff ff
	ff		 lea	 ecx, DWORD PTR _Year1$[ebp]
  00088	e8 00 00 00 00	 call	 ??0?$basic_string@DU?$char_traits@D@std@@V?$allocator@D@2@@std@@QAE@XZ ; std::basic_string<char,std::char_traits<char>,std::allocator<char> >::basic_string<char,std::char_traits<char>,std::allocator<char> >
  0008d	c6 45 fc 02	 mov	 BYTE PTR __$EHRec$[ebp+8], 2
$there$33:

; 15   : 	int Day, Mounth, Year, daysnum;
; 16   : 	//Enter value
; 17   : there:
; 18   : 	printf(" ,   :\n");

  00091	68 00 00 00 00	 push	 OFFSET ??_C@_0BM@GLGNCEEH@?B?b?e?d?h?r?e?5?D?e?m?$PM?0?5?L?e?q?$PP?v?5?h?5?C?n?d?3?6@
  00096	e8 00 00 00 00	 call	 _printf
  0009b	83 c4 04	 add	 esp, 4

; 19   : 	cin >> Day1 >> Mounth1 >> Year1;

  0009e	8d 85 7c ff ff
	ff		 lea	 eax, DWORD PTR _Year1$[ebp]
  000a4	50		 push	 eax
  000a5	8d 4d a0	 lea	 ecx, DWORD PTR _Mounth1$[ebp]
  000a8	51		 push	 ecx
  000a9	8d 55 c4	 lea	 edx, DWORD PTR _Day1$[ebp]
  000ac	52		 push	 edx
  000ad	a1 00 00 00 00	 mov	 eax, DWORD PTR __imp_?cin@std@@3V?$basic_istream@DU?$char_traits@D@std@@@1@A
  000b2	50		 push	 eax
  000b3	e8 00 00 00 00	 call	 ??$?5DU?$char_traits@D@std@@V?$allocator@D@1@@std@@YAAAV?$basic_istream@DU?$char_traits@D@std@@@0@AAV10@AAV?$basic_string@DU?$char_traits@D@std@@V?$allocator@D@2@@0@@Z ; std::operator>><char,std::char_traits<char>,std::allocator<char> >
  000b8	83 c4 08	 add	 esp, 8
  000bb	50		 push	 eax
  000bc	e8 00 00 00 00	 call	 ??$?5DU?$char_traits@D@std@@V?$allocator@D@1@@std@@YAAAV?$basic_istream@DU?$char_traits@D@std@@@0@AAV10@AAV?$basic_string@DU?$char_traits@D@std@@V?$allocator@D@2@@0@@Z ; std::operator>><char,std::char_traits<char>,std::allocator<char> >
  000c1	83 c4 08	 add	 esp, 8
  000c4	50		 push	 eax
  000c5	e8 00 00 00 00	 call	 ??$?5DU?$char_traits@D@std@@V?$allocator@D@1@@std@@YAAAV?$basic_istream@DU?$char_traits@D@std@@@0@AAV10@AAV?$basic_string@DU?$char_traits@D@std@@V?$allocator@D@2@@0@@Z ; std::operator>><char,std::char_traits<char>,std::allocator<char> >
  000ca	83 c4 08	 add	 esp, 8

; 20   : 
; 21   : 	// 
; 22   : 	stringstream TempDay(Day1);

  000cd	68 b0 00 00 00	 push	 176			; 000000b0H
  000d2	8d 8d 94 fe ff
	ff		 lea	 ecx, DWORD PTR _TempDay$[ebp]
  000d8	e8 00 00 00 00	 call	 ?__autoclassinit2@?$basic_stringstream@DU?$char_traits@D@std@@V?$allocator@D@2@@std@@QAEXI@Z
  000dd	6a 01		 push	 1
  000df	6a 03		 push	 3
  000e1	8d 45 c4	 lea	 eax, DWORD PTR _Day1$[ebp]
  000e4	50		 push	 eax
  000e5	8d 8d 94 fe ff
	ff		 lea	 ecx, DWORD PTR _TempDay$[ebp]
  000eb	e8 00 00 00 00	 call	 ??0?$basic_stringstream@DU?$char_traits@D@std@@V?$allocator@D@2@@std@@QAE@ABV?$basic_string@DU?$char_traits@D@std@@V?$allocator@D@2@@1@H@Z ; std::basic_stringstream<char,std::char_traits<char>,std::allocator<char> >::basic_stringstream<char,std::char_traits<char>,std::allocator<char> >
  000f0	c6 45 fc 03	 mov	 BYTE PTR __$EHRec$[ebp+8], 3

; 23   : 	TempDay >> Day;

  000f4	8b f4		 mov	 esi, esp
  000f6	8d 85 70 ff ff
	ff		 lea	 eax, DWORD PTR _Day$[ebp]
  000fc	50		 push	 eax
  000fd	8d 8d 94 fe ff
	ff		 lea	 ecx, DWORD PTR _TempDay$[ebp]
  00103	ff 15 00 00 00
	00		 call	 DWORD PTR __imp_??5?$basic_istream@DU?$char_traits@D@std@@@std@@QAEAAV01@AAH@Z
  00109	3b f4		 cmp	 esi, esp
  0010b	e8 00 00 00 00	 call	 __RTC_CheckEsp

; 24   : 	stringstream TempMonth(Mounth1);

  00110	68 b0 00 00 00	 push	 176			; 000000b0H
  00115	8d 8d dc fd ff
	ff		 lea	 ecx, DWORD PTR _TempMonth$[ebp]
  0011b	e8 00 00 00 00	 call	 ?__autoclassinit2@?$basic_stringstream@DU?$char_traits@D@std@@V?$allocator@D@2@@std@@QAEXI@Z
  00120	6a 01		 push	 1
  00122	6a 03		 push	 3
  00124	8d 45 a0	 lea	 eax, DWORD PTR _Mounth1$[ebp]
  00127	50		 push	 eax
  00128	8d 8d dc fd ff
	ff		 lea	 ecx, DWORD PTR _TempMonth$[ebp]
  0012e	e8 00 00 00 00	 call	 ??0?$basic_stringstream@DU?$char_traits@D@std@@V?$allocator@D@2@@std@@QAE@ABV?$basic_string@DU?$char_traits@D@std@@V?$allocator@D@2@@1@H@Z ; std::basic_stringstream<char,std::char_traits<char>,std::allocator<char> >::basic_stringstream<char,std::char_traits<char>,std::allocator<char> >
  00133	c6 45 fc 04	 mov	 BYTE PTR __$EHRec$[ebp+8], 4

; 25   : 	TempMonth >> Mounth;

  00137	8b f4		 mov	 esi, esp
  00139	8d 85 64 ff ff
	ff		 lea	 eax, DWORD PTR _Mounth$[ebp]
  0013f	50		 push	 eax
  00140	8d 8d dc fd ff
	ff		 lea	 ecx, DWORD PTR _TempMonth$[ebp]
  00146	ff 15 00 00 00
	00		 call	 DWORD PTR __imp_??5?$basic_istream@DU?$char_traits@D@std@@@std@@QAEAAV01@AAH@Z
  0014c	3b f4		 cmp	 esi, esp
  0014e	e8 00 00 00 00	 call	 __RTC_CheckEsp

; 26   : 	stringstream TempYear(Year1);

  00153	68 b0 00 00 00	 push	 176			; 000000b0H
  00158	8d 8d 24 fd ff
	ff		 lea	 ecx, DWORD PTR _TempYear$[ebp]
  0015e	e8 00 00 00 00	 call	 ?__autoclassinit2@?$basic_stringstream@DU?$char_traits@D@std@@V?$allocator@D@2@@std@@QAEXI@Z
  00163	6a 01		 push	 1
  00165	6a 03		 push	 3
  00167	8d 85 7c ff ff
	ff		 lea	 eax, DWORD PTR _Year1$[ebp]
  0016d	50		 push	 eax
  0016e	8d 8d 24 fd ff
	ff		 lea	 ecx, DWORD PTR _TempYear$[ebp]
  00174	e8 00 00 00 00	 call	 ??0?$basic_stringstream@DU?$char_traits@D@std@@V?$allocator@D@2@@std@@QAE@ABV?$basic_string@DU?$char_traits@D@std@@V?$allocator@D@2@@1@H@Z ; std::basic_stringstream<char,std::char_traits<char>,std::allocator<char> >::basic_stringstream<char,std::char_traits<char>,std::allocator<char> >
  00179	c6 45 fc 05	 mov	 BYTE PTR __$EHRec$[ebp+8], 5

; 27   : 	TempYear >> Year;

  0017d	8b f4		 mov	 esi, esp
  0017f	8d 85 58 ff ff
	ff		 lea	 eax, DWORD PTR _Year$[ebp]
  00185	50		 push	 eax
  00186	8d 8d 24 fd ff
	ff		 lea	 ecx, DWORD PTR _TempYear$[ebp]
  0018c	ff 15 00 00 00
	00		 call	 DWORD PTR __imp_??5?$basic_istream@DU?$char_traits@D@std@@@std@@QAEAAV01@AAH@Z
  00192	3b f4		 cmp	 esi, esp
  00194	e8 00 00 00 00	 call	 __RTC_CheckEsp

; 28   : 
; 29   : 	//Find Error
; 30   : 	if (Day < 1 || Day>31 || Mounth < 1 || Mounth>12 || Year < 0) {

  00199	83 bd 70 ff ff
	ff 01		 cmp	 DWORD PTR _Day$[ebp], 1
  001a0	7c 24		 jl	 SHORT $LN3@main
  001a2	83 bd 70 ff ff
	ff 1f		 cmp	 DWORD PTR _Day$[ebp], 31 ; 0000001fH
  001a9	7f 1b		 jg	 SHORT $LN3@main
  001ab	83 bd 64 ff ff
	ff 01		 cmp	 DWORD PTR _Mounth$[ebp], 1
  001b2	7c 12		 jl	 SHORT $LN3@main
  001b4	83 bd 64 ff ff
	ff 0c		 cmp	 DWORD PTR _Mounth$[ebp], 12 ; 0000000cH
  001bb	7f 09		 jg	 SHORT $LN3@main
  001bd	83 bd 58 ff ff
	ff 00		 cmp	 DWORD PTR _Year$[ebp], 0
  001c4	7d 3f		 jge	 SHORT $LN2@main
$LN3@main:

; 31   : 		printf("  ,  \n\n\t");

  001c6	68 00 00 00 00	 push	 OFFSET ??_C@_0CN@OBMGJBED@?M?e?5?o?p?$OA?b?h?k?$PM?m?$PL?i?5?t?n?p?l?$OA?r?0?h?g?l?e?m?h?r?e?5?t@
  001cb	e8 00 00 00 00	 call	 _printf
  001d0	83 c4 04	 add	 esp, 4

; 32   : 		goto there;

  001d3	c6 45 fc 04	 mov	 BYTE PTR __$EHRec$[ebp+8], 4
  001d7	8d 8d 24 fd ff
	ff		 lea	 ecx, DWORD PTR _TempYear$[ebp]
  001dd	e8 00 00 00 00	 call	 ??_D?$basic_stringstream@DU?$char_traits@D@std@@V?$allocator@D@2@@std@@QAEXXZ
  001e2	c6 45 fc 03	 mov	 BYTE PTR __$EHRec$[ebp+8], 3
  001e6	8d 8d dc fd ff
	ff		 lea	 ecx, DWORD PTR _TempMonth$[ebp]
  001ec	e8 00 00 00 00	 call	 ??_D?$basic_stringstream@DU?$char_traits@D@std@@V?$allocator@D@2@@std@@QAEXXZ
  001f1	c6 45 fc 02	 mov	 BYTE PTR __$EHRec$[ebp+8], 2
  001f5	8d 8d 94 fe ff
	ff		 lea	 ecx, DWORD PTR _TempDay$[ebp]
  001fb	e8 00 00 00 00	 call	 ??_D?$basic_stringstream@DU?$char_traits@D@std@@V?$allocator@D@2@@std@@QAEXXZ
  00200	e9 8c fe ff ff	 jmp	 $there$33
$LN2@main:

; 33   : 	}
; 34   : 	if (!LeapYear(Year) && Mounth == 2 && Day > 28) {

  00205	8b 85 58 ff ff
	ff		 mov	 eax, DWORD PTR _Year$[ebp]
  0020b	50		 push	 eax
  0020c	e8 00 00 00 00	 call	 ?LeapYear@@YA_NH@Z	; LeapYear
  00211	83 c4 04	 add	 esp, 4
  00214	0f b6 c8	 movzx	 ecx, al
  00217	85 c9		 test	 ecx, ecx
  00219	75 51		 jne	 SHORT $LN4@main
  0021b	83 bd 64 ff ff
	ff 02		 cmp	 DWORD PTR _Mounth$[ebp], 2
  00222	75 48		 jne	 SHORT $LN4@main
  00224	83 bd 70 ff ff
	ff 1c		 cmp	 DWORD PTR _Day$[ebp], 28 ; 0000001cH
  0022b	7e 3f		 jle	 SHORT $LN4@main

; 35   : 		printf("  ,  \n\n\t");

  0022d	68 00 00 00 00	 push	 OFFSET ??_C@_0CN@OBMGJBED@?M?e?5?o?p?$OA?b?h?k?$PM?m?$PL?i?5?t?n?p?l?$OA?r?0?h?g?l?e?m?h?r?e?5?t@
  00232	e8 00 00 00 00	 call	 _printf
  00237	83 c4 04	 add	 esp, 4

; 36   : 		goto there;

  0023a	c6 45 fc 04	 mov	 BYTE PTR __$EHRec$[ebp+8], 4
  0023e	8d 8d 24 fd ff
	ff		 lea	 ecx, DWORD PTR _TempYear$[ebp]
  00244	e8 00 00 00 00	 call	 ??_D?$basic_stringstream@DU?$char_traits@D@std@@V?$allocator@D@2@@std@@QAEXXZ
  00249	c6 45 fc 03	 mov	 BYTE PTR __$EHRec$[ebp+8], 3
  0024d	8d 8d dc fd ff
	ff		 lea	 ecx, DWORD PTR _TempMonth$[ebp]
  00253	e8 00 00 00 00	 call	 ??_D?$basic_stringstream@DU?$char_traits@D@std@@V?$allocator@D@2@@std@@QAEXXZ
  00258	c6 45 fc 02	 mov	 BYTE PTR __$EHRec$[ebp+8], 2
  0025c	8d 8d 94 fe ff
	ff		 lea	 ecx, DWORD PTR _TempDay$[ebp]
  00262	e8 00 00 00 00	 call	 ??_D?$basic_stringstream@DU?$char_traits@D@std@@V?$allocator@D@2@@std@@QAEXXZ
  00267	e9 25 fe ff ff	 jmp	 $there$33
$LN4@main:

; 37   : 	}
; 38   : 	if (LeapYear(Year) && Mounth == 2 && Day > 29) {

  0026c	8b 85 58 ff ff
	ff		 mov	 eax, DWORD PTR _Year$[ebp]
  00272	50		 push	 eax
  00273	e8 00 00 00 00	 call	 ?LeapYear@@YA_NH@Z	; LeapYear
  00278	83 c4 04	 add	 esp, 4
  0027b	0f b6 c8	 movzx	 ecx, al
  0027e	85 c9		 test	 ecx, ecx
  00280	74 51		 je	 SHORT $LN5@main
  00282	83 bd 64 ff ff
	ff 02		 cmp	 DWORD PTR _Mounth$[ebp], 2
  00289	75 48		 jne	 SHORT $LN5@main
  0028b	83 bd 70 ff ff
	ff 1d		 cmp	 DWORD PTR _Day$[ebp], 29 ; 0000001dH
  00292	7e 3f		 jle	 SHORT $LN5@main

; 39   : 		printf("  ,  \n\n\t");

  00294	68 00 00 00 00	 push	 OFFSET ??_C@_0CN@OBMGJBED@?M?e?5?o?p?$OA?b?h?k?$PM?m?$PL?i?5?t?n?p?l?$OA?r?0?h?g?l?e?m?h?r?e?5?t@
  00299	e8 00 00 00 00	 call	 _printf
  0029e	83 c4 04	 add	 esp, 4

; 40   : 		goto there;

  002a1	c6 45 fc 04	 mov	 BYTE PTR __$EHRec$[ebp+8], 4
  002a5	8d 8d 24 fd ff
	ff		 lea	 ecx, DWORD PTR _TempYear$[ebp]
  002ab	e8 00 00 00 00	 call	 ??_D?$basic_stringstream@DU?$char_traits@D@std@@V?$allocator@D@2@@std@@QAEXXZ
  002b0	c6 45 fc 03	 mov	 BYTE PTR __$EHRec$[ebp+8], 3
  002b4	8d 8d dc fd ff
	ff		 lea	 ecx, DWORD PTR _TempMonth$[ebp]
  002ba	e8 00 00 00 00	 call	 ??_D?$basic_stringstream@DU?$char_traits@D@std@@V?$allocator@D@2@@std@@QAEXXZ
  002bf	c6 45 fc 02	 mov	 BYTE PTR __$EHRec$[ebp+8], 2
  002c3	8d 8d 94 fe ff
	ff		 lea	 ecx, DWORD PTR _TempDay$[ebp]
  002c9	e8 00 00 00 00	 call	 ??_D?$basic_stringstream@DU?$char_traits@D@std@@V?$allocator@D@2@@std@@QAEXXZ
  002ce	e9 be fd ff ff	 jmp	 $there$33
$LN5@main:

; 41   : 	}
; 42   : 	
; 43   : 	//conclusion
; 44   : 	printf("\n");

  002d3	68 00 00 00 00	 push	 OFFSET ??_C@_01EEMJAFIK@?6@
  002d8	e8 00 00 00 00	 call	 _printf
  002dd	83 c4 04	 add	 esp, 4

; 45   : 	if (Day >= 1 && Day <= 9) {

  002e0	83 bd 70 ff ff
	ff 01		 cmp	 DWORD PTR _Day$[ebp], 1
  002e7	7c 21		 jl	 SHORT $LN6@main
  002e9	83 bd 70 ff ff
	ff 09		 cmp	 DWORD PTR _Day$[ebp], 9
  002f0	7f 18		 jg	 SHORT $LN6@main

; 46   : 		printf("%c%d.", Zero, Day);

  002f2	8b 85 70 ff ff
	ff		 mov	 eax, DWORD PTR _Day$[ebp]
  002f8	50		 push	 eax
  002f9	6a 30		 push	 48			; 00000030H
  002fb	68 00 00 00 00	 push	 OFFSET ??_C@_05BEPLPCJI@?$CFc?$CFd?4@
  00300	e8 00 00 00 00	 call	 _printf
  00305	83 c4 0c	 add	 esp, 12			; 0000000cH

; 47   : 	}

  00308	eb 14		 jmp	 SHORT $LN7@main
$LN6@main:

; 48   : 	else {
; 49   : 		printf("%d.", Day);

  0030a	8b 85 70 ff ff
	ff		 mov	 eax, DWORD PTR _Day$[ebp]
  00310	50		 push	 eax
  00311	68 00 00 00 00	 push	 OFFSET ??_C@_03NIOBFDP@?$CFd?4@
  00316	e8 00 00 00 00	 call	 _printf
  0031b	83 c4 08	 add	 esp, 8
$LN7@main:

; 50   : 	}
; 51   : 	if (Mounth >= 1 && Mounth <= 9) {

  0031e	83 bd 64 ff ff
	ff 01		 cmp	 DWORD PTR _Mounth$[ebp], 1
  00325	7c 21		 jl	 SHORT $LN8@main
  00327	83 bd 64 ff ff
	ff 09		 cmp	 DWORD PTR _Mounth$[ebp], 9
  0032e	7f 18		 jg	 SHORT $LN8@main

; 52   : 		printf("%c%d.", Zero, Mounth);

  00330	8b 85 64 ff ff
	ff		 mov	 eax, DWORD PTR _Mounth$[ebp]
  00336	50		 push	 eax
  00337	6a 30		 push	 48			; 00000030H
  00339	68 00 00 00 00	 push	 OFFSET ??_C@_05BEPLPCJI@?$CFc?$CFd?4@
  0033e	e8 00 00 00 00	 call	 _printf
  00343	83 c4 0c	 add	 esp, 12			; 0000000cH

; 53   : 	}

  00346	eb 14		 jmp	 SHORT $LN9@main
$LN8@main:

; 54   : 	else {
; 55   : 		printf("%d.", Mounth);

  00348	8b 85 64 ff ff
	ff		 mov	 eax, DWORD PTR _Mounth$[ebp]
  0034e	50		 push	 eax
  0034f	68 00 00 00 00	 push	 OFFSET ??_C@_03NIOBFDP@?$CFd?4@
  00354	e8 00 00 00 00	 call	 _printf
  00359	83 c4 08	 add	 esp, 8
$LN9@main:

; 56   : 	}
; 57   : 	printf("%d\n", Year);

  0035c	8b 85 58 ff ff
	ff		 mov	 eax, DWORD PTR _Year$[ebp]
  00362	50		 push	 eax
  00363	68 00 00 00 00	 push	 OFFSET ??_C@_03PMGGPEJJ@?$CFd?6@
  00368	e8 00 00 00 00	 call	 _printf
  0036d	83 c4 08	 add	 esp, 8

; 58   : 
; 59   : 	//chek dateleap and find num
; 60   : 	if (LeapYear(Year)) {

  00370	8b 85 58 ff ff
	ff		 mov	 eax, DWORD PTR _Year$[ebp]
  00376	50		 push	 eax
  00377	e8 00 00 00 00	 call	 ?LeapYear@@YA_NH@Z	; LeapYear
  0037c	83 c4 04	 add	 esp, 4
  0037f	0f b6 c8	 movzx	 ecx, al
  00382	85 c9		 test	 ecx, ecx
  00384	74 4c		 je	 SHORT $LN10@main

; 61   : 		daysnum = FindNum(Day, Mounth, (LeapYear(Year)));

  00386	8b 85 58 ff ff
	ff		 mov	 eax, DWORD PTR _Year$[ebp]
  0038c	50		 push	 eax
  0038d	e8 00 00 00 00	 call	 ?LeapYear@@YA_NH@Z	; LeapYear
  00392	83 c4 04	 add	 esp, 4
  00395	0f b6 c8	 movzx	 ecx, al
  00398	51		 push	 ecx
  00399	8b 95 64 ff ff
	ff		 mov	 edx, DWORD PTR _Mounth$[ebp]
  0039f	52		 push	 edx
  003a0	8b 85 70 ff ff
	ff		 mov	 eax, DWORD PTR _Day$[ebp]
  003a6	50		 push	 eax
  003a7	e8 00 00 00 00	 call	 ?FindNum@@YAHHH_N@Z	; FindNum
  003ac	83 c4 0c	 add	 esp, 12			; 0000000cH
  003af	89 85 4c ff ff
	ff		 mov	 DWORD PTR _daysnum$[ebp], eax

; 62   : 		printf("\n %d   \n   : %d\n" ,Year,daysnum);

  003b5	8b 85 4c ff ff
	ff		 mov	 eax, DWORD PTR _daysnum$[ebp]
  003bb	50		 push	 eax
  003bc	8b 8d 58 ff ff
	ff		 mov	 ecx, DWORD PTR _Year$[ebp]
  003c2	51		 push	 ecx
  003c3	68 00 00 00 00	 push	 OFFSET ??_C@_0DK@DFCFPGAI@?6?5?$CFd?5?$PP?b?k?$PP?e?r?q?$PP?5?b?e?q?n?j?n?q?m?$PL?l?5?c?n?d?n?l?6@
  003c8	e8 00 00 00 00	 call	 _printf
  003cd	83 c4 0c	 add	 esp, 12			; 0000000cH

; 63   : 	}

  003d0	eb 4a		 jmp	 SHORT $LN11@main
$LN10@main:

; 64   : 	else {
; 65   : 		daysnum = FindNum(Day, Mounth, (LeapYear(Year)));

  003d2	8b 85 58 ff ff
	ff		 mov	 eax, DWORD PTR _Year$[ebp]
  003d8	50		 push	 eax
  003d9	e8 00 00 00 00	 call	 ?LeapYear@@YA_NH@Z	; LeapYear
  003de	83 c4 04	 add	 esp, 4
  003e1	0f b6 c8	 movzx	 ecx, al
  003e4	51		 push	 ecx
  003e5	8b 95 64 ff ff
	ff		 mov	 edx, DWORD PTR _Mounth$[ebp]
  003eb	52		 push	 edx
  003ec	8b 85 70 ff ff
	ff		 mov	 eax, DWORD PTR _Day$[ebp]
  003f2	50		 push	 eax
  003f3	e8 00 00 00 00	 call	 ?FindNum@@YAHHH_N@Z	; FindNum
  003f8	83 c4 0c	 add	 esp, 12			; 0000000cH
  003fb	89 85 4c ff ff
	ff		 mov	 DWORD PTR _daysnum$[ebp], eax

; 66   : 		printf("\n%d    \n\n    : %d\n", Year, daysnum);

  00401	8b 85 4c ff ff
	ff		 mov	 eax, DWORD PTR _daysnum$[ebp]
  00407	50		 push	 eax
  00408	8b 8d 58 ff ff
	ff		 mov	 ecx, DWORD PTR _Year$[ebp]
  0040e	51		 push	 ecx
  0040f	68 00 00 00 00	 push	 OFFSET ??_C@_0ED@KEHCHDNG@?6?$CFd?5?m?e?5?$PP?b?k?$PP?e?r?q?$PP?5?b?h?q?n?j?n?q?m?$PL?l?5?c?n?d?n@
  00414	e8 00 00 00 00	 call	 _printf
  00419	83 c4 0c	 add	 esp, 12			; 0000000cH
$LN11@main:

; 67   : 
; 68   : 	}
; 69   : }

  0041c	c6 45 fc 04	 mov	 BYTE PTR __$EHRec$[ebp+8], 4
  00420	8d 8d 24 fd ff
	ff		 lea	 ecx, DWORD PTR _TempYear$[ebp]
  00426	e8 00 00 00 00	 call	 ??_D?$basic_stringstream@DU?$char_traits@D@std@@V?$allocator@D@2@@std@@QAEXXZ
  0042b	c6 45 fc 03	 mov	 BYTE PTR __$EHRec$[ebp+8], 3
  0042f	8d 8d dc fd ff
	ff		 lea	 ecx, DWORD PTR _TempMonth$[ebp]
  00435	e8 00 00 00 00	 call	 ??_D?$basic_stringstream@DU?$char_traits@D@std@@V?$allocator@D@2@@std@@QAEXXZ
  0043a	c6 45 fc 02	 mov	 BYTE PTR __$EHRec$[ebp+8], 2
  0043e	8d 8d 94 fe ff
	ff		 lea	 ecx, DWORD PTR _TempDay$[ebp]
  00444	e8 00 00 00 00	 call	 ??_D?$basic_stringstream@DU?$char_traits@D@std@@V?$allocator@D@2@@std@@QAEXXZ
  00449	c6 45 fc 01	 mov	 BYTE PTR __$EHRec$[ebp+8], 1
  0044d	8d 8d 7c ff ff
	ff		 lea	 ecx, DWORD PTR _Year1$[ebp]
  00453	e8 00 00 00 00	 call	 ??1?$basic_string@DU?$char_traits@D@std@@V?$allocator@D@2@@std@@QAE@XZ ; std::basic_string<char,std::char_traits<char>,std::allocator<char> >::~basic_string<char,std::char_traits<char>,std::allocator<char> >
  00458	c6 45 fc 00	 mov	 BYTE PTR __$EHRec$[ebp+8], 0
  0045c	8d 4d a0	 lea	 ecx, DWORD PTR _Mounth1$[ebp]
  0045f	e8 00 00 00 00	 call	 ??1?$basic_string@DU?$char_traits@D@std@@V?$allocator@D@2@@std@@QAE@XZ ; std::basic_string<char,std::char_traits<char>,std::allocator<char> >::~basic_string<char,std::char_traits<char>,std::allocator<char> >
  00464	c7 45 fc ff ff
	ff ff		 mov	 DWORD PTR __$EHRec$[ebp+8], -1
  0046b	8d 4d c4	 lea	 ecx, DWORD PTR _Day1$[ebp]
  0046e	e8 00 00 00 00	 call	 ??1?$basic_string@DU?$char_traits@D@std@@V?$allocator@D@2@@std@@QAE@XZ ; std::basic_string<char,std::char_traits<char>,std::allocator<char> >::~basic_string<char,std::char_traits<char>,std::allocator<char> >
  00473	33 c0		 xor	 eax, eax
  00475	52		 push	 edx
  00476	8b cd		 mov	 ecx, ebp
  00478	50		 push	 eax
  00479	8d 15 00 00 00
	00		 lea	 edx, DWORD PTR $LN32@main
  0047f	e8 00 00 00 00	 call	 @_RTC_CheckStackVars@8
  00484	58		 pop	 eax
  00485	5a		 pop	 edx
  00486	8b 4d f4	 mov	 ecx, DWORD PTR __$EHRec$[ebp]
  00489	64 89 0d 00 00
	00 00		 mov	 DWORD PTR fs:0, ecx
  00490	59		 pop	 ecx
  00491	5f		 pop	 edi
  00492	5e		 pop	 esi
  00493	5b		 pop	 ebx
  00494	8b 4d f0	 mov	 ecx, DWORD PTR __$ArrayPad$[ebp]
  00497	33 cd		 xor	 ecx, ebp
  00499	e8 00 00 00 00	 call	 @__security_check_cookie@4
  0049e	81 c4 60 04 00
	00		 add	 esp, 1120		; 00000460H
  004a4	3b ec		 cmp	 ebp, esp
  004a6	e8 00 00 00 00	 call	 __RTC_CheckEsp
  004ab	8b e5		 mov	 esp, ebp
  004ad	5d		 pop	 ebp
  004ae	c3		 ret	 0
  004af	90		 npad	 1
$LN32@main:
  004b0	09 00 00 00	 DD	 9
  004b4	00 00 00 00	 DD	 $LN31@main
$LN31@main:
  004b8	c4 ff ff ff	 DD	 -60			; ffffffc4H
  004bc	1c 00 00 00	 DD	 28			; 0000001cH
  004c0	00 00 00 00	 DD	 $LN21@main
  004c4	a0 ff ff ff	 DD	 -96			; ffffffa0H
  004c8	1c 00 00 00	 DD	 28			; 0000001cH
  004cc	00 00 00 00	 DD	 $LN22@main
  004d0	7c ff ff ff	 DD	 -132			; ffffff7cH
  004d4	1c 00 00 00	 DD	 28			; 0000001cH
  004d8	00 00 00 00	 DD	 $LN23@main
  004dc	70 ff ff ff	 DD	 -144			; ffffff70H
  004e0	04 00 00 00	 DD	 4
  004e4	00 00 00 00	 DD	 $LN24@main
  004e8	64 ff ff ff	 DD	 -156			; ffffff64H
  004ec	04 00 00 00	 DD	 4
  004f0	00 00 00 00	 DD	 $LN25@main
  004f4	58 ff ff ff	 DD	 -168			; ffffff58H
  004f8	04 00 00 00	 DD	 4
  004fc	00 00 00 00	 DD	 $LN26@main
  00500	94 fe ff ff	 DD	 -364			; fffffe94H
  00504	b0 00 00 00	 DD	 176			; 000000b0H
  00508	00 00 00 00	 DD	 $LN27@main
  0050c	dc fd ff ff	 DD	 -548			; fffffddcH
  00510	b0 00 00 00	 DD	 176			; 000000b0H
  00514	00 00 00 00	 DD	 $LN28@main
  00518	24 fd ff ff	 DD	 -732			; fffffd24H
  0051c	b0 00 00 00	 DD	 176			; 000000b0H
  00520	00 00 00 00	 DD	 $LN29@main
$LN29@main:
  00524	54		 DB	 84			; 00000054H
  00525	65		 DB	 101			; 00000065H
  00526	6d		 DB	 109			; 0000006dH
  00527	70		 DB	 112			; 00000070H
  00528	59		 DB	 89			; 00000059H
  00529	65		 DB	 101			; 00000065H
  0052a	61		 DB	 97			; 00000061H
  0052b	72		 DB	 114			; 00000072H
  0052c	00		 DB	 0
$LN28@main:
  0052d	54		 DB	 84			; 00000054H
  0052e	65		 DB	 101			; 00000065H
  0052f	6d		 DB	 109			; 0000006dH
  00530	70		 DB	 112			; 00000070H
  00531	4d		 DB	 77			; 0000004dH
  00532	6f		 DB	 111			; 0000006fH
  00533	6e		 DB	 110			; 0000006eH
  00534	74		 DB	 116			; 00000074H
  00535	68		 DB	 104			; 00000068H
  00536	00		 DB	 0
$LN27@main:
  00537	54		 DB	 84			; 00000054H
  00538	65		 DB	 101			; 00000065H
  00539	6d		 DB	 109			; 0000006dH
  0053a	70		 DB	 112			; 00000070H
  0053b	44		 DB	 68			; 00000044H
  0053c	61		 DB	 97			; 00000061H
  0053d	79		 DB	 121			; 00000079H
  0053e	00		 DB	 0
$LN26@main:
  0053f	59		 DB	 89			; 00000059H
  00540	65		 DB	 101			; 00000065H
  00541	61		 DB	 97			; 00000061H
  00542	72		 DB	 114			; 00000072H
  00543	00		 DB	 0
$LN25@main:
  00544	4d		 DB	 77			; 0000004dH
  00545	6f		 DB	 111			; 0000006fH
  00546	75		 DB	 117			; 00000075H
  00547	6e		 DB	 110			; 0000006eH
  00548	74		 DB	 116			; 00000074H
  00549	68		 DB	 104			; 00000068H
  0054a	00		 DB	 0
$LN24@main:
  0054b	44		 DB	 68			; 00000044H
  0054c	61		 DB	 97			; 00000061H
  0054d	79		 DB	 121			; 00000079H
  0054e	00		 DB	 0
$LN23@main:
  0054f	59		 DB	 89			; 00000059H
  00550	65		 DB	 101			; 00000065H
  00551	61		 DB	 97			; 00000061H
  00552	72		 DB	 114			; 00000072H
  00553	31		 DB	 49			; 00000031H
  00554	00		 DB	 0
$LN22@main:
  00555	4d		 DB	 77			; 0000004dH
  00556	6f		 DB	 111			; 0000006fH
  00557	75		 DB	 117			; 00000075H
  00558	6e		 DB	 110			; 0000006eH
  00559	74		 DB	 116			; 00000074H
  0055a	68		 DB	 104			; 00000068H
  0055b	31		 DB	 49			; 00000031H
  0055c	00		 DB	 0
$LN21@main:
  0055d	44		 DB	 68			; 00000044H
  0055e	61		 DB	 97			; 00000061H
  0055f	79		 DB	 121			; 00000079H
  00560	31		 DB	 49			; 00000031H
  00561	00		 DB	 0
_TEXT	ENDS
;	COMDAT text$x
text$x	SEGMENT
__unwindfunclet$_main$0:
  00000	8d 4d c4	 lea	 ecx, DWORD PTR _Day1$[ebp]
  00003	e9 00 00 00 00	 jmp	 ??1?$basic_string@DU?$char_traits@D@std@@V?$allocator@D@2@@std@@QAE@XZ ; std::basic_string<char,std::char_traits<char>,std::allocator<char> >::~basic_string<char,std::char_traits<char>,std::allocator<char> >
__unwindfunclet$_main$1:
  00008	8d 4d a0	 lea	 ecx, DWORD PTR _Mounth1$[ebp]
  0000b	e9 00 00 00 00	 jmp	 ??1?$basic_string@DU?$char_traits@D@std@@V?$allocator@D@2@@std@@QAE@XZ ; std::basic_string<char,std::char_traits<char>,std::allocator<char> >::~basic_string<char,std::char_traits<char>,std::allocator<char> >
__unwindfunclet$_main$2:
  00010	8d 8d 7c ff ff
	ff		 lea	 ecx, DWORD PTR _Year1$[ebp]
  00016	e9 00 00 00 00	 jmp	 ??1?$basic_string@DU?$char_traits@D@std@@V?$allocator@D@2@@std@@QAE@XZ ; std::basic_string<char,std::char_traits<char>,std::allocator<char> >::~basic_string<char,std::char_traits<char>,std::allocator<char> >
__unwindfunclet$_main$3:
  0001b	8d 8d 94 fe ff
	ff		 lea	 ecx, DWORD PTR _TempDay$[ebp]
  00021	e9 00 00 00 00	 jmp	 ??_D?$basic_stringstream@DU?$char_traits@D@std@@V?$allocator@D@2@@std@@QAEXXZ
__unwindfunclet$_main$4:
  00026	8d 8d dc fd ff
	ff		 lea	 ecx, DWORD PTR _TempMonth$[ebp]
  0002c	e9 00 00 00 00	 jmp	 ??_D?$basic_stringstream@DU?$char_traits@D@std@@V?$allocator@D@2@@std@@QAEXXZ
__unwindfunclet$_main$5:
  00031	8d 8d 24 fd ff
	ff		 lea	 ecx, DWORD PTR _TempYear$[ebp]
  00037	e9 00 00 00 00	 jmp	 ??_D?$basic_stringstream@DU?$char_traits@D@std@@V?$allocator@D@2@@std@@QAEXXZ
__ehhandler$_main:
  0003c	8b 54 24 08	 mov	 edx, DWORD PTR [esp+8]
  00040	8d 42 0c	 lea	 eax, DWORD PTR [edx+12]
  00043	8b 8a 9c fb ff
	ff		 mov	 ecx, DWORD PTR [edx-1124]
  00049	33 c8		 xor	 ecx, eax
  0004b	e8 00 00 00 00	 call	 @__security_check_cookie@4
  00050	8b 4a fc	 mov	 ecx, DWORD PTR [edx-4]
  00053	33 c8		 xor	 ecx, eax
  00055	e8 00 00 00 00	 call	 @__security_check_cookie@4
  0005a	b8 00 00 00 00	 mov	 eax, OFFSET __ehfuncinfo$_main
  0005f	e9 00 00 00 00	 jmp	 ___CxxFrameHandler3
text$x	ENDS
_main	ENDP
; Function compile flags: /Odtp /RTCsu /ZI
; File C:\Program Files (x86)\Microsoft Visual Studio\2019\Community\VC\Tools\MSVC\14.24.28314\include\iosfwd
;	COMDAT ??B?$fpos@U_Mbstatet@@@std@@QBE_JXZ
_TEXT	SEGMENT
_this$ = -8						; size = 4
??B?$fpos@U_Mbstatet@@@std@@QBE_JXZ PROC		; std::fpos<_Mbstatet>::operator __int64, COMDAT
; _this$ = ecx

; 67   :     operator streamoff() const {

  00000	55		 push	 ebp
  00001	8b ec		 mov	 ebp, esp
  00003	81 ec cc 00 00
	00		 sub	 esp, 204		; 000000ccH
  00009	53		 push	 ebx
  0000a	56		 push	 esi
  0000b	57		 push	 edi
  0000c	51		 push	 ecx
  0000d	8d bd 34 ff ff
	ff		 lea	 edi, DWORD PTR [ebp-204]
  00013	b9 33 00 00 00	 mov	 ecx, 51			; 00000033H
  00018	b8 cc cc cc cc	 mov	 eax, -858993460		; ccccccccH
  0001d	f3 ab		 rep stosd
  0001f	59		 pop	 ecx
  00020	89 4d f8	 mov	 DWORD PTR _this$[ebp], ecx
  00023	b9 00 00 00 00	 mov	 ecx, OFFSET __0111D5B6_iosfwd
  00028	e8 00 00 00 00	 call	 @__CheckForDebuggerJustMyCode@4

; 68   :         // TRANSITION, ABI: We currently always set _Fpos to 0 but older .objs containing old
; 69   :         // basic_filebuf would set _Fpos.
; 70   :         return _Myoff + _Fpos;

  0002d	8b 45 f8	 mov	 eax, DWORD PTR _this$[ebp]
  00030	8b 4d f8	 mov	 ecx, DWORD PTR _this$[ebp]
  00033	8b 10		 mov	 edx, DWORD PTR [eax]
  00035	03 51 08	 add	 edx, DWORD PTR [ecx+8]
  00038	8b 70 04	 mov	 esi, DWORD PTR [eax+4]
  0003b	13 71 0c	 adc	 esi, DWORD PTR [ecx+12]
  0003e	8b c2		 mov	 eax, edx
  00040	8b d6		 mov	 edx, esi

; 71   :     }

  00042	5f		 pop	 edi
  00043	5e		 pop	 esi
  00044	5b		 pop	 ebx
  00045	81 c4 cc 00 00
	00		 add	 esp, 204		; 000000ccH
  0004b	3b ec		 cmp	 ebp, esp
  0004d	e8 00 00 00 00	 call	 __RTC_CheckEsp
  00052	8b e5		 mov	 esp, ebp
  00054	5d		 pop	 ebp
  00055	c3		 ret	 0
??B?$fpos@U_Mbstatet@@@std@@QBE_JXZ ENDP		; std::fpos<_Mbstatet>::operator __int64
_TEXT	ENDS
; Function compile flags: /Odtp /RTCsu /ZI
; File C:\Program Files (x86)\Microsoft Visual Studio\2019\Community\VC\Tools\MSVC\14.24.28314\include\iosfwd
;	COMDAT ??0?$fpos@U_Mbstatet@@@std@@QAE@_J@Z
_TEXT	SEGMENT
_this$ = -8						; size = 4
__Off$ = 8						; size = 8
??0?$fpos@U_Mbstatet@@@std@@QAE@_J@Z PROC		; std::fpos<_Mbstatet>::fpos<_Mbstatet>, COMDAT
; _this$ = ecx

; 55   :     /* implicit */ fpos(streamoff _Off = 0) : _Myoff(_Off), _Fpos(0), _Mystate() {}

  00000	55		 push	 ebp
  00001	8b ec		 mov	 ebp, esp
  00003	81 ec cc 00 00
	00		 sub	 esp, 204		; 000000ccH
  00009	53		 push	 ebx
  0000a	56		 push	 esi
  0000b	57		 push	 edi
  0000c	51		 push	 ecx
  0000d	8d bd 34 ff ff
	ff		 lea	 edi, DWORD PTR [ebp-204]
  00013	b9 33 00 00 00	 mov	 ecx, 51			; 00000033H
  00018	b8 cc cc cc cc	 mov	 eax, -858993460		; ccccccccH
  0001d	f3 ab		 rep stosd
  0001f	59		 pop	 ecx
  00020	89 4d f8	 mov	 DWORD PTR _this$[ebp], ecx
  00023	b9 00 00 00 00	 mov	 ecx, OFFSET __0111D5B6_iosfwd
  00028	e8 00 00 00 00	 call	 @__CheckForDebuggerJustMyCode@4
  0002d	8b 45 f8	 mov	 eax, DWORD PTR _this$[ebp]
  00030	8b 4d 08	 mov	 ecx, DWORD PTR __Off$[ebp]
  00033	89 08		 mov	 DWORD PTR [eax], ecx
  00035	8b 55 0c	 mov	 edx, DWORD PTR __Off$[ebp+4]
  00038	89 50 04	 mov	 DWORD PTR [eax+4], edx
  0003b	8b 45 f8	 mov	 eax, DWORD PTR _this$[ebp]
  0003e	c7 40 08 00 00
	00 00		 mov	 DWORD PTR [eax+8], 0
  00045	c7 40 0c 00 00
	00 00		 mov	 DWORD PTR [eax+12], 0
  0004c	33 c0		 xor	 eax, eax
  0004e	8b 4d f8	 mov	 ecx, DWORD PTR _this$[ebp]
  00051	83 c1 10	 add	 ecx, 16			; 00000010H
  00054	89 01		 mov	 DWORD PTR [ecx], eax
  00056	89 41 04	 mov	 DWORD PTR [ecx+4], eax
  00059	8b 45 f8	 mov	 eax, DWORD PTR _this$[ebp]
  0005c	5f		 pop	 edi
  0005d	5e		 pop	 esi
  0005e	5b		 pop	 ebx
  0005f	81 c4 cc 00 00
	00		 add	 esp, 204		; 000000ccH
  00065	3b ec		 cmp	 ebp, esp
  00067	e8 00 00 00 00	 call	 __RTC_CheckEsp
  0006c	8b e5		 mov	 esp, ebp
  0006e	5d		 pop	 ebp
  0006f	c2 08 00	 ret	 8
??0?$fpos@U_Mbstatet@@@std@@QAE@_J@Z ENDP		; std::fpos<_Mbstatet>::fpos<_Mbstatet>
_TEXT	ENDS
; Function compile flags: /Odtp /RTCsu /ZI
; File C:\Program Files (x86)\Microsoft Visual Studio\2019\Community\VC\Tools\MSVC\14.24.28314\include\xlocale
;	COMDAT ??$use_facet@V?$ctype@D@std@@@std@@YAABV?$ctype@D@0@ABVlocale@0@@Z
_TEXT	SEGMENT
$T2 = -288						; size = 4
__Psave_guard$3 = -84					; size = 4
__Pfmod$4 = -72						; size = 4
__Pf$5 = -60						; size = 4
__Id$6 = -48						; size = 4
__Psave$7 = -36						; size = 4
__Lock$8 = -24						; size = 4
__$ArrayPad$ = -16					; size = 4
__$EHRec$ = -12						; size = 12
__Loc$ = 8						; size = 4
??$use_facet@V?$ctype@D@std@@@std@@YAABV?$ctype@D@0@ABVlocale@0@@Z PROC ; std::use_facet<std::ctype<char> >, COMDAT

; 427  : const _Facet& __CRTDECL use_facet(const locale& _Loc) { // get facet reference from locale

  00000	55		 push	 ebp
  00001	8b ec		 mov	 ebp, esp
  00003	6a ff		 push	 -1
  00005	68 00 00 00 00	 push	 __ehhandler$??$use_facet@V?$ctype@D@std@@@std@@YAABV?$ctype@D@0@ABVlocale@0@@Z
  0000a	64 a1 00 00 00
	00		 mov	 eax, DWORD PTR fs:0
  00010	50		 push	 eax
  00011	81 ec 18 01 00
	00		 sub	 esp, 280		; 00000118H
  00017	53		 push	 ebx
  00018	56		 push	 esi
  00019	57		 push	 edi
  0001a	8d bd dc fe ff
	ff		 lea	 edi, DWORD PTR [ebp-292]
  00020	b9 46 00 00 00	 mov	 ecx, 70			; 00000046H
  00025	b8 cc cc cc cc	 mov	 eax, -858993460		; ccccccccH
  0002a	f3 ab		 rep stosd
  0002c	a1 00 00 00 00	 mov	 eax, DWORD PTR ___security_cookie
  00031	33 c5		 xor	 eax, ebp
  00033	89 45 f0	 mov	 DWORD PTR __$ArrayPad$[ebp], eax
  00036	50		 push	 eax
  00037	8d 45 f4	 lea	 eax, DWORD PTR __$EHRec$[ebp]
  0003a	64 a3 00 00 00
	00		 mov	 DWORD PTR fs:0, eax
  00040	b9 00 00 00 00	 mov	 ecx, OFFSET __1A5AA814_xlocale
  00045	e8 00 00 00 00	 call	 @__CheckForDebuggerJustMyCode@4

; 428  :     _BEGIN_LOCK(_LOCK_LOCALE) // the thread lock, make get atomic

  0004a	8b f4		 mov	 esi, esp
  0004c	6a 00		 push	 0
  0004e	8d 4d e8	 lea	 ecx, DWORD PTR __Lock$8[ebp]
  00051	ff 15 00 00 00
	00		 call	 DWORD PTR __imp_??0_Lockit@std@@QAE@H@Z
  00057	3b f4		 cmp	 esi, esp
  00059	e8 00 00 00 00	 call	 __RTC_CheckEsp
  0005e	c7 45 fc 00 00
	00 00		 mov	 DWORD PTR __$EHRec$[ebp+8], 0

; 429  :     const locale::facet* _Psave = _Facetptr<_Facet>::_Psave; // static pointer to lazy facet

  00065	a1 00 00 00 00	 mov	 eax, DWORD PTR ?_Psave@?$_Facetptr@V?$ctype@D@std@@@std@@2PBVfacet@locale@2@B ; std::_Facetptr<std::ctype<char> >::_Psave
  0006a	89 45 dc	 mov	 DWORD PTR __Psave$7[ebp], eax

; 430  : 
; 431  :     const size_t _Id         = _Facet::id;

  0006d	8b f4		 mov	 esi, esp
  0006f	8b 0d 00 00 00
	00		 mov	 ecx, DWORD PTR __imp_?id@?$ctype@D@std@@2V0locale@2@A
  00075	ff 15 00 00 00
	00		 call	 DWORD PTR __imp_??Bid@locale@std@@QAEIXZ
  0007b	3b f4		 cmp	 esi, esp
  0007d	e8 00 00 00 00	 call	 __RTC_CheckEsp
  00082	89 45 d0	 mov	 DWORD PTR __Id$6[ebp], eax

; 432  :     const locale::facet* _Pf = _Loc._Getfacet(_Id);

  00085	8b 45 d0	 mov	 eax, DWORD PTR __Id$6[ebp]
  00088	50		 push	 eax
  00089	8b 4d 08	 mov	 ecx, DWORD PTR __Loc$[ebp]
  0008c	e8 00 00 00 00	 call	 ?_Getfacet@locale@std@@QBEPBVfacet@12@I@Z ; std::locale::_Getfacet
  00091	89 45 c4	 mov	 DWORD PTR __Pf$5[ebp], eax

; 433  : 
; 434  :     if (!_Pf) {

  00094	83 7d c4 00	 cmp	 DWORD PTR __Pf$5[ebp], 0
  00098	0f 85 9b 00 00
	00		 jne	 $LN2@use_facet

; 435  :         if (_Psave) {

  0009e	83 7d dc 00	 cmp	 DWORD PTR __Psave$7[ebp], 0
  000a2	74 0b		 je	 SHORT $LN3@use_facet

; 436  :             _Pf = _Psave; // lazy facet already allocated

  000a4	8b 45 dc	 mov	 eax, DWORD PTR __Psave$7[ebp]
  000a7	89 45 c4	 mov	 DWORD PTR __Pf$5[ebp], eax
  000aa	e9 8a 00 00 00	 jmp	 $LN2@use_facet
$LN3@use_facet:

; 437  :         } else if (_Facet::_Getcat(&_Psave, &_Loc) == static_cast<size_t>(-1)) {

  000af	8b f4		 mov	 esi, esp
  000b1	8b 45 08	 mov	 eax, DWORD PTR __Loc$[ebp]
  000b4	50		 push	 eax
  000b5	8d 4d dc	 lea	 ecx, DWORD PTR __Psave$7[ebp]
  000b8	51		 push	 ecx
  000b9	ff 15 00 00 00
	00		 call	 DWORD PTR __imp_?_Getcat@?$ctype@D@std@@SAIPAPBVfacet@locale@2@PBV42@@Z
  000bf	83 c4 08	 add	 esp, 8
  000c2	3b f4		 cmp	 esi, esp
  000c4	e8 00 00 00 00	 call	 __RTC_CheckEsp
  000c9	83 f8 ff	 cmp	 eax, -1
  000cc	75 07		 jne	 SHORT $LN5@use_facet

; 438  : #if _HAS_EXCEPTIONS
; 439  :             _Throw_bad_cast(); // lazy disallowed

  000ce	e8 00 00 00 00	 call	 ?_Throw_bad_cast@std@@YAXXZ ; std::_Throw_bad_cast

; 440  : #else // _HAS_EXCEPTIONS
; 441  :             abort(); // lazy disallowed
; 442  : #endif // _HAS_EXCEPTIONS
; 443  :         } else { // queue up lazy facet for destruction

  000d3	eb 64		 jmp	 SHORT $LN2@use_facet
$LN5@use_facet:

; 444  :             auto _Pfmod = const_cast<locale::facet*>(_Psave);

  000d5	8b 45 dc	 mov	 eax, DWORD PTR __Psave$7[ebp]
  000d8	89 45 b8	 mov	 DWORD PTR __Pfmod$4[ebp], eax

; 445  :             unique_ptr<_Facet_base> _Psave_guard(static_cast<_Facet_base*>(_Pfmod));

  000db	6a 04		 push	 4
  000dd	8d 4d ac	 lea	 ecx, DWORD PTR __Psave_guard$3[ebp]
  000e0	e8 00 00 00 00	 call	 ?__autoclassinit2@?$unique_ptr@V_Facet_base@std@@U?$default_delete@V_Facet_base@std@@@2@@std@@QAEXI@Z
  000e5	8b 45 b8	 mov	 eax, DWORD PTR __Pfmod$4[ebp]
  000e8	50		 push	 eax
  000e9	8d 4d ac	 lea	 ecx, DWORD PTR __Psave_guard$3[ebp]
  000ec	e8 00 00 00 00	 call	 ??$?0U?$default_delete@V_Facet_base@std@@@std@@$0A@@?$unique_ptr@V_Facet_base@std@@U?$default_delete@V_Facet_base@std@@@2@@std@@QAE@PAV_Facet_base@1@@Z ; std::unique_ptr<std::_Facet_base,std::default_delete<std::_Facet_base> >::unique_ptr<std::_Facet_base,std::default_delete<std::_Facet_base> ><std::default_delete<std::_Facet_base>,0>
  000f1	c6 45 fc 01	 mov	 BYTE PTR __$EHRec$[ebp+8], 1

; 446  : 
; 447  : #if defined(_M_CEE)
; 448  :             _Facet_Register_m(_Pfmod);
; 449  : #else // defined(_M_CEE)
; 450  :             _Facet_Register(_Pfmod);

  000f5	8b 45 b8	 mov	 eax, DWORD PTR __Pfmod$4[ebp]
  000f8	50		 push	 eax
  000f9	e8 00 00 00 00	 call	 ?_Facet_Register@std@@YAXPAV_Facet_base@1@@Z ; std::_Facet_Register
  000fe	83 c4 04	 add	 esp, 4

; 451  : #endif // defined(_M_CEE)
; 452  : 
; 453  :             _Pfmod->_Incref();

  00101	8b 45 b8	 mov	 eax, DWORD PTR __Pfmod$4[ebp]
  00104	8b 10		 mov	 edx, DWORD PTR [eax]
  00106	8b f4		 mov	 esi, esp
  00108	8b 4d b8	 mov	 ecx, DWORD PTR __Pfmod$4[ebp]
  0010b	8b 42 04	 mov	 eax, DWORD PTR [edx+4]
  0010e	ff d0		 call	 eax
  00110	3b f4		 cmp	 esi, esp
  00112	e8 00 00 00 00	 call	 __RTC_CheckEsp

; 454  :             _Facetptr<_Facet>::_Psave = _Psave;

  00117	8b 45 dc	 mov	 eax, DWORD PTR __Psave$7[ebp]
  0011a	a3 00 00 00 00	 mov	 DWORD PTR ?_Psave@?$_Facetptr@V?$ctype@D@std@@@std@@2PBVfacet@locale@2@B, eax ; std::_Facetptr<std::ctype<char> >::_Psave

; 455  :             _Pf                       = _Psave;

  0011f	8b 45 dc	 mov	 eax, DWORD PTR __Psave$7[ebp]
  00122	89 45 c4	 mov	 DWORD PTR __Pf$5[ebp], eax

; 456  : 
; 457  :             (void) _Psave_guard.release();

  00125	8d 4d ac	 lea	 ecx, DWORD PTR __Psave_guard$3[ebp]
  00128	e8 00 00 00 00	 call	 ?release@?$unique_ptr@V_Facet_base@std@@U?$default_delete@V_Facet_base@std@@@2@@std@@QAEPAV_Facet_base@2@XZ ; std::unique_ptr<std::_Facet_base,std::default_delete<std::_Facet_base> >::release

; 458  :         }

  0012d	c6 45 fc 00	 mov	 BYTE PTR __$EHRec$[ebp+8], 0
  00131	8d 4d ac	 lea	 ecx, DWORD PTR __Psave_guard$3[ebp]
  00134	e8 00 00 00 00	 call	 ??1?$unique_ptr@V_Facet_base@std@@U?$default_delete@V_Facet_base@std@@@2@@std@@QAE@XZ ; std::unique_ptr<std::_Facet_base,std::default_delete<std::_Facet_base> >::~unique_ptr<std::_Facet_base,std::default_delete<std::_Facet_base> >
$LN2@use_facet:

; 459  :     }
; 460  : 
; 461  :     return static_cast<const _Facet&>(*_Pf); // should be dynamic_cast

  00139	8b 45 c4	 mov	 eax, DWORD PTR __Pf$5[ebp]
  0013c	89 85 e0 fe ff
	ff		 mov	 DWORD PTR $T2[ebp], eax
  00142	c7 45 fc ff ff
	ff ff		 mov	 DWORD PTR __$EHRec$[ebp+8], -1
  00149	8b f4		 mov	 esi, esp
  0014b	8d 4d e8	 lea	 ecx, DWORD PTR __Lock$8[ebp]
  0014e	ff 15 00 00 00
	00		 call	 DWORD PTR __imp_??1_Lockit@std@@QAE@XZ
  00154	3b f4		 cmp	 esi, esp
  00156	e8 00 00 00 00	 call	 __RTC_CheckEsp
  0015b	8b 85 e0 fe ff
	ff		 mov	 eax, DWORD PTR $T2[ebp]
$LN7@use_facet:

; 462  :     _END_LOCK()
; 463  : } // end of use_facet body

  00161	52		 push	 edx
  00162	8b cd		 mov	 ecx, ebp
  00164	50		 push	 eax
  00165	8d 15 00 00 00
	00		 lea	 edx, DWORD PTR $LN15@use_facet
  0016b	e8 00 00 00 00	 call	 @_RTC_CheckStackVars@8
  00170	58		 pop	 eax
  00171	5a		 pop	 edx
  00172	8b 4d f4	 mov	 ecx, DWORD PTR __$EHRec$[ebp]
  00175	64 89 0d 00 00
	00 00		 mov	 DWORD PTR fs:0, ecx
  0017c	59		 pop	 ecx
  0017d	5f		 pop	 edi
  0017e	5e		 pop	 esi
  0017f	5b		 pop	 ebx
  00180	8b 4d f0	 mov	 ecx, DWORD PTR __$ArrayPad$[ebp]
  00183	33 cd		 xor	 ecx, ebp
  00185	e8 00 00 00 00	 call	 @__security_check_cookie@4
  0018a	81 c4 24 01 00
	00		 add	 esp, 292		; 00000124H
  00190	3b ec		 cmp	 ebp, esp
  00192	e8 00 00 00 00	 call	 __RTC_CheckEsp
  00197	8b e5		 mov	 esp, ebp
  00199	5d		 pop	 ebp
  0019a	c3		 ret	 0
  0019b	90		 npad	 1
$LN15@use_facet:
  0019c	03 00 00 00	 DD	 3
  001a0	00 00 00 00	 DD	 $LN14@use_facet
$LN14@use_facet:
  001a4	e8 ff ff ff	 DD	 -24			; ffffffe8H
  001a8	04 00 00 00	 DD	 4
  001ac	00 00 00 00	 DD	 $LN10@use_facet
  001b0	dc ff ff ff	 DD	 -36			; ffffffdcH
  001b4	04 00 00 00	 DD	 4
  001b8	00 00 00 00	 DD	 $LN11@use_facet
  001bc	ac ff ff ff	 DD	 -84			; ffffffacH
  001c0	04 00 00 00	 DD	 4
  001c4	00 00 00 00	 DD	 $LN12@use_facet
$LN12@use_facet:
  001c8	5f		 DB	 95			; 0000005fH
  001c9	50		 DB	 80			; 00000050H
  001ca	73		 DB	 115			; 00000073H
  001cb	61		 DB	 97			; 00000061H
  001cc	76		 DB	 118			; 00000076H
  001cd	65		 DB	 101			; 00000065H
  001ce	5f		 DB	 95			; 0000005fH
  001cf	67		 DB	 103			; 00000067H
  001d0	75		 DB	 117			; 00000075H
  001d1	61		 DB	 97			; 00000061H
  001d2	72		 DB	 114			; 00000072H
  001d3	64		 DB	 100			; 00000064H
  001d4	00		 DB	 0
$LN11@use_facet:
  001d5	5f		 DB	 95			; 0000005fH
  001d6	50		 DB	 80			; 00000050H
  001d7	73		 DB	 115			; 00000073H
  001d8	61		 DB	 97			; 00000061H
  001d9	76		 DB	 118			; 00000076H
  001da	65		 DB	 101			; 00000065H
  001db	00		 DB	 0
$LN10@use_facet:
  001dc	5f		 DB	 95			; 0000005fH
  001dd	4c		 DB	 76			; 0000004cH
  001de	6f		 DB	 111			; 0000006fH
  001df	63		 DB	 99			; 00000063H
  001e0	6b		 DB	 107			; 0000006bH
  001e1	00		 DB	 0
_TEXT	ENDS
;	COMDAT text$x
text$x	SEGMENT
__unwindfunclet$??$use_facet@V?$ctype@D@std@@@std@@YAABV?$ctype@D@0@ABVlocale@0@@Z$0:
  00000	8b f4		 mov	 esi, esp
  00002	8d 4d e8	 lea	 ecx, DWORD PTR __Lock$8[ebp]
  00005	ff 15 00 00 00
	00		 call	 DWORD PTR __imp_??1_Lockit@std@@QAE@XZ
  0000b	3b f4		 cmp	 esi, esp
  0000d	e9 00 00 00 00	 jmp	 __RTC_CheckEsp
__unwindfunclet$??$use_facet@V?$ctype@D@std@@@std@@YAABV?$ctype@D@0@ABVlocale@0@@Z$1:
  00012	8d 4d ac	 lea	 ecx, DWORD PTR __Psave_guard$3[ebp]
  00015	e9 00 00 00 00	 jmp	 ??1?$unique_ptr@V_Facet_base@std@@U?$default_delete@V_Facet_base@std@@@2@@std@@QAE@XZ ; std::unique_ptr<std::_Facet_base,std::default_delete<std::_Facet_base> >::~unique_ptr<std::_Facet_base,std::default_delete<std::_Facet_base> >
__ehhandler$??$use_facet@V?$ctype@D@std@@@std@@YAABV?$ctype@D@0@ABVlocale@0@@Z:
  0001a	8b 54 24 08	 mov	 edx, DWORD PTR [esp+8]
  0001e	8d 42 0c	 lea	 eax, DWORD PTR [edx+12]
  00021	8b 8a d8 fe ff
	ff		 mov	 ecx, DWORD PTR [edx-296]
  00027	33 c8		 xor	 ecx, eax
  00029	e8 00 00 00 00	 call	 @__security_check_cookie@4
  0002e	8b 4a fc	 mov	 ecx, DWORD PTR [edx-4]
  00031	33 c8		 xor	 ecx, eax
  00033	e8 00 00 00 00	 call	 @__security_check_cookie@4
  00038	b8 00 00 00 00	 mov	 eax, OFFSET __ehfuncinfo$??$use_facet@V?$ctype@D@std@@@std@@YAABV?$ctype@D@0@ABVlocale@0@@Z
  0003d	e9 00 00 00 00	 jmp	 ___CxxFrameHandler3
text$x	ENDS
??$use_facet@V?$ctype@D@std@@@std@@YAABV?$ctype@D@0@ABVlocale@0@@Z ENDP ; std::use_facet<std::ctype<char> >
; Function compile flags: /Odtp /RTCsu /ZI
; File C:\Program Files (x86)\Microsoft Visual Studio\2019\Community\VC\Tools\MSVC\14.24.28314\include\xlocale
;	COMDAT ?_Getfacet@locale@std@@QBEPBVfacet@12@I@Z
_TEXT	SEGMENT
tv71 = -232						; size = 4
__Ptr0$ = -32						; size = 4
__Facptr$ = -20						; size = 4
_this$ = -8						; size = 4
__Id$ = 8						; size = 4
?_Getfacet@locale@std@@QBEPBVfacet@12@I@Z PROC		; std::locale::_Getfacet, COMDAT
; _this$ = ecx

; 374  :     const facet* _Getfacet(size_t _Id) const { // look up a facet in locale object

  00000	55		 push	 ebp
  00001	8b ec		 mov	 ebp, esp
  00003	81 ec e8 00 00
	00		 sub	 esp, 232		; 000000e8H
  00009	53		 push	 ebx
  0000a	56		 push	 esi
  0000b	57		 push	 edi
  0000c	51		 push	 ecx
  0000d	8d bd 18 ff ff
	ff		 lea	 edi, DWORD PTR [ebp-232]
  00013	b9 3a 00 00 00	 mov	 ecx, 58			; 0000003aH
  00018	b8 cc cc cc cc	 mov	 eax, -858993460		; ccccccccH
  0001d	f3 ab		 rep stosd
  0001f	59		 pop	 ecx
  00020	89 4d f8	 mov	 DWORD PTR _this$[ebp], ecx
  00023	b9 00 00 00 00	 mov	 ecx, OFFSET __1A5AA814_xlocale
  00028	e8 00 00 00 00	 call	 @__CheckForDebuggerJustMyCode@4

; 375  :         const facet* _Facptr = _Id < _Ptr->_Facetcount ? _Ptr->_Facetvec[_Id] : nullptr; // null if id off end

  0002d	8b 45 f8	 mov	 eax, DWORD PTR _this$[ebp]
  00030	8b 48 04	 mov	 ecx, DWORD PTR [eax+4]
  00033	8b 55 08	 mov	 edx, DWORD PTR __Id$[ebp]
  00036	3b 51 0c	 cmp	 edx, DWORD PTR [ecx+12]
  00039	73 17		 jae	 SHORT $LN6@Getfacet
  0003b	8b 45 f8	 mov	 eax, DWORD PTR _this$[ebp]
  0003e	8b 48 04	 mov	 ecx, DWORD PTR [eax+4]
  00041	8b 51 08	 mov	 edx, DWORD PTR [ecx+8]
  00044	8b 45 08	 mov	 eax, DWORD PTR __Id$[ebp]
  00047	8b 0c 82	 mov	 ecx, DWORD PTR [edx+eax*4]
  0004a	89 8d 18 ff ff
	ff		 mov	 DWORD PTR tv71[ebp], ecx
  00050	eb 0a		 jmp	 SHORT $LN7@Getfacet
$LN6@Getfacet:
  00052	c7 85 18 ff ff
	ff 00 00 00 00	 mov	 DWORD PTR tv71[ebp], 0
$LN7@Getfacet:
  0005c	8b 95 18 ff ff
	ff		 mov	 edx, DWORD PTR tv71[ebp]
  00062	89 55 ec	 mov	 DWORD PTR __Facptr$[ebp], edx

; 376  :         if (_Facptr || !_Ptr->_Xparent) {

  00065	83 7d ec 00	 cmp	 DWORD PTR __Facptr$[ebp], 0
  00069	75 0e		 jne	 SHORT $LN3@Getfacet
  0006b	8b 45 f8	 mov	 eax, DWORD PTR _this$[ebp]
  0006e	8b 48 04	 mov	 ecx, DWORD PTR [eax+4]
  00071	0f b6 51 14	 movzx	 edx, BYTE PTR [ecx+20]
  00075	85 d2		 test	 edx, edx
  00077	75 05		 jne	 SHORT $LN2@Getfacet
$LN3@Getfacet:

; 377  :             return _Facptr; // found facet or not transparent

  00079	8b 45 ec	 mov	 eax, DWORD PTR __Facptr$[ebp]
  0007c	eb 23		 jmp	 SHORT $LN1@Getfacet
$LN2@Getfacet:

; 378  :         }
; 379  : 
; 380  :         // look in current locale
; 381  :         locale::_Locimp* _Ptr0 = _Getgloballocale();

  0007e	e8 00 00 00 00	 call	 ?_Getgloballocale@locale@std@@CAPAV_Locimp@12@XZ ; std::locale::_Getgloballocale
  00083	89 45 e0	 mov	 DWORD PTR __Ptr0$[ebp], eax

; 382  :         if (_Id < _Ptr0->_Facetcount) {

  00086	8b 45 e0	 mov	 eax, DWORD PTR __Ptr0$[ebp]
  00089	8b 4d 08	 mov	 ecx, DWORD PTR __Id$[ebp]
  0008c	3b 48 0c	 cmp	 ecx, DWORD PTR [eax+12]
  0008f	73 0e		 jae	 SHORT $LN4@Getfacet

; 383  :             return _Ptr0->_Facetvec[_Id]; // get from current locale

  00091	8b 45 e0	 mov	 eax, DWORD PTR __Ptr0$[ebp]
  00094	8b 48 08	 mov	 ecx, DWORD PTR [eax+8]
  00097	8b 55 08	 mov	 edx, DWORD PTR __Id$[ebp]
  0009a	8b 04 91	 mov	 eax, DWORD PTR [ecx+edx*4]
  0009d	eb 02		 jmp	 SHORT $LN1@Getfacet
$LN4@Getfacet:

; 384  :         }
; 385  : 
; 386  :         return nullptr; // no entry in current locale

  0009f	33 c0		 xor	 eax, eax
$LN1@Getfacet:

; 387  :     }

  000a1	5f		 pop	 edi
  000a2	5e		 pop	 esi
  000a3	5b		 pop	 ebx
  000a4	81 c4 e8 00 00
	00		 add	 esp, 232		; 000000e8H
  000aa	3b ec		 cmp	 ebp, esp
  000ac	e8 00 00 00 00	 call	 __RTC_CheckEsp
  000b1	8b e5		 mov	 esp, ebp
  000b3	5d		 pop	 ebp
  000b4	c2 04 00	 ret	 4
?_Getfacet@locale@std@@QBEPBVfacet@12@I@Z ENDP		; std::locale::_Getfacet
_TEXT	ENDS
; Function compile flags: /Odtp /RTCsu /ZI
; File C:\Program Files (x86)\Microsoft Visual Studio\2019\Community\VC\Tools\MSVC\14.24.28314\include\xlocale
;	COMDAT ??1locale@std@@QAE@XZ
_TEXT	SEGMENT
tv84 = -232						; size = 4
$T2 = -224						; size = 4
_this$ = -20						; size = 4
__$EHRec$ = -12						; size = 12
??1locale@std@@QAE@XZ PROC				; std::locale::~locale, COMDAT
; _this$ = ecx

; 351  :     ~locale() noexcept {

  00000	55		 push	 ebp
  00001	8b ec		 mov	 ebp, esp
  00003	6a ff		 push	 -1
  00005	68 00 00 00 00	 push	 __ehhandler$??1locale@std@@QAE@XZ
  0000a	64 a1 00 00 00
	00		 mov	 eax, DWORD PTR fs:0
  00010	50		 push	 eax
  00011	81 ec dc 00 00
	00		 sub	 esp, 220		; 000000dcH
  00017	53		 push	 ebx
  00018	56		 push	 esi
  00019	57		 push	 edi
  0001a	51		 push	 ecx
  0001b	8d bd 18 ff ff
	ff		 lea	 edi, DWORD PTR [ebp-232]
  00021	b9 37 00 00 00	 mov	 ecx, 55			; 00000037H
  00026	b8 cc cc cc cc	 mov	 eax, -858993460		; ccccccccH
  0002b	f3 ab		 rep stosd
  0002d	59		 pop	 ecx
  0002e	a1 00 00 00 00	 mov	 eax, DWORD PTR ___security_cookie
  00033	33 c5		 xor	 eax, ebp
  00035	50		 push	 eax
  00036	8d 45 f4	 lea	 eax, DWORD PTR __$EHRec$[ebp]
  00039	64 a3 00 00 00
	00		 mov	 DWORD PTR fs:0, eax
  0003f	89 4d ec	 mov	 DWORD PTR _this$[ebp], ecx
  00042	b9 00 00 00 00	 mov	 ecx, OFFSET __1A5AA814_xlocale
  00047	e8 00 00 00 00	 call	 @__CheckForDebuggerJustMyCode@4

; 352  :         if (_Ptr) {

  0004c	8b 45 ec	 mov	 eax, DWORD PTR _this$[ebp]
  0004f	83 78 04 00	 cmp	 DWORD PTR [eax+4], 0
  00053	74 5a		 je	 SHORT $LN3@locale

; 353  :             delete _Ptr->_Decref();

  00055	8b 45 ec	 mov	 eax, DWORD PTR _this$[ebp]
  00058	8b 48 04	 mov	 ecx, DWORD PTR [eax+4]
  0005b	8b 55 ec	 mov	 edx, DWORD PTR _this$[ebp]
  0005e	8b 01		 mov	 eax, DWORD PTR [ecx]
  00060	8b f4		 mov	 esi, esp
  00062	8b 4a 04	 mov	 ecx, DWORD PTR [edx+4]
  00065	8b 50 08	 mov	 edx, DWORD PTR [eax+8]
  00068	ff d2		 call	 edx
  0006a	3b f4		 cmp	 esi, esp
  0006c	e8 00 00 00 00	 call	 __RTC_CheckEsp
  00071	89 85 20 ff ff
	ff		 mov	 DWORD PTR $T2[ebp], eax
  00077	83 bd 20 ff ff
	ff 00		 cmp	 DWORD PTR $T2[ebp], 0
  0007e	74 25		 je	 SHORT $LN4@locale
  00080	8b f4		 mov	 esi, esp
  00082	6a 01		 push	 1
  00084	8b 85 20 ff ff
	ff		 mov	 eax, DWORD PTR $T2[ebp]
  0008a	8b 10		 mov	 edx, DWORD PTR [eax]
  0008c	8b 8d 20 ff ff
	ff		 mov	 ecx, DWORD PTR $T2[ebp]
  00092	8b 02		 mov	 eax, DWORD PTR [edx]
  00094	ff d0		 call	 eax
  00096	3b f4		 cmp	 esi, esp
  00098	e8 00 00 00 00	 call	 __RTC_CheckEsp
  0009d	89 85 18 ff ff
	ff		 mov	 DWORD PTR tv84[ebp], eax
  000a3	eb 0a		 jmp	 SHORT $LN3@locale
$LN4@locale:
  000a5	c7 85 18 ff ff
	ff 00 00 00 00	 mov	 DWORD PTR tv84[ebp], 0
$LN3@locale:

; 354  :         }
; 355  :     }

  000af	8b 4d f4	 mov	 ecx, DWORD PTR __$EHRec$[ebp]
  000b2	64 89 0d 00 00
	00 00		 mov	 DWORD PTR fs:0, ecx
  000b9	59		 pop	 ecx
  000ba	5f		 pop	 edi
  000bb	5e		 pop	 esi
  000bc	5b		 pop	 ebx
  000bd	81 c4 e8 00 00
	00		 add	 esp, 232		; 000000e8H
  000c3	3b ec		 cmp	 ebp, esp
  000c5	e8 00 00 00 00	 call	 __RTC_CheckEsp
  000ca	8b e5		 mov	 esp, ebp
  000cc	5d		 pop	 ebp
  000cd	c3		 ret	 0
_TEXT	ENDS
;	COMDAT text$x
text$x	SEGMENT
__ehhandler$??1locale@std@@QAE@XZ:
  00000	8b 54 24 08	 mov	 edx, DWORD PTR [esp+8]
  00004	8d 42 0c	 lea	 eax, DWORD PTR [edx+12]
  00007	8b 8a 14 ff ff
	ff		 mov	 ecx, DWORD PTR [edx-236]
  0000d	33 c8		 xor	 ecx, eax
  0000f	e8 00 00 00 00	 call	 @__security_check_cookie@4
  00014	b8 00 00 00 00	 mov	 eax, OFFSET __ehfuncinfo$??1locale@std@@QAE@XZ
  00019	e9 00 00 00 00	 jmp	 ___CxxFrameHandler3
text$x	ENDS
??1locale@std@@QAE@XZ ENDP				; std::locale::~locale
; Function compile flags: /Odtp /RTCsu /ZI
; File C:\Program Files (x86)\Microsoft Visual Studio\2019\Community\VC\Tools\MSVC\14.24.28314\include\typeinfo
;	COMDAT ?_Throw_bad_cast@std@@YAXXZ
_TEXT	SEGMENT
$T1 = -208						; size = 12
?_Throw_bad_cast@std@@YAXXZ PROC			; std::_Throw_bad_cast, COMDAT

; 64   : [[noreturn]] inline void _Throw_bad_cast() {

  00000	55		 push	 ebp
  00001	8b ec		 mov	 ebp, esp
  00003	81 ec d4 00 00
	00		 sub	 esp, 212		; 000000d4H
  00009	53		 push	 ebx
  0000a	56		 push	 esi
  0000b	57		 push	 edi
  0000c	8d bd 2c ff ff
	ff		 lea	 edi, DWORD PTR [ebp-212]
  00012	b9 35 00 00 00	 mov	 ecx, 53			; 00000035H
  00017	b8 cc cc cc cc	 mov	 eax, -858993460		; ccccccccH
  0001c	f3 ab		 rep stosd
  0001e	b9 00 00 00 00	 mov	 ecx, OFFSET __3559BE96_typeinfo
  00023	e8 00 00 00 00	 call	 @__CheckForDebuggerJustMyCode@4

; 65   :     _THROW(bad_cast{});

  00028	8d 8d 30 ff ff
	ff		 lea	 ecx, DWORD PTR $T1[ebp]
  0002e	e8 00 00 00 00	 call	 ??0bad_cast@std@@QAE@XZ	; std::bad_cast::bad_cast
  00033	68 00 00 00 00	 push	 OFFSET __TI2?AVbad_cast@std@@
  00038	8d 85 30 ff ff
	ff		 lea	 eax, DWORD PTR $T1[ebp]
  0003e	50		 push	 eax
  0003f	e8 00 00 00 00	 call	 __CxxThrowException@8
$LN2@Throw_bad_:

; 66   : }

  00044	5f		 pop	 edi
  00045	5e		 pop	 esi
  00046	5b		 pop	 ebx
  00047	81 c4 d4 00 00
	00		 add	 esp, 212		; 000000d4H
  0004d	3b ec		 cmp	 ebp, esp
  0004f	e8 00 00 00 00	 call	 __RTC_CheckEsp
  00054	8b e5		 mov	 esp, ebp
  00056	5d		 pop	 ebp
  00057	c3		 ret	 0
?_Throw_bad_cast@std@@YAXXZ ENDP			; std::_Throw_bad_cast
_TEXT	ENDS
; Function compile flags: /Odtp /RTCsu /ZI
;	COMDAT ??_Gbad_cast@std@@UAEPAXI@Z
_TEXT	SEGMENT
_this$ = -8						; size = 4
___flags$ = 8						; size = 4
??_Gbad_cast@std@@UAEPAXI@Z PROC			; std::bad_cast::`scalar deleting destructor', COMDAT
; _this$ = ecx
  00000	55		 push	 ebp
  00001	8b ec		 mov	 ebp, esp
  00003	81 ec cc 00 00
	00		 sub	 esp, 204		; 000000ccH
  00009	53		 push	 ebx
  0000a	56		 push	 esi
  0000b	57		 push	 edi
  0000c	51		 push	 ecx
  0000d	8d bd 34 ff ff
	ff		 lea	 edi, DWORD PTR [ebp-204]
  00013	b9 33 00 00 00	 mov	 ecx, 51			; 00000033H
  00018	b8 cc cc cc cc	 mov	 eax, -858993460		; ccccccccH
  0001d	f3 ab		 rep stosd
  0001f	59		 pop	 ecx
  00020	89 4d f8	 mov	 DWORD PTR _this$[ebp], ecx
  00023	8b 4d f8	 mov	 ecx, DWORD PTR _this$[ebp]
  00026	e8 00 00 00 00	 call	 ??1bad_cast@std@@UAE@XZ
  0002b	8b 45 08	 mov	 eax, DWORD PTR ___flags$[ebp]
  0002e	83 e0 01	 and	 eax, 1
  00031	74 0e		 je	 SHORT $LN2@scalar
  00033	6a 0c		 push	 12			; 0000000cH
  00035	8b 45 f8	 mov	 eax, DWORD PTR _this$[ebp]
  00038	50		 push	 eax
  00039	e8 00 00 00 00	 call	 ??3@YAXPAXI@Z		; operator delete
  0003e	83 c4 08	 add	 esp, 8
$LN2@scalar:
  00041	8b 45 f8	 mov	 eax, DWORD PTR _this$[ebp]
  00044	5f		 pop	 edi
  00045	5e		 pop	 esi
  00046	5b		 pop	 ebx
  00047	81 c4 cc 00 00
	00		 add	 esp, 204		; 000000ccH
  0004d	3b ec		 cmp	 ebp, esp
  0004f	e8 00 00 00 00	 call	 __RTC_CheckEsp
  00054	8b e5		 mov	 esp, ebp
  00056	5d		 pop	 ebp
  00057	c2 04 00	 ret	 4
??_Gbad_cast@std@@UAEPAXI@Z ENDP			; std::bad_cast::`scalar deleting destructor'
_TEXT	ENDS
; Function compile flags: /Odtp /RTCsu /ZI
;	COMDAT ??0bad_cast@std@@QAE@ABV01@@Z
_TEXT	SEGMENT
_this$ = -8						; size = 4
___that$ = 8						; size = 4
??0bad_cast@std@@QAE@ABV01@@Z PROC			; std::bad_cast::bad_cast, COMDAT
; _this$ = ecx
  00000	55		 push	 ebp
  00001	8b ec		 mov	 ebp, esp
  00003	81 ec cc 00 00
	00		 sub	 esp, 204		; 000000ccH
  00009	53		 push	 ebx
  0000a	56		 push	 esi
  0000b	57		 push	 edi
  0000c	51		 push	 ecx
  0000d	8d bd 34 ff ff
	ff		 lea	 edi, DWORD PTR [ebp-204]
  00013	b9 33 00 00 00	 mov	 ecx, 51			; 00000033H
  00018	b8 cc cc cc cc	 mov	 eax, -858993460		; ccccccccH
  0001d	f3 ab		 rep stosd
  0001f	59		 pop	 ecx
  00020	89 4d f8	 mov	 DWORD PTR _this$[ebp], ecx
  00023	8b 45 08	 mov	 eax, DWORD PTR ___that$[ebp]
  00026	50		 push	 eax
  00027	8b 4d f8	 mov	 ecx, DWORD PTR _this$[ebp]
  0002a	e8 00 00 00 00	 call	 ??0exception@std@@QAE@ABV01@@Z ; std::exception::exception
  0002f	8b 45 f8	 mov	 eax, DWORD PTR _this$[ebp]
  00032	c7 00 00 00 00
	00		 mov	 DWORD PTR [eax], OFFSET ??_7bad_cast@std@@6B@
  00038	8b 45 f8	 mov	 eax, DWORD PTR _this$[ebp]
  0003b	5f		 pop	 edi
  0003c	5e		 pop	 esi
  0003d	5b		 pop	 ebx
  0003e	81 c4 cc 00 00
	00		 add	 esp, 204		; 000000ccH
  00044	3b ec		 cmp	 ebp, esp
  00046	e8 00 00 00 00	 call	 __RTC_CheckEsp
  0004b	8b e5		 mov	 esp, ebp
  0004d	5d		 pop	 ebp
  0004e	c2 04 00	 ret	 4
??0bad_cast@std@@QAE@ABV01@@Z ENDP			; std::bad_cast::bad_cast
_TEXT	ENDS
; Function compile flags: /Odtp /RTCsu /ZI
;	COMDAT ??1bad_cast@std@@UAE@XZ
_TEXT	SEGMENT
_this$ = -8						; size = 4
??1bad_cast@std@@UAE@XZ PROC				; std::bad_cast::~bad_cast, COMDAT
; _this$ = ecx
  00000	55		 push	 ebp
  00001	8b ec		 mov	 ebp, esp
  00003	81 ec cc 00 00
	00		 sub	 esp, 204		; 000000ccH
  00009	53		 push	 ebx
  0000a	56		 push	 esi
  0000b	57		 push	 edi
  0000c	51		 push	 ecx
  0000d	8d bd 34 ff ff
	ff		 lea	 edi, DWORD PTR [ebp-204]
  00013	b9 33 00 00 00	 mov	 ecx, 51			; 00000033H
  00018	b8 cc cc cc cc	 mov	 eax, -858993460		; ccccccccH
  0001d	f3 ab		 rep stosd
  0001f	59		 pop	 ecx
  00020	89 4d f8	 mov	 DWORD PTR _this$[ebp], ecx
  00023	8b 4d f8	 mov	 ecx, DWORD PTR _this$[ebp]
  00026	e8 00 00 00 00	 call	 ??1exception@std@@UAE@XZ ; std::exception::~exception
  0002b	5f		 pop	 edi
  0002c	5e		 pop	 esi
  0002d	5b		 pop	 ebx
  0002e	81 c4 cc 00 00
	00		 add	 esp, 204		; 000000ccH
  00034	3b ec		 cmp	 ebp, esp
  00036	e8 00 00 00 00	 call	 __RTC_CheckEsp
  0003b	8b e5		 mov	 esp, ebp
  0003d	5d		 pop	 ebp
  0003e	c3		 ret	 0
??1bad_cast@std@@UAE@XZ ENDP				; std::bad_cast::~bad_cast
_TEXT	ENDS
; Function compile flags: /Odtp /RTCsu /ZI
; File C:\Program Files (x86)\Microsoft Visual Studio\2019\Community\VC\Tools\MSVC\14.24.28314\include\vcruntime_typeinfo.h
;	COMDAT ??0bad_cast@std@@QAE@XZ
_TEXT	SEGMENT
_this$ = -20						; size = 4
__$EHRec$ = -12						; size = 12
??0bad_cast@std@@QAE@XZ PROC				; std::bad_cast::bad_cast, COMDAT
; _this$ = ecx

; 131  :     {

  00000	55		 push	 ebp
  00001	8b ec		 mov	 ebp, esp
  00003	6a ff		 push	 -1
  00005	68 00 00 00 00	 push	 __ehhandler$??0bad_cast@std@@QAE@XZ
  0000a	64 a1 00 00 00
	00		 mov	 eax, DWORD PTR fs:0
  00010	50		 push	 eax
  00011	81 ec cc 00 00
	00		 sub	 esp, 204		; 000000ccH
  00017	53		 push	 ebx
  00018	56		 push	 esi
  00019	57		 push	 edi
  0001a	51		 push	 ecx
  0001b	8d bd 28 ff ff
	ff		 lea	 edi, DWORD PTR [ebp-216]
  00021	b9 33 00 00 00	 mov	 ecx, 51			; 00000033H
  00026	b8 cc cc cc cc	 mov	 eax, -858993460		; ccccccccH
  0002b	f3 ab		 rep stosd
  0002d	59		 pop	 ecx
  0002e	a1 00 00 00 00	 mov	 eax, DWORD PTR ___security_cookie
  00033	33 c5		 xor	 eax, ebp
  00035	50		 push	 eax
  00036	8d 45 f4	 lea	 eax, DWORD PTR __$EHRec$[ebp]
  00039	64 a3 00 00 00
	00		 mov	 DWORD PTR fs:0, eax
  0003f	89 4d ec	 mov	 DWORD PTR _this$[ebp], ecx
  00042	b9 00 00 00 00	 mov	 ecx, OFFSET __60622685_vcruntime_typeinfo@h
  00047	e8 00 00 00 00	 call	 @__CheckForDebuggerJustMyCode@4

; 130  :         : exception("bad cast", 1)

  0004c	6a 01		 push	 1
  0004e	68 00 00 00 00	 push	 OFFSET ??_C@_08EPJLHIJG@bad?5cast@
  00053	8b 4d ec	 mov	 ecx, DWORD PTR _this$[ebp]
  00056	e8 00 00 00 00	 call	 ??0exception@std@@QAE@QBDH@Z ; std::exception::exception

; 131  :     {

  0005b	8b 45 ec	 mov	 eax, DWORD PTR _this$[ebp]
  0005e	c7 00 00 00 00
	00		 mov	 DWORD PTR [eax], OFFSET ??_7bad_cast@std@@6B@

; 132  :     }

  00064	8b 45 ec	 mov	 eax, DWORD PTR _this$[ebp]
  00067	8b 4d f4	 mov	 ecx, DWORD PTR __$EHRec$[ebp]
  0006a	64 89 0d 00 00
	00 00		 mov	 DWORD PTR fs:0, ecx
  00071	59		 pop	 ecx
  00072	5f		 pop	 edi
  00073	5e		 pop	 esi
  00074	5b		 pop	 ebx
  00075	81 c4 d8 00 00
	00		 add	 esp, 216		; 000000d8H
  0007b	3b ec		 cmp	 ebp, esp
  0007d	e8 00 00 00 00	 call	 __RTC_CheckEsp
  00082	8b e5		 mov	 esp, ebp
  00084	5d		 pop	 ebp
  00085	c3		 ret	 0
_TEXT	ENDS
;	COMDAT text$x
text$x	SEGMENT
__ehhandler$??0bad_cast@std@@QAE@XZ:
  00000	8b 54 24 08	 mov	 edx, DWORD PTR [esp+8]
  00004	8d 42 0c	 lea	 eax, DWORD PTR [edx+12]
  00007	8b 8a 24 ff ff
	ff		 mov	 ecx, DWORD PTR [edx-220]
  0000d	33 c8		 xor	 ecx, eax
  0000f	e8 00 00 00 00	 call	 @__security_check_cookie@4
  00014	b8 00 00 00 00	 mov	 eax, OFFSET __ehfuncinfo$??0bad_cast@std@@QAE@XZ
  00019	e9 00 00 00 00	 jmp	 ___CxxFrameHandler3
text$x	ENDS
??0bad_cast@std@@QAE@XZ ENDP				; std::bad_cast::bad_cast
; Function compile flags: /Odtp /RTCsu /ZI
;	COMDAT ??1?$_Compressed_pair@V?$allocator@D@std@@V?$_String_val@U?$_Simple_types@D@std@@@2@$00@std@@QAE@XZ
_TEXT	SEGMENT
_this$ = -8						; size = 4
??1?$_Compressed_pair@V?$allocator@D@std@@V?$_String_val@U?$_Simple_types@D@std@@@2@$00@std@@QAE@XZ PROC ; std::_Compressed_pair<std::allocator<char>,std::_String_val<std::_Simple_types<char> >,1>::~_Compressed_pair<std::allocator<char>,std::_String_val<std::_Simple_types<char> >,1>, COMDAT
; _this$ = ecx
  00000	55		 push	 ebp
  00001	8b ec		 mov	 ebp, esp
  00003	81 ec cc 00 00
	00		 sub	 esp, 204		; 000000ccH
  00009	53		 push	 ebx
  0000a	56		 push	 esi
  0000b	57		 push	 edi
  0000c	51		 push	 ecx
  0000d	8d bd 34 ff ff
	ff		 lea	 edi, DWORD PTR [ebp-204]
  00013	b9 33 00 00 00	 mov	 ecx, 51			; 00000033H
  00018	b8 cc cc cc cc	 mov	 eax, -858993460		; ccccccccH
  0001d	f3 ab		 rep stosd
  0001f	59		 pop	 ecx
  00020	89 4d f8	 mov	 DWORD PTR _this$[ebp], ecx
  00023	8b 4d f8	 mov	 ecx, DWORD PTR _this$[ebp]
  00026	e8 00 00 00 00	 call	 ??1?$_String_val@U?$_Simple_types@D@std@@@std@@QAE@XZ
  0002b	5f		 pop	 edi
  0002c	5e		 pop	 esi
  0002d	5b		 pop	 ebx
  0002e	81 c4 cc 00 00
	00		 add	 esp, 204		; 000000ccH
  00034	3b ec		 cmp	 ebp, esp
  00036	e8 00 00 00 00	 call	 __RTC_CheckEsp
  0003b	8b e5		 mov	 esp, ebp
  0003d	5d		 pop	 ebp
  0003e	c3		 ret	 0
??1?$_Compressed_pair@V?$allocator@D@std@@V?$_String_val@U?$_Simple_types@D@std@@@2@$00@std@@QAE@XZ ENDP ; std::_Compressed_pair<std::allocator<char>,std::_String_val<std::_Simple_types<char> >,1>::~_Compressed_pair<std::allocator<char>,std::_String_val<std::_Simple_types<char> >,1>
_TEXT	ENDS
; Function compile flags: /Odtp /RTCsu /ZI
; File C:\Program Files (x86)\Microsoft Visual Studio\2019\Community\VC\Tools\MSVC\14.24.28314\include\xmemory
;	COMDAT ?_Get_first@?$_Compressed_pair@V?$allocator@D@std@@V?$_String_val@U?$_Simple_types@D@std@@@2@$00@std@@QBEABV?$allocator@D@2@XZ
_TEXT	SEGMENT
_this$ = -20						; size = 4
__$EHRec$ = -12						; size = 12
?_Get_first@?$_Compressed_pair@V?$allocator@D@std@@V?$_String_val@U?$_Simple_types@D@std@@@2@$00@std@@QBEABV?$allocator@D@2@XZ PROC ; std::_Compressed_pair<std::allocator<char>,std::_String_val<std::_Simple_types<char> >,1>::_Get_first, COMDAT
; _this$ = ecx

; 1339 :     const _Ty1& _Get_first() const noexcept {

  00000	55		 push	 ebp
  00001	8b ec		 mov	 ebp, esp
  00003	6a ff		 push	 -1
  00005	68 00 00 00 00	 push	 __ehhandler$?_Get_first@?$_Compressed_pair@V?$allocator@D@std@@V?$_String_val@U?$_Simple_types@D@std@@@2@$00@std@@QBEABV?$allocator@D@2@XZ
  0000a	64 a1 00 00 00
	00		 mov	 eax, DWORD PTR fs:0
  00010	50		 push	 eax
  00011	81 ec cc 00 00
	00		 sub	 esp, 204		; 000000ccH
  00017	53		 push	 ebx
  00018	56		 push	 esi
  00019	57		 push	 edi
  0001a	51		 push	 ecx
  0001b	8d bd 28 ff ff
	ff		 lea	 edi, DWORD PTR [ebp-216]
  00021	b9 33 00 00 00	 mov	 ecx, 51			; 00000033H
  00026	b8 cc cc cc cc	 mov	 eax, -858993460		; ccccccccH
  0002b	f3 ab		 rep stosd
  0002d	59		 pop	 ecx
  0002e	a1 00 00 00 00	 mov	 eax, DWORD PTR ___security_cookie
  00033	33 c5		 xor	 eax, ebp
  00035	50		 push	 eax
  00036	8d 45 f4	 lea	 eax, DWORD PTR __$EHRec$[ebp]
  00039	64 a3 00 00 00
	00		 mov	 DWORD PTR fs:0, eax
  0003f	89 4d ec	 mov	 DWORD PTR _this$[ebp], ecx
  00042	b9 00 00 00 00	 mov	 ecx, OFFSET __B1B75AB9_xmemory
  00047	e8 00 00 00 00	 call	 @__CheckForDebuggerJustMyCode@4

; 1340 :         return *this;

  0004c	8b 45 ec	 mov	 eax, DWORD PTR _this$[ebp]

; 1341 :     }

  0004f	8b 4d f4	 mov	 ecx, DWORD PTR __$EHRec$[ebp]
  00052	64 89 0d 00 00
	00 00		 mov	 DWORD PTR fs:0, ecx
  00059	59		 pop	 ecx
  0005a	5f		 pop	 edi
  0005b	5e		 pop	 esi
  0005c	5b		 pop	 ebx
  0005d	81 c4 d8 00 00
	00		 add	 esp, 216		; 000000d8H
  00063	3b ec		 cmp	 ebp, esp
  00065	e8 00 00 00 00	 call	 __RTC_CheckEsp
  0006a	8b e5		 mov	 esp, ebp
  0006c	5d		 pop	 ebp
  0006d	c3		 ret	 0
_TEXT	ENDS
;	COMDAT text$x
text$x	SEGMENT
__ehhandler$?_Get_first@?$_Compressed_pair@V?$allocator@D@std@@V?$_String_val@U?$_Simple_types@D@std@@@2@$00@std@@QBEABV?$allocator@D@2@XZ:
  00000	8b 54 24 08	 mov	 edx, DWORD PTR [esp+8]
  00004	8d 42 0c	 lea	 eax, DWORD PTR [edx+12]
  00007	8b 8a 24 ff ff
	ff		 mov	 ecx, DWORD PTR [edx-220]
  0000d	33 c8		 xor	 ecx, eax
  0000f	e8 00 00 00 00	 call	 @__security_check_cookie@4
  00014	b8 00 00 00 00	 mov	 eax, OFFSET __ehfuncinfo$?_Get_first@?$_Compressed_pair@V?$allocator@D@std@@V?$_String_val@U?$_Simple_types@D@std@@@2@$00@std@@QBEABV?$allocator@D@2@XZ
  00019	e9 00 00 00 00	 jmp	 ___CxxFrameHandler3
text$x	ENDS
?_Get_first@?$_Compressed_pair@V?$allocator@D@std@@V?$_String_val@U?$_Simple_types@D@std@@@2@$00@std@@QBEABV?$allocator@D@2@XZ ENDP ; std::_Compressed_pair<std::allocator<char>,std::_String_val<std::_Simple_types<char> >,1>::_Get_first
; Function compile flags: /Odtp /RTCsu /ZI
; File C:\Program Files (x86)\Microsoft Visual Studio\2019\Community\VC\Tools\MSVC\14.24.28314\include\xmemory
;	COMDAT ?_Get_first@?$_Compressed_pair@V?$allocator@D@std@@V?$_String_val@U?$_Simple_types@D@std@@@2@$00@std@@QAEAAV?$allocator@D@2@XZ
_TEXT	SEGMENT
_this$ = -20						; size = 4
__$EHRec$ = -12						; size = 12
?_Get_first@?$_Compressed_pair@V?$allocator@D@std@@V?$_String_val@U?$_Simple_types@D@std@@@2@$00@std@@QAEAAV?$allocator@D@2@XZ PROC ; std::_Compressed_pair<std::allocator<char>,std::_String_val<std::_Simple_types<char> >,1>::_Get_first, COMDAT
; _this$ = ecx

; 1335 :     _Ty1& _Get_first() noexcept {

  00000	55		 push	 ebp
  00001	8b ec		 mov	 ebp, esp
  00003	6a ff		 push	 -1
  00005	68 00 00 00 00	 push	 __ehhandler$?_Get_first@?$_Compressed_pair@V?$allocator@D@std@@V?$_String_val@U?$_Simple_types@D@std@@@2@$00@std@@QAEAAV?$allocator@D@2@XZ
  0000a	64 a1 00 00 00
	00		 mov	 eax, DWORD PTR fs:0
  00010	50		 push	 eax
  00011	81 ec cc 00 00
	00		 sub	 esp, 204		; 000000ccH
  00017	53		 push	 ebx
  00018	56		 push	 esi
  00019	57		 push	 edi
  0001a	51		 push	 ecx
  0001b	8d bd 28 ff ff
	ff		 lea	 edi, DWORD PTR [ebp-216]
  00021	b9 33 00 00 00	 mov	 ecx, 51			; 00000033H
  00026	b8 cc cc cc cc	 mov	 eax, -858993460		; ccccccccH
  0002b	f3 ab		 rep stosd
  0002d	59		 pop	 ecx
  0002e	a1 00 00 00 00	 mov	 eax, DWORD PTR ___security_cookie
  00033	33 c5		 xor	 eax, ebp
  00035	50		 push	 eax
  00036	8d 45 f4	 lea	 eax, DWORD PTR __$EHRec$[ebp]
  00039	64 a3 00 00 00
	00		 mov	 DWORD PTR fs:0, eax
  0003f	89 4d ec	 mov	 DWORD PTR _this$[ebp], ecx
  00042	b9 00 00 00 00	 mov	 ecx, OFFSET __B1B75AB9_xmemory
  00047	e8 00 00 00 00	 call	 @__CheckForDebuggerJustMyCode@4

; 1336 :         return *this;

  0004c	8b 45 ec	 mov	 eax, DWORD PTR _this$[ebp]

; 1337 :     }

  0004f	8b 4d f4	 mov	 ecx, DWORD PTR __$EHRec$[ebp]
  00052	64 89 0d 00 00
	00 00		 mov	 DWORD PTR fs:0, ecx
  00059	59		 pop	 ecx
  0005a	5f		 pop	 edi
  0005b	5e		 pop	 esi
  0005c	5b		 pop	 ebx
  0005d	81 c4 d8 00 00
	00		 add	 esp, 216		; 000000d8H
  00063	3b ec		 cmp	 ebp, esp
  00065	e8 00 00 00 00	 call	 __RTC_CheckEsp
  0006a	8b e5		 mov	 esp, ebp
  0006c	5d		 pop	 ebp
  0006d	c3		 ret	 0
_TEXT	ENDS
;	COMDAT text$x
text$x	SEGMENT
__ehhandler$?_Get_first@?$_Compressed_pair@V?$allocator@D@std@@V?$_String_val@U?$_Simple_types@D@std@@@2@$00@std@@QAEAAV?$allocator@D@2@XZ:
  00000	8b 54 24 08	 mov	 edx, DWORD PTR [esp+8]
  00004	8d 42 0c	 lea	 eax, DWORD PTR [edx+12]
  00007	8b 8a 24 ff ff
	ff		 mov	 ecx, DWORD PTR [edx-220]
  0000d	33 c8		 xor	 ecx, eax
  0000f	e8 00 00 00 00	 call	 @__security_check_cookie@4
  00014	b8 00 00 00 00	 mov	 eax, OFFSET __ehfuncinfo$?_Get_first@?$_Compressed_pair@V?$allocator@D@std@@V?$_String_val@U?$_Simple_types@D@std@@@2@$00@std@@QAEAAV?$allocator@D@2@XZ
  00019	e9 00 00 00 00	 jmp	 ___CxxFrameHandler3
text$x	ENDS
?_Get_first@?$_Compressed_pair@V?$allocator@D@std@@V?$_String_val@U?$_Simple_types@D@std@@@2@$00@std@@QAEAAV?$allocator@D@2@XZ ENDP ; std::_Compressed_pair<std::allocator<char>,std::_String_val<std::_Simple_types<char> >,1>::_Get_first
; Function compile flags: /Odtp /RTCsu /ZI
; File C:\Program Files (x86)\Microsoft Visual Studio\2019\Community\VC\Tools\MSVC\14.24.28314\include\xstring
;	COMDAT ?_Getal@?$basic_string@DU?$char_traits@D@std@@V?$allocator@D@2@@std@@ABEABV?$allocator@D@2@XZ
_TEXT	SEGMENT
_this$ = -20						; size = 4
__$EHRec$ = -12						; size = 12
?_Getal@?$basic_string@DU?$char_traits@D@std@@V?$allocator@D@2@@std@@ABEABV?$allocator@D@2@XZ PROC ; std::basic_string<char,std::char_traits<char>,std::allocator<char> >::_Getal, COMDAT
; _this$ = ecx

; 4219 :     const _Alty& _Getal() const noexcept {

  00000	55		 push	 ebp
  00001	8b ec		 mov	 ebp, esp
  00003	6a ff		 push	 -1
  00005	68 00 00 00 00	 push	 __ehhandler$?_Getal@?$basic_string@DU?$char_traits@D@std@@V?$allocator@D@2@@std@@ABEABV?$allocator@D@2@XZ
  0000a	64 a1 00 00 00
	00		 mov	 eax, DWORD PTR fs:0
  00010	50		 push	 eax
  00011	81 ec cc 00 00
	00		 sub	 esp, 204		; 000000ccH
  00017	53		 push	 ebx
  00018	56		 push	 esi
  00019	57		 push	 edi
  0001a	51		 push	 ecx
  0001b	8d bd 28 ff ff
	ff		 lea	 edi, DWORD PTR [ebp-216]
  00021	b9 33 00 00 00	 mov	 ecx, 51			; 00000033H
  00026	b8 cc cc cc cc	 mov	 eax, -858993460		; ccccccccH
  0002b	f3 ab		 rep stosd
  0002d	59		 pop	 ecx
  0002e	a1 00 00 00 00	 mov	 eax, DWORD PTR ___security_cookie
  00033	33 c5		 xor	 eax, ebp
  00035	50		 push	 eax
  00036	8d 45 f4	 lea	 eax, DWORD PTR __$EHRec$[ebp]
  00039	64 a3 00 00 00
	00		 mov	 DWORD PTR fs:0, eax
  0003f	89 4d ec	 mov	 DWORD PTR _this$[ebp], ecx
  00042	b9 00 00 00 00	 mov	 ecx, OFFSET __C564DC25_xstring
  00047	e8 00 00 00 00	 call	 @__CheckForDebuggerJustMyCode@4

; 4220 :         return _Mypair._Get_first();

  0004c	8b 4d ec	 mov	 ecx, DWORD PTR _this$[ebp]
  0004f	e8 00 00 00 00	 call	 ?_Get_first@?$_Compressed_pair@V?$allocator@D@std@@V?$_String_val@U?$_Simple_types@D@std@@@2@$00@std@@QBEABV?$allocator@D@2@XZ ; std::_Compressed_pair<std::allocator<char>,std::_String_val<std::_Simple_types<char> >,1>::_Get_first

; 4221 :     }

  00054	8b 4d f4	 mov	 ecx, DWORD PTR __$EHRec$[ebp]
  00057	64 89 0d 00 00
	00 00		 mov	 DWORD PTR fs:0, ecx
  0005e	59		 pop	 ecx
  0005f	5f		 pop	 edi
  00060	5e		 pop	 esi
  00061	5b		 pop	 ebx
  00062	81 c4 d8 00 00
	00		 add	 esp, 216		; 000000d8H
  00068	3b ec		 cmp	 ebp, esp
  0006a	e8 00 00 00 00	 call	 __RTC_CheckEsp
  0006f	8b e5		 mov	 esp, ebp
  00071	5d		 pop	 ebp
  00072	c3		 ret	 0
_TEXT	ENDS
;	COMDAT text$x
text$x	SEGMENT
__ehhandler$?_Getal@?$basic_string@DU?$char_traits@D@std@@V?$allocator@D@2@@std@@ABEABV?$allocator@D@2@XZ:
  00000	8b 54 24 08	 mov	 edx, DWORD PTR [esp+8]
  00004	8d 42 0c	 lea	 eax, DWORD PTR [edx+12]
  00007	8b 8a 24 ff ff
	ff		 mov	 ecx, DWORD PTR [edx-220]
  0000d	33 c8		 xor	 ecx, eax
  0000f	e8 00 00 00 00	 call	 @__security_check_cookie@4
  00014	b8 00 00 00 00	 mov	 eax, OFFSET __ehfuncinfo$?_Getal@?$basic_string@DU?$char_traits@D@std@@V?$allocator@D@2@@std@@ABEABV?$allocator@D@2@XZ
  00019	e9 00 00 00 00	 jmp	 ___CxxFrameHandler3
text$x	ENDS
?_Getal@?$basic_string@DU?$char_traits@D@std@@V?$allocator@D@2@@std@@ABEABV?$allocator@D@2@XZ ENDP ; std::basic_string<char,std::char_traits<char>,std::allocator<char> >::_Getal
; Function compile flags: /Odtp /RTCsu /ZI
; File C:\Program Files (x86)\Microsoft Visual Studio\2019\Community\VC\Tools\MSVC\14.24.28314\include\xstring
;	COMDAT ?_Getal@?$basic_string@DU?$char_traits@D@std@@V?$allocator@D@2@@std@@AAEAAV?$allocator@D@2@XZ
_TEXT	SEGMENT
_this$ = -20						; size = 4
__$EHRec$ = -12						; size = 12
?_Getal@?$basic_string@DU?$char_traits@D@std@@V?$allocator@D@2@@std@@AAEAAV?$allocator@D@2@XZ PROC ; std::basic_string<char,std::char_traits<char>,std::allocator<char> >::_Getal, COMDAT
; _this$ = ecx

; 4215 :     _Alty& _Getal() noexcept {

  00000	55		 push	 ebp
  00001	8b ec		 mov	 ebp, esp
  00003	6a ff		 push	 -1
  00005	68 00 00 00 00	 push	 __ehhandler$?_Getal@?$basic_string@DU?$char_traits@D@std@@V?$allocator@D@2@@std@@AAEAAV?$allocator@D@2@XZ
  0000a	64 a1 00 00 00
	00		 mov	 eax, DWORD PTR fs:0
  00010	50		 push	 eax
  00011	81 ec cc 00 00
	00		 sub	 esp, 204		; 000000ccH
  00017	53		 push	 ebx
  00018	56		 push	 esi
  00019	57		 push	 edi
  0001a	51		 push	 ecx
  0001b	8d bd 28 ff ff
	ff		 lea	 edi, DWORD PTR [ebp-216]
  00021	b9 33 00 00 00	 mov	 ecx, 51			; 00000033H
  00026	b8 cc cc cc cc	 mov	 eax, -858993460		; ccccccccH
  0002b	f3 ab		 rep stosd
  0002d	59		 pop	 ecx
  0002e	a1 00 00 00 00	 mov	 eax, DWORD PTR ___security_cookie
  00033	33 c5		 xor	 eax, ebp
  00035	50		 push	 eax
  00036	8d 45 f4	 lea	 eax, DWORD PTR __$EHRec$[ebp]
  00039	64 a3 00 00 00
	00		 mov	 DWORD PTR fs:0, eax
  0003f	89 4d ec	 mov	 DWORD PTR _this$[ebp], ecx
  00042	b9 00 00 00 00	 mov	 ecx, OFFSET __C564DC25_xstring
  00047	e8 00 00 00 00	 call	 @__CheckForDebuggerJustMyCode@4

; 4216 :         return _Mypair._Get_first();

  0004c	8b 4d ec	 mov	 ecx, DWORD PTR _this$[ebp]
  0004f	e8 00 00 00 00	 call	 ?_Get_first@?$_Compressed_pair@V?$allocator@D@std@@V?$_String_val@U?$_Simple_types@D@std@@@2@$00@std@@QAEAAV?$allocator@D@2@XZ ; std::_Compressed_pair<std::allocator<char>,std::_String_val<std::_Simple_types<char> >,1>::_Get_first

; 4217 :     }

  00054	8b 4d f4	 mov	 ecx, DWORD PTR __$EHRec$[ebp]
  00057	64 89 0d 00 00
	00 00		 mov	 DWORD PTR fs:0, ecx
  0005e	59		 pop	 ecx
  0005f	5f		 pop	 edi
  00060	5e		 pop	 esi
  00061	5b		 pop	 ebx
  00062	81 c4 d8 00 00
	00		 add	 esp, 216		; 000000d8H
  00068	3b ec		 cmp	 ebp, esp
  0006a	e8 00 00 00 00	 call	 __RTC_CheckEsp
  0006f	8b e5		 mov	 esp, ebp
  00071	5d		 pop	 ebp
  00072	c3		 ret	 0
_TEXT	ENDS
;	COMDAT text$x
text$x	SEGMENT
__ehhandler$?_Getal@?$basic_string@DU?$char_traits@D@std@@V?$allocator@D@2@@std@@AAEAAV?$allocator@D@2@XZ:
  00000	8b 54 24 08	 mov	 edx, DWORD PTR [esp+8]
  00004	8d 42 0c	 lea	 eax, DWORD PTR [edx+12]
  00007	8b 8a 24 ff ff
	ff		 mov	 ecx, DWORD PTR [edx-220]
  0000d	33 c8		 xor	 ecx, eax
  0000f	e8 00 00 00 00	 call	 @__security_check_cookie@4
  00014	b8 00 00 00 00	 mov	 eax, OFFSET __ehfuncinfo$?_Getal@?$basic_string@DU?$char_traits@D@std@@V?$allocator@D@2@@std@@AAEAAV?$allocator@D@2@XZ
  00019	e9 00 00 00 00	 jmp	 ___CxxFrameHandler3
text$x	ENDS
?_Getal@?$basic_string@DU?$char_traits@D@std@@V?$allocator@D@2@@std@@AAEAAV?$allocator@D@2@XZ ENDP ; std::basic_string<char,std::char_traits<char>,std::allocator<char> >::_Getal
; Function compile flags: /Odtp /RTCsu /ZI
; File C:\Program Files (x86)\Microsoft Visual Studio\2019\Community\VC\Tools\MSVC\14.24.28314\include\xstring
;	COMDAT ?_Xlen@?$basic_string@DU?$char_traits@D@std@@V?$allocator@D@2@@std@@CAXXZ
_TEXT	SEGMENT
?_Xlen@?$basic_string@DU?$char_traits@D@std@@V?$allocator@D@2@@std@@CAXXZ PROC ; std::basic_string<char,std::char_traits<char>,std::allocator<char> >::_Xlen, COMDAT

; 4201 :     [[noreturn]] static void _Xlen() {

  00000	55		 push	 ebp
  00001	8b ec		 mov	 ebp, esp
  00003	81 ec c0 00 00
	00		 sub	 esp, 192		; 000000c0H
  00009	53		 push	 ebx
  0000a	56		 push	 esi
  0000b	57		 push	 edi
  0000c	8d bd 40 ff ff
	ff		 lea	 edi, DWORD PTR [ebp-192]
  00012	b9 30 00 00 00	 mov	 ecx, 48			; 00000030H
  00017	b8 cc cc cc cc	 mov	 eax, -858993460		; ccccccccH
  0001c	f3 ab		 rep stosd
  0001e	b9 00 00 00 00	 mov	 ecx, OFFSET __C564DC25_xstring
  00023	e8 00 00 00 00	 call	 @__CheckForDebuggerJustMyCode@4

; 4202 :         _Xlength_error("string too long");

  00028	68 00 00 00 00	 push	 OFFSET ??_C@_0BA@JFNIOLAK@string?5too?5long@
  0002d	e8 00 00 00 00	 call	 ?_Xlength_error@std@@YAXPBD@Z ; std::_Xlength_error
$LN2@Xlen:

; 4203 :     }

  00032	5f		 pop	 edi
  00033	5e		 pop	 esi
  00034	5b		 pop	 ebx
  00035	81 c4 c0 00 00
	00		 add	 esp, 192		; 000000c0H
  0003b	3b ec		 cmp	 ebp, esp
  0003d	e8 00 00 00 00	 call	 __RTC_CheckEsp
  00042	8b e5		 mov	 esp, ebp
  00044	5d		 pop	 ebp
  00045	c3		 ret	 0
?_Xlen@?$basic_string@DU?$char_traits@D@std@@V?$allocator@D@2@@std@@CAXXZ ENDP ; std::basic_string<char,std::char_traits<char>,std::allocator<char> >::_Xlen
_TEXT	ENDS
; Function compile flags: /Odtp /RTCsu /ZI
; File C:\Program Files (x86)\Microsoft Visual Studio\2019\Community\VC\Tools\MSVC\14.24.28314\include\xstring
;	COMDAT ?_Tidy_deallocate@?$basic_string@DU?$char_traits@D@std@@V?$allocator@D@2@@std@@AAEXXZ
_TEXT	SEGMENT
$T2 = -245						; size = 1
__Al$3 = -44						; size = 4
__Ptr$4 = -32						; size = 4
_this$ = -20						; size = 4
__$EHRec$ = -12						; size = 12
?_Tidy_deallocate@?$basic_string@DU?$char_traits@D@std@@V?$allocator@D@2@@std@@AAEXXZ PROC ; std::basic_string<char,std::char_traits<char>,std::allocator<char> >::_Tidy_deallocate, COMDAT
; _this$ = ecx

; 4185 :     void _Tidy_deallocate() noexcept { // initialize buffer, deallocating any storage

  00000	55		 push	 ebp
  00001	8b ec		 mov	 ebp, esp
  00003	6a ff		 push	 -1
  00005	68 00 00 00 00	 push	 __ehhandler$?_Tidy_deallocate@?$basic_string@DU?$char_traits@D@std@@V?$allocator@D@2@@std@@AAEXXZ
  0000a	64 a1 00 00 00
	00		 mov	 eax, DWORD PTR fs:0
  00010	50		 push	 eax
  00011	81 ec f0 00 00
	00		 sub	 esp, 240		; 000000f0H
  00017	53		 push	 ebx
  00018	56		 push	 esi
  00019	57		 push	 edi
  0001a	51		 push	 ecx
  0001b	8d bd 04 ff ff
	ff		 lea	 edi, DWORD PTR [ebp-252]
  00021	b9 3c 00 00 00	 mov	 ecx, 60			; 0000003cH
  00026	b8 cc cc cc cc	 mov	 eax, -858993460		; ccccccccH
  0002b	f3 ab		 rep stosd
  0002d	59		 pop	 ecx
  0002e	a1 00 00 00 00	 mov	 eax, DWORD PTR ___security_cookie
  00033	33 c5		 xor	 eax, ebp
  00035	50		 push	 eax
  00036	8d 45 f4	 lea	 eax, DWORD PTR __$EHRec$[ebp]
  00039	64 a3 00 00 00
	00		 mov	 DWORD PTR fs:0, eax
  0003f	89 4d ec	 mov	 DWORD PTR _this$[ebp], ecx
  00042	b9 00 00 00 00	 mov	 ecx, OFFSET __C564DC25_xstring
  00047	e8 00 00 00 00	 call	 @__CheckForDebuggerJustMyCode@4

; 4186 :         _Mypair._Myval2._Orphan_all();

  0004c	8b 4d ec	 mov	 ecx, DWORD PTR _this$[ebp]
  0004f	e8 00 00 00 00	 call	 ?_Orphan_all@_Container_base12@std@@QAEXXZ ; std::_Container_base12::_Orphan_all

; 4187 :         if (_Mypair._Myval2._Large_string_engaged()) {

  00054	8b 4d ec	 mov	 ecx, DWORD PTR _this$[ebp]
  00057	e8 00 00 00 00	 call	 ?_Large_string_engaged@?$_String_val@U?$_Simple_types@D@std@@@std@@QBE_NXZ ; std::_String_val<std::_Simple_types<char> >::_Large_string_engaged
  0005c	0f b6 c0	 movzx	 eax, al
  0005f	85 c0		 test	 eax, eax
  00061	74 39		 je	 SHORT $LN2@Tidy_deall

; 4188 :             const pointer _Ptr = _Mypair._Myval2._Bx._Ptr;

  00063	8b 45 ec	 mov	 eax, DWORD PTR _this$[ebp]
  00066	8b 48 04	 mov	 ecx, DWORD PTR [eax+4]
  00069	89 4d e0	 mov	 DWORD PTR __Ptr$4[ebp], ecx

; 4189 :             auto& _Al          = _Getal();

  0006c	8b 4d ec	 mov	 ecx, DWORD PTR _this$[ebp]
  0006f	e8 00 00 00 00	 call	 ?_Getal@?$basic_string@DU?$char_traits@D@std@@V?$allocator@D@2@@std@@AAEAAV?$allocator@D@2@XZ ; std::basic_string<char,std::char_traits<char>,std::allocator<char> >::_Getal
  00074	89 45 d4	 mov	 DWORD PTR __Al$3[ebp], eax

; 4190 :             _Destroy_in_place(_Mypair._Myval2._Bx._Ptr);

  00077	8b 45 ec	 mov	 eax, DWORD PTR _this$[ebp]
  0007a	83 c0 04	 add	 eax, 4
  0007d	50		 push	 eax
  0007e	e8 00 00 00 00	 call	 ??$_Destroy_in_place@PAD@std@@YAXAAPAD@Z ; std::_Destroy_in_place<char *>
  00083	83 c4 04	 add	 esp, 4

; 4191 :             _Al.deallocate(_Ptr, _Mypair._Myval2._Myres + 1);

  00086	8b 45 ec	 mov	 eax, DWORD PTR _this$[ebp]
  00089	8b 48 18	 mov	 ecx, DWORD PTR [eax+24]
  0008c	83 c1 01	 add	 ecx, 1
  0008f	51		 push	 ecx
  00090	8b 55 e0	 mov	 edx, DWORD PTR __Ptr$4[ebp]
  00093	52		 push	 edx
  00094	8b 4d d4	 mov	 ecx, DWORD PTR __Al$3[ebp]
  00097	e8 00 00 00 00	 call	 ?deallocate@?$allocator@D@std@@QAEXQADI@Z ; std::allocator<char>::deallocate
$LN2@Tidy_deall:

; 4192 :         }
; 4193 : 
; 4194 :         _Mypair._Myval2._Mysize = 0;

  0009c	8b 45 ec	 mov	 eax, DWORD PTR _this$[ebp]
  0009f	c7 40 14 00 00
	00 00		 mov	 DWORD PTR [eax+20], 0

; 4195 :         _Mypair._Myval2._Myres  = _BUF_SIZE - 1;

  000a6	8b 45 ec	 mov	 eax, DWORD PTR _this$[ebp]
  000a9	c7 40 18 0f 00
	00 00		 mov	 DWORD PTR [eax+24], 15	; 0000000fH

; 4196 :         // the _Traits::assign is last so the codegen doesn't think the char
; 4197 :         // write can alias this
; 4198 :         _Traits::assign(_Mypair._Myval2._Bx._Buf[0], _Elem());

  000b0	c6 85 0b ff ff
	ff 00		 mov	 BYTE PTR $T2[ebp], 0
  000b7	8d 85 0b ff ff
	ff		 lea	 eax, DWORD PTR $T2[ebp]
  000bd	50		 push	 eax
  000be	b9 01 00 00 00	 mov	 ecx, 1
  000c3	6b d1 00	 imul	 edx, ecx, 0
  000c6	8b 45 ec	 mov	 eax, DWORD PTR _this$[ebp]
  000c9	8d 4c 10 04	 lea	 ecx, DWORD PTR [eax+edx+4]
  000cd	51		 push	 ecx
  000ce	e8 00 00 00 00	 call	 ?assign@?$_Narrow_char_traits@DH@std@@SAXAADABD@Z ; std::_Narrow_char_traits<char,int>::assign
  000d3	83 c4 08	 add	 esp, 8

; 4199 :     }

  000d6	8b 4d f4	 mov	 ecx, DWORD PTR __$EHRec$[ebp]
  000d9	64 89 0d 00 00
	00 00		 mov	 DWORD PTR fs:0, ecx
  000e0	59		 pop	 ecx
  000e1	5f		 pop	 edi
  000e2	5e		 pop	 esi
  000e3	5b		 pop	 ebx
  000e4	81 c4 fc 00 00
	00		 add	 esp, 252		; 000000fcH
  000ea	3b ec		 cmp	 ebp, esp
  000ec	e8 00 00 00 00	 call	 __RTC_CheckEsp
  000f1	8b e5		 mov	 esp, ebp
  000f3	5d		 pop	 ebp
  000f4	c3		 ret	 0
_TEXT	ENDS
;	COMDAT text$x
text$x	SEGMENT
__ehhandler$?_Tidy_deallocate@?$basic_string@DU?$char_traits@D@std@@V?$allocator@D@2@@std@@AAEXXZ:
  00000	8b 54 24 08	 mov	 edx, DWORD PTR [esp+8]
  00004	8d 42 0c	 lea	 eax, DWORD PTR [edx+12]
  00007	8b 8a 00 ff ff
	ff		 mov	 ecx, DWORD PTR [edx-256]
  0000d	33 c8		 xor	 ecx, eax
  0000f	e8 00 00 00 00	 call	 @__security_check_cookie@4
  00014	b8 00 00 00 00	 mov	 eax, OFFSET __ehfuncinfo$?_Tidy_deallocate@?$basic_string@DU?$char_traits@D@std@@V?$allocator@D@2@@std@@AAEXXZ
  00019	e9 00 00 00 00	 jmp	 ___CxxFrameHandler3
text$x	ENDS
?_Tidy_deallocate@?$basic_string@DU?$char_traits@D@std@@V?$allocator@D@2@@std@@AAEXXZ ENDP ; std::basic_string<char,std::char_traits<char>,std::allocator<char> >::_Tidy_deallocate
; Function compile flags: /Odtp /RTCsu /ZI
; File C:\Program Files (x86)\Microsoft Visual Studio\2019\Community\VC\Tools\MSVC\14.24.28314\include\xstring
;	COMDAT ?_Tidy_init@?$basic_string@DU?$char_traits@D@std@@V?$allocator@D@2@@std@@AAEXXZ
_TEXT	SEGMENT
$T2 = -221						; size = 1
_this$ = -20						; size = 4
__$EHRec$ = -12						; size = 12
?_Tidy_init@?$basic_string@DU?$char_traits@D@std@@V?$allocator@D@2@@std@@AAEXXZ PROC ; std::basic_string<char,std::char_traits<char>,std::allocator<char> >::_Tidy_init, COMDAT
; _this$ = ecx

; 4177 :     void _Tidy_init() noexcept { // initialize basic_string data members

  00000	55		 push	 ebp
  00001	8b ec		 mov	 ebp, esp
  00003	6a ff		 push	 -1
  00005	68 00 00 00 00	 push	 __ehhandler$?_Tidy_init@?$basic_string@DU?$char_traits@D@std@@V?$allocator@D@2@@std@@AAEXXZ
  0000a	64 a1 00 00 00
	00		 mov	 eax, DWORD PTR fs:0
  00010	50		 push	 eax
  00011	81 ec d8 00 00
	00		 sub	 esp, 216		; 000000d8H
  00017	53		 push	 ebx
  00018	56		 push	 esi
  00019	57		 push	 edi
  0001a	51		 push	 ecx
  0001b	8d bd 1c ff ff
	ff		 lea	 edi, DWORD PTR [ebp-228]
  00021	b9 36 00 00 00	 mov	 ecx, 54			; 00000036H
  00026	b8 cc cc cc cc	 mov	 eax, -858993460		; ccccccccH
  0002b	f3 ab		 rep stosd
  0002d	59		 pop	 ecx
  0002e	a1 00 00 00 00	 mov	 eax, DWORD PTR ___security_cookie
  00033	33 c5		 xor	 eax, ebp
  00035	50		 push	 eax
  00036	8d 45 f4	 lea	 eax, DWORD PTR __$EHRec$[ebp]
  00039	64 a3 00 00 00
	00		 mov	 DWORD PTR fs:0, eax
  0003f	89 4d ec	 mov	 DWORD PTR _this$[ebp], ecx
  00042	b9 00 00 00 00	 mov	 ecx, OFFSET __C564DC25_xstring
  00047	e8 00 00 00 00	 call	 @__CheckForDebuggerJustMyCode@4

; 4178 :         _Mypair._Myval2._Mysize = 0;

  0004c	8b 45 ec	 mov	 eax, DWORD PTR _this$[ebp]
  0004f	c7 40 14 00 00
	00 00		 mov	 DWORD PTR [eax+20], 0

; 4179 :         _Mypair._Myval2._Myres  = _BUF_SIZE - 1;

  00056	8b 45 ec	 mov	 eax, DWORD PTR _this$[ebp]
  00059	c7 40 18 0f 00
	00 00		 mov	 DWORD PTR [eax+24], 15	; 0000000fH

; 4180 :         // the _Traits::assign is last so the codegen doesn't think the char
; 4181 :         // write can alias this
; 4182 :         _Traits::assign(_Mypair._Myval2._Bx._Buf[0], _Elem());

  00060	c6 85 23 ff ff
	ff 00		 mov	 BYTE PTR $T2[ebp], 0
  00067	8d 85 23 ff ff
	ff		 lea	 eax, DWORD PTR $T2[ebp]
  0006d	50		 push	 eax
  0006e	b9 01 00 00 00	 mov	 ecx, 1
  00073	6b d1 00	 imul	 edx, ecx, 0
  00076	8b 45 ec	 mov	 eax, DWORD PTR _this$[ebp]
  00079	8d 4c 10 04	 lea	 ecx, DWORD PTR [eax+edx+4]
  0007d	51		 push	 ecx
  0007e	e8 00 00 00 00	 call	 ?assign@?$_Narrow_char_traits@DH@std@@SAXAADABD@Z ; std::_Narrow_char_traits<char,int>::assign
  00083	83 c4 08	 add	 esp, 8

; 4183 :     }

  00086	8b 4d f4	 mov	 ecx, DWORD PTR __$EHRec$[ebp]
  00089	64 89 0d 00 00
	00 00		 mov	 DWORD PTR fs:0, ecx
  00090	59		 pop	 ecx
  00091	5f		 pop	 edi
  00092	5e		 pop	 esi
  00093	5b		 pop	 ebx
  00094	81 c4 e4 00 00
	00		 add	 esp, 228		; 000000e4H
  0009a	3b ec		 cmp	 ebp, esp
  0009c	e8 00 00 00 00	 call	 __RTC_CheckEsp
  000a1	8b e5		 mov	 esp, ebp
  000a3	5d		 pop	 ebp
  000a4	c3		 ret	 0
_TEXT	ENDS
;	COMDAT text$x
text$x	SEGMENT
__ehhandler$?_Tidy_init@?$basic_string@DU?$char_traits@D@std@@V?$allocator@D@2@@std@@AAEXXZ:
  00000	8b 54 24 08	 mov	 edx, DWORD PTR [esp+8]
  00004	8d 42 0c	 lea	 eax, DWORD PTR [edx+12]
  00007	8b 8a 18 ff ff
	ff		 mov	 ecx, DWORD PTR [edx-232]
  0000d	33 c8		 xor	 ecx, eax
  0000f	e8 00 00 00 00	 call	 @__security_check_cookie@4
  00014	b8 00 00 00 00	 mov	 eax, OFFSET __ehfuncinfo$?_Tidy_init@?$basic_string@DU?$char_traits@D@std@@V?$allocator@D@2@@std@@AAEXXZ
  00019	e9 00 00 00 00	 jmp	 ___CxxFrameHandler3
text$x	ENDS
?_Tidy_init@?$basic_string@DU?$char_traits@D@std@@V?$allocator@D@2@@std@@AAEXXZ ENDP ; std::basic_string<char,std::char_traits<char>,std::allocator<char> >::_Tidy_init
; Function compile flags: /Odtp /RTCsu /ZI
; File C:\Program Files (x86)\Microsoft Visual Studio\2019\Community\VC\Tools\MSVC\14.24.28314\include\xstring
;	COMDAT ?_Eos@?$basic_string@DU?$char_traits@D@std@@V?$allocator@D@2@@std@@AAEXI@Z
_TEXT	SEGMENT
$T1 = -209						; size = 1
_this$ = -8						; size = 4
__Newsize$ = 8						; size = 4
?_Eos@?$basic_string@DU?$char_traits@D@std@@V?$allocator@D@2@@std@@AAEXI@Z PROC ; std::basic_string<char,std::char_traits<char>,std::allocator<char> >::_Eos, COMDAT
; _this$ = ecx

; 4173 :     void _Eos(const size_type _Newsize) { // set new length and null terminator

  00000	55		 push	 ebp
  00001	8b ec		 mov	 ebp, esp
  00003	81 ec d8 00 00
	00		 sub	 esp, 216		; 000000d8H
  00009	53		 push	 ebx
  0000a	56		 push	 esi
  0000b	57		 push	 edi
  0000c	51		 push	 ecx
  0000d	8d bd 28 ff ff
	ff		 lea	 edi, DWORD PTR [ebp-216]
  00013	b9 36 00 00 00	 mov	 ecx, 54			; 00000036H
  00018	b8 cc cc cc cc	 mov	 eax, -858993460		; ccccccccH
  0001d	f3 ab		 rep stosd
  0001f	59		 pop	 ecx
  00020	89 4d f8	 mov	 DWORD PTR _this$[ebp], ecx
  00023	b9 00 00 00 00	 mov	 ecx, OFFSET __C564DC25_xstring
  00028	e8 00 00 00 00	 call	 @__CheckForDebuggerJustMyCode@4

; 4174 :         _Traits::assign(_Mypair._Myval2._Myptr()[_Mypair._Myval2._Mysize = _Newsize], _Elem());

  0002d	c6 85 2f ff ff
	ff 00		 mov	 BYTE PTR $T1[ebp], 0
  00034	8b 45 f8	 mov	 eax, DWORD PTR _this$[ebp]
  00037	8b 4d 08	 mov	 ecx, DWORD PTR __Newsize$[ebp]
  0003a	89 48 14	 mov	 DWORD PTR [eax+20], ecx
  0003d	8d 95 2f ff ff
	ff		 lea	 edx, DWORD PTR $T1[ebp]
  00043	52		 push	 edx
  00044	8b 4d f8	 mov	 ecx, DWORD PTR _this$[ebp]
  00047	e8 00 00 00 00	 call	 ?_Myptr@?$_String_val@U?$_Simple_types@D@std@@@std@@QAEPADXZ ; std::_String_val<std::_Simple_types<char> >::_Myptr
  0004c	03 45 08	 add	 eax, DWORD PTR __Newsize$[ebp]
  0004f	50		 push	 eax
  00050	e8 00 00 00 00	 call	 ?assign@?$_Narrow_char_traits@DH@std@@SAXAADABD@Z ; std::_Narrow_char_traits<char,int>::assign
  00055	83 c4 08	 add	 esp, 8

; 4175 :     }

  00058	5f		 pop	 edi
  00059	5e		 pop	 esi
  0005a	5b		 pop	 ebx
  0005b	81 c4 d8 00 00
	00		 add	 esp, 216		; 000000d8H
  00061	3b ec		 cmp	 ebp, esp
  00063	e8 00 00 00 00	 call	 __RTC_CheckEsp
  00068	8b e5		 mov	 esp, ebp
  0006a	5d		 pop	 ebp
  0006b	c2 04 00	 ret	 4
?_Eos@?$basic_string@DU?$char_traits@D@std@@V?$allocator@D@2@@std@@AAEXI@Z ENDP ; std::basic_string<char,std::char_traits<char>,std::allocator<char> >::_Eos
_TEXT	ENDS
; Function compile flags: /Odtp /RTCsu /ZI
; File C:\Program Files (x86)\Microsoft Visual Studio\2019\Community\VC\Tools\MSVC\14.24.28314\include\xstring
;	COMDAT ?_Calculate_growth@?$basic_string@DU?$char_traits@D@std@@V?$allocator@D@2@@std@@ABEII@Z
_TEXT	SEGMENT
_this$ = -20						; size = 4
__$EHRec$ = -12						; size = 12
__Requested$ = 8					; size = 4
?_Calculate_growth@?$basic_string@DU?$char_traits@D@std@@V?$allocator@D@2@@std@@ABEII@Z PROC ; std::basic_string<char,std::char_traits<char>,std::allocator<char> >::_Calculate_growth, COMDAT
; _this$ = ecx

; 4098 :     _NODISCARD size_type _Calculate_growth(const size_type _Requested) const noexcept {

  00000	55		 push	 ebp
  00001	8b ec		 mov	 ebp, esp
  00003	6a ff		 push	 -1
  00005	68 00 00 00 00	 push	 __ehhandler$?_Calculate_growth@?$basic_string@DU?$char_traits@D@std@@V?$allocator@D@2@@std@@ABEII@Z
  0000a	64 a1 00 00 00
	00		 mov	 eax, DWORD PTR fs:0
  00010	50		 push	 eax
  00011	81 ec cc 00 00
	00		 sub	 esp, 204		; 000000ccH
  00017	53		 push	 ebx
  00018	56		 push	 esi
  00019	57		 push	 edi
  0001a	51		 push	 ecx
  0001b	8d bd 28 ff ff
	ff		 lea	 edi, DWORD PTR [ebp-216]
  00021	b9 33 00 00 00	 mov	 ecx, 51			; 00000033H
  00026	b8 cc cc cc cc	 mov	 eax, -858993460		; ccccccccH
  0002b	f3 ab		 rep stosd
  0002d	59		 pop	 ecx
  0002e	a1 00 00 00 00	 mov	 eax, DWORD PTR ___security_cookie
  00033	33 c5		 xor	 eax, ebp
  00035	50		 push	 eax
  00036	8d 45 f4	 lea	 eax, DWORD PTR __$EHRec$[ebp]
  00039	64 a3 00 00 00
	00		 mov	 DWORD PTR fs:0, eax
  0003f	89 4d ec	 mov	 DWORD PTR _this$[ebp], ecx
  00042	b9 00 00 00 00	 mov	 ecx, OFFSET __C564DC25_xstring
  00047	e8 00 00 00 00	 call	 @__CheckForDebuggerJustMyCode@4

; 4099 :         return _Calculate_growth(_Requested, _Mypair._Myval2._Myres, max_size());

  0004c	8b 4d ec	 mov	 ecx, DWORD PTR _this$[ebp]
  0004f	e8 00 00 00 00	 call	 ?max_size@?$basic_string@DU?$char_traits@D@std@@V?$allocator@D@2@@std@@QBEIXZ ; std::basic_string<char,std::char_traits<char>,std::allocator<char> >::max_size
  00054	50		 push	 eax
  00055	8b 45 ec	 mov	 eax, DWORD PTR _this$[ebp]
  00058	8b 48 18	 mov	 ecx, DWORD PTR [eax+24]
  0005b	51		 push	 ecx
  0005c	8b 55 08	 mov	 edx, DWORD PTR __Requested$[ebp]
  0005f	52		 push	 edx
  00060	e8 00 00 00 00	 call	 ?_Calculate_growth@?$basic_string@DU?$char_traits@D@std@@V?$allocator@D@2@@std@@CAIIII@Z ; std::basic_string<char,std::char_traits<char>,std::allocator<char> >::_Calculate_growth
  00065	83 c4 0c	 add	 esp, 12			; 0000000cH

; 4100 :     }

  00068	8b 4d f4	 mov	 ecx, DWORD PTR __$EHRec$[ebp]
  0006b	64 89 0d 00 00
	00 00		 mov	 DWORD PTR fs:0, ecx
  00072	59		 pop	 ecx
  00073	5f		 pop	 edi
  00074	5e		 pop	 esi
  00075	5b		 pop	 ebx
  00076	81 c4 d8 00 00
	00		 add	 esp, 216		; 000000d8H
  0007c	3b ec		 cmp	 ebp, esp
  0007e	e8 00 00 00 00	 call	 __RTC_CheckEsp
  00083	8b e5		 mov	 esp, ebp
  00085	5d		 pop	 ebp
  00086	c2 04 00	 ret	 4
_TEXT	ENDS
;	COMDAT text$x
text$x	SEGMENT
__ehhandler$?_Calculate_growth@?$basic_string@DU?$char_traits@D@std@@V?$allocator@D@2@@std@@ABEII@Z:
  00000	8b 54 24 08	 mov	 edx, DWORD PTR [esp+8]
  00004	8d 42 0c	 lea	 eax, DWORD PTR [edx+12]
  00007	8b 8a 24 ff ff
	ff		 mov	 ecx, DWORD PTR [edx-220]
  0000d	33 c8		 xor	 ecx, eax
  0000f	e8 00 00 00 00	 call	 @__security_check_cookie@4
  00014	b8 00 00 00 00	 mov	 eax, OFFSET __ehfuncinfo$?_Calculate_growth@?$basic_string@DU?$char_traits@D@std@@V?$allocator@D@2@@std@@ABEII@Z
  00019	e9 00 00 00 00	 jmp	 ___CxxFrameHandler3
text$x	ENDS
?_Calculate_growth@?$basic_string@DU?$char_traits@D@std@@V?$allocator@D@2@@std@@ABEII@Z ENDP ; std::basic_string<char,std::char_traits<char>,std::allocator<char> >::_Calculate_growth
; Function compile flags: /Odtp /RTCsu /ZI
; File C:\Program Files (x86)\Microsoft Visual Studio\2019\Community\VC\Tools\MSVC\14.24.28314\include\xstring
;	COMDAT ?_Calculate_growth@?$basic_string@DU?$char_traits@D@std@@V?$allocator@D@2@@std@@CAIIII@Z
_TEXT	SEGMENT
$T2 = -228						; size = 4
__Masked$ = -24						; size = 4
__$ArrayPad$ = -16					; size = 4
__$EHRec$ = -12						; size = 12
__Requested$ = 8					; size = 4
__Old$ = 12						; size = 4
__Max$ = 16						; size = 4
?_Calculate_growth@?$basic_string@DU?$char_traits@D@std@@V?$allocator@D@2@@std@@CAIIII@Z PROC ; std::basic_string<char,std::char_traits<char>,std::allocator<char> >::_Calculate_growth, COMDAT

; 4085 :         const size_type _Requested, const size_type _Old, const size_type _Max) noexcept {

  00000	55		 push	 ebp
  00001	8b ec		 mov	 ebp, esp
  00003	6a ff		 push	 -1
  00005	68 00 00 00 00	 push	 __ehhandler$?_Calculate_growth@?$basic_string@DU?$char_traits@D@std@@V?$allocator@D@2@@std@@CAIIII@Z
  0000a	64 a1 00 00 00
	00		 mov	 eax, DWORD PTR fs:0
  00010	50		 push	 eax
  00011	81 ec dc 00 00
	00		 sub	 esp, 220		; 000000dcH
  00017	53		 push	 ebx
  00018	56		 push	 esi
  00019	57		 push	 edi
  0001a	8d bd 18 ff ff
	ff		 lea	 edi, DWORD PTR [ebp-232]
  00020	b9 37 00 00 00	 mov	 ecx, 55			; 00000037H
  00025	b8 cc cc cc cc	 mov	 eax, -858993460		; ccccccccH
  0002a	f3 ab		 rep stosd
  0002c	a1 00 00 00 00	 mov	 eax, DWORD PTR ___security_cookie
  00031	33 c5		 xor	 eax, ebp
  00033	89 45 f0	 mov	 DWORD PTR __$ArrayPad$[ebp], eax
  00036	50		 push	 eax
  00037	8d 45 f4	 lea	 eax, DWORD PTR __$EHRec$[ebp]
  0003a	64 a3 00 00 00
	00		 mov	 DWORD PTR fs:0, eax
  00040	b9 00 00 00 00	 mov	 ecx, OFFSET __C564DC25_xstring
  00045	e8 00 00 00 00	 call	 @__CheckForDebuggerJustMyCode@4

; 4086 :         const size_type _Masked = _Requested | _ALLOC_MASK;

  0004a	8b 45 08	 mov	 eax, DWORD PTR __Requested$[ebp]
  0004d	83 c8 0f	 or	 eax, 15			; 0000000fH
  00050	89 45 e8	 mov	 DWORD PTR __Masked$[ebp], eax

; 4087 :         if (_Masked > _Max) { // the mask overflows, settle for max_size()

  00053	8b 45 e8	 mov	 eax, DWORD PTR __Masked$[ebp]
  00056	3b 45 10	 cmp	 eax, DWORD PTR __Max$[ebp]
  00059	76 05		 jbe	 SHORT $LN2@Calculate_

; 4088 :             return _Max;

  0005b	8b 45 10	 mov	 eax, DWORD PTR __Max$[ebp]
  0005e	eb 37		 jmp	 SHORT $LN4@Calculate_
$LN2@Calculate_:

; 4089 :         }
; 4090 : 
; 4091 :         if (_Old > _Max - _Old / 2) { // similarly, geometric overflows

  00060	8b 45 0c	 mov	 eax, DWORD PTR __Old$[ebp]
  00063	d1 e8		 shr	 eax, 1
  00065	8b 4d 10	 mov	 ecx, DWORD PTR __Max$[ebp]
  00068	2b c8		 sub	 ecx, eax
  0006a	39 4d 0c	 cmp	 DWORD PTR __Old$[ebp], ecx
  0006d	76 05		 jbe	 SHORT $LN3@Calculate_

; 4092 :             return _Max;

  0006f	8b 45 10	 mov	 eax, DWORD PTR __Max$[ebp]
  00072	eb 23		 jmp	 SHORT $LN4@Calculate_
$LN3@Calculate_:

; 4093 :         }
; 4094 : 
; 4095 :         return _Max_value(_Masked, _Old + _Old / 2);

  00074	8b 45 0c	 mov	 eax, DWORD PTR __Old$[ebp]
  00077	d1 e8		 shr	 eax, 1
  00079	03 45 0c	 add	 eax, DWORD PTR __Old$[ebp]
  0007c	89 85 1c ff ff
	ff		 mov	 DWORD PTR $T2[ebp], eax
  00082	8d 8d 1c ff ff
	ff		 lea	 ecx, DWORD PTR $T2[ebp]
  00088	51		 push	 ecx
  00089	8d 55 e8	 lea	 edx, DWORD PTR __Masked$[ebp]
  0008c	52		 push	 edx
  0008d	e8 00 00 00 00	 call	 ??$_Max_value@I@std@@YAABIABI0@Z ; std::_Max_value<unsigned int>
  00092	83 c4 08	 add	 esp, 8
  00095	8b 00		 mov	 eax, DWORD PTR [eax]
$LN4@Calculate_:

; 4096 :     }

  00097	52		 push	 edx
  00098	8b cd		 mov	 ecx, ebp
  0009a	50		 push	 eax
  0009b	8d 15 00 00 00
	00		 lea	 edx, DWORD PTR $LN8@Calculate_
  000a1	e8 00 00 00 00	 call	 @_RTC_CheckStackVars@8
  000a6	58		 pop	 eax
  000a7	5a		 pop	 edx
  000a8	8b 4d f4	 mov	 ecx, DWORD PTR __$EHRec$[ebp]
  000ab	64 89 0d 00 00
	00 00		 mov	 DWORD PTR fs:0, ecx
  000b2	59		 pop	 ecx
  000b3	5f		 pop	 edi
  000b4	5e		 pop	 esi
  000b5	5b		 pop	 ebx
  000b6	8b 4d f0	 mov	 ecx, DWORD PTR __$ArrayPad$[ebp]
  000b9	33 cd		 xor	 ecx, ebp
  000bb	e8 00 00 00 00	 call	 @__security_check_cookie@4
  000c0	81 c4 e8 00 00
	00		 add	 esp, 232		; 000000e8H
  000c6	3b ec		 cmp	 ebp, esp
  000c8	e8 00 00 00 00	 call	 __RTC_CheckEsp
  000cd	8b e5		 mov	 esp, ebp
  000cf	5d		 pop	 ebp
  000d0	c3		 ret	 0
  000d1	0f 1f 00	 npad	 3
$LN8@Calculate_:
  000d4	01 00 00 00	 DD	 1
  000d8	00 00 00 00	 DD	 $LN7@Calculate_
$LN7@Calculate_:
  000dc	e8 ff ff ff	 DD	 -24			; ffffffe8H
  000e0	04 00 00 00	 DD	 4
  000e4	00 00 00 00	 DD	 $LN5@Calculate_
$LN5@Calculate_:
  000e8	5f		 DB	 95			; 0000005fH
  000e9	4d		 DB	 77			; 0000004dH
  000ea	61		 DB	 97			; 00000061H
  000eb	73		 DB	 115			; 00000073H
  000ec	6b		 DB	 107			; 0000006bH
  000ed	65		 DB	 101			; 00000065H
  000ee	64		 DB	 100			; 00000064H
  000ef	00		 DB	 0
_TEXT	ENDS
;	COMDAT text$x
text$x	SEGMENT
__ehhandler$?_Calculate_growth@?$basic_string@DU?$char_traits@D@std@@V?$allocator@D@2@@std@@CAIIII@Z:
  00000	8b 54 24 08	 mov	 edx, DWORD PTR [esp+8]
  00004	8d 42 0c	 lea	 eax, DWORD PTR [edx+12]
  00007	8b 8a 14 ff ff
	ff		 mov	 ecx, DWORD PTR [edx-236]
  0000d	33 c8		 xor	 ecx, eax
  0000f	e8 00 00 00 00	 call	 @__security_check_cookie@4
  00014	8b 4a fc	 mov	 ecx, DWORD PTR [edx-4]
  00017	33 c8		 xor	 ecx, eax
  00019	e8 00 00 00 00	 call	 @__security_check_cookie@4
  0001e	b8 00 00 00 00	 mov	 eax, OFFSET __ehfuncinfo$?_Calculate_growth@?$basic_string@DU?$char_traits@D@std@@V?$allocator@D@2@@std@@CAIIII@Z
  00023	e9 00 00 00 00	 jmp	 ___CxxFrameHandler3
text$x	ENDS
?_Calculate_growth@?$basic_string@DU?$char_traits@D@std@@V?$allocator@D@2@@std@@CAIIII@Z ENDP ; std::basic_string<char,std::char_traits<char>,std::allocator<char> >::_Calculate_growth
; Function compile flags: /Odtp /RTCsu /ZI
; File C:\Program Files (x86)\Microsoft Visual Studio\2019\Community\VC\Tools\MSVC\14.24.28314\include\xstring
;	COMDAT ?get_allocator@?$basic_string@DU?$char_traits@D@std@@V?$allocator@D@2@@std@@QBE?AV?$allocator@D@2@XZ
_TEXT	SEGMENT
_this$ = -20						; size = 4
__$EHRec$ = -12						; size = 12
___$ReturnUdt$ = 8					; size = 4
?get_allocator@?$basic_string@DU?$char_traits@D@std@@V?$allocator@D@2@@std@@QBE?AV?$allocator@D@2@XZ PROC ; std::basic_string<char,std::char_traits<char>,std::allocator<char> >::get_allocator, COMDAT
; _this$ = ecx

; 4079 :     _NODISCARD allocator_type get_allocator() const noexcept {

  00000	55		 push	 ebp
  00001	8b ec		 mov	 ebp, esp
  00003	6a ff		 push	 -1
  00005	68 00 00 00 00	 push	 __ehhandler$?get_allocator@?$basic_string@DU?$char_traits@D@std@@V?$allocator@D@2@@std@@QBE?AV?$allocator@D@2@XZ
  0000a	64 a1 00 00 00
	00		 mov	 eax, DWORD PTR fs:0
  00010	50		 push	 eax
  00011	81 ec d8 00 00
	00		 sub	 esp, 216		; 000000d8H
  00017	53		 push	 ebx
  00018	56		 push	 esi
  00019	57		 push	 edi
  0001a	51		 push	 ecx
  0001b	8d bd 1c ff ff
	ff		 lea	 edi, DWORD PTR [ebp-228]
  00021	b9 36 00 00 00	 mov	 ecx, 54			; 00000036H
  00026	b8 cc cc cc cc	 mov	 eax, -858993460		; ccccccccH
  0002b	f3 ab		 rep stosd
  0002d	59		 pop	 ecx
  0002e	a1 00 00 00 00	 mov	 eax, DWORD PTR ___security_cookie
  00033	33 c5		 xor	 eax, ebp
  00035	50		 push	 eax
  00036	8d 45 f4	 lea	 eax, DWORD PTR __$EHRec$[ebp]
  00039	64 a3 00 00 00
	00		 mov	 DWORD PTR fs:0, eax
  0003f	89 4d ec	 mov	 DWORD PTR _this$[ebp], ecx
  00042	b9 00 00 00 00	 mov	 ecx, OFFSET __C564DC25_xstring
  00047	e8 00 00 00 00	 call	 @__CheckForDebuggerJustMyCode@4

; 4080 :         return static_cast<allocator_type>(_Getal());

  0004c	8b 4d ec	 mov	 ecx, DWORD PTR _this$[ebp]
  0004f	e8 00 00 00 00	 call	 ?_Getal@?$basic_string@DU?$char_traits@D@std@@V?$allocator@D@2@@std@@ABEABV?$allocator@D@2@XZ ; std::basic_string<char,std::char_traits<char>,std::allocator<char> >::_Getal
  00054	8b 45 08	 mov	 eax, DWORD PTR ___$ReturnUdt$[ebp]

; 4081 :     }

  00057	8b 4d f4	 mov	 ecx, DWORD PTR __$EHRec$[ebp]
  0005a	64 89 0d 00 00
	00 00		 mov	 DWORD PTR fs:0, ecx
  00061	59		 pop	 ecx
  00062	5f		 pop	 edi
  00063	5e		 pop	 esi
  00064	5b		 pop	 ebx
  00065	81 c4 e4 00 00
	00		 add	 esp, 228		; 000000e4H
  0006b	3b ec		 cmp	 ebp, esp
  0006d	e8 00 00 00 00	 call	 __RTC_CheckEsp
  00072	8b e5		 mov	 esp, ebp
  00074	5d		 pop	 ebp
  00075	c2 04 00	 ret	 4
_TEXT	ENDS
;	COMDAT text$x
text$x	SEGMENT
__ehhandler$?get_allocator@?$basic_string@DU?$char_traits@D@std@@V?$allocator@D@2@@std@@QBE?AV?$allocator@D@2@XZ:
  00000	8b 54 24 08	 mov	 edx, DWORD PTR [esp+8]
  00004	8d 42 0c	 lea	 eax, DWORD PTR [edx+12]
  00007	8b 8a 18 ff ff
	ff		 mov	 ecx, DWORD PTR [edx-232]
  0000d	33 c8		 xor	 ecx, eax
  0000f	e8 00 00 00 00	 call	 @__security_check_cookie@4
  00014	b8 00 00 00 00	 mov	 eax, OFFSET __ehfuncinfo$?get_allocator@?$basic_string@DU?$char_traits@D@std@@V?$allocator@D@2@@std@@QBE?AV?$allocator@D@2@XZ
  00019	e9 00 00 00 00	 jmp	 ___CxxFrameHandler3
text$x	ENDS
?get_allocator@?$basic_string@DU?$char_traits@D@std@@V?$allocator@D@2@@std@@QBE?AV?$allocator@D@2@XZ ENDP ; std::basic_string<char,std::char_traits<char>,std::allocator<char> >::get_allocator
; Function compile flags: /Odtp /RTCsu /ZI
; File C:\Program Files (x86)\Microsoft Visual Studio\2019\Community\VC\Tools\MSVC\14.24.28314\include\xstring
;	COMDAT ?max_size@?$basic_string@DU?$char_traits@D@std@@V?$allocator@D@2@@std@@QBEIXZ
_TEXT	SEGMENT
$T2 = -276						; size = 4
$T3 = -264						; size = 4
$T4 = -252						; size = 4
__Storage_max$ = -48					; size = 4
__Alloc_max$ = -36					; size = 4
_this$ = -24						; size = 4
__$ArrayPad$ = -16					; size = 4
__$EHRec$ = -12						; size = 12
?max_size@?$basic_string@DU?$char_traits@D@std@@V?$allocator@D@2@@std@@QBEIXZ PROC ; std::basic_string<char,std::char_traits<char>,std::allocator<char> >::max_size, COMDAT
; _this$ = ecx

; 3596 :     _NODISCARD size_type max_size() const noexcept {

  00000	55		 push	 ebp
  00001	8b ec		 mov	 ebp, esp
  00003	6a ff		 push	 -1
  00005	68 00 00 00 00	 push	 __ehhandler$?max_size@?$basic_string@DU?$char_traits@D@std@@V?$allocator@D@2@@std@@QBEIXZ
  0000a	64 a1 00 00 00
	00		 mov	 eax, DWORD PTR fs:0
  00010	50		 push	 eax
  00011	81 ec 0c 01 00
	00		 sub	 esp, 268		; 0000010cH
  00017	53		 push	 ebx
  00018	56		 push	 esi
  00019	57		 push	 edi
  0001a	51		 push	 ecx
  0001b	8d bd e8 fe ff
	ff		 lea	 edi, DWORD PTR [ebp-280]
  00021	b9 43 00 00 00	 mov	 ecx, 67			; 00000043H
  00026	b8 cc cc cc cc	 mov	 eax, -858993460		; ccccccccH
  0002b	f3 ab		 rep stosd
  0002d	59		 pop	 ecx
  0002e	a1 00 00 00 00	 mov	 eax, DWORD PTR ___security_cookie
  00033	33 c5		 xor	 eax, ebp
  00035	89 45 f0	 mov	 DWORD PTR __$ArrayPad$[ebp], eax
  00038	50		 push	 eax
  00039	8d 45 f4	 lea	 eax, DWORD PTR __$EHRec$[ebp]
  0003c	64 a3 00 00 00
	00		 mov	 DWORD PTR fs:0, eax
  00042	89 4d e8	 mov	 DWORD PTR _this$[ebp], ecx
  00045	b9 00 00 00 00	 mov	 ecx, OFFSET __C564DC25_xstring
  0004a	e8 00 00 00 00	 call	 @__CheckForDebuggerJustMyCode@4

; 3597 :         const size_type _Alloc_max   = _Alty_traits::max_size(_Getal());

  0004f	8b 4d e8	 mov	 ecx, DWORD PTR _this$[ebp]
  00052	e8 00 00 00 00	 call	 ?_Getal@?$basic_string@DU?$char_traits@D@std@@V?$allocator@D@2@@std@@ABEABV?$allocator@D@2@XZ ; std::basic_string<char,std::char_traits<char>,std::allocator<char> >::_Getal
  00057	50		 push	 eax
  00058	e8 00 00 00 00	 call	 ?max_size@?$_Default_allocator_traits@V?$allocator@D@std@@@std@@SAIABV?$allocator@D@2@@Z ; std::_Default_allocator_traits<std::allocator<char> >::max_size
  0005d	83 c4 04	 add	 esp, 4
  00060	89 45 dc	 mov	 DWORD PTR __Alloc_max$[ebp], eax

; 3598 :         const size_type _Storage_max = // can always store small string

  00063	c7 85 04 ff ff
	ff 10 00 00 00	 mov	 DWORD PTR $T4[ebp], 16	; 00000010H
  0006d	8d 85 04 ff ff
	ff		 lea	 eax, DWORD PTR $T4[ebp]
  00073	50		 push	 eax
  00074	8d 4d dc	 lea	 ecx, DWORD PTR __Alloc_max$[ebp]
  00077	51		 push	 ecx
  00078	e8 00 00 00 00	 call	 ??$_Max_value@I@std@@YAABIABI0@Z ; std::_Max_value<unsigned int>
  0007d	83 c4 08	 add	 esp, 8
  00080	8b 10		 mov	 edx, DWORD PTR [eax]
  00082	89 55 d0	 mov	 DWORD PTR __Storage_max$[ebp], edx

; 3599 :             _Max_value(_Alloc_max, static_cast<size_type>(_BUF_SIZE));
; 3600 :         return _Min_value(static_cast<size_type>((numeric_limits<difference_type>::max)()),

  00085	8b 45 d0	 mov	 eax, DWORD PTR __Storage_max$[ebp]
  00088	83 e8 01	 sub	 eax, 1
  0008b	89 85 f8 fe ff
	ff		 mov	 DWORD PTR $T3[ebp], eax
  00091	e8 00 00 00 00	 call	 ?max@?$numeric_limits@H@std@@SAHXZ ; std::numeric_limits<int>::max
  00096	89 85 ec fe ff
	ff		 mov	 DWORD PTR $T2[ebp], eax
  0009c	8d 8d f8 fe ff
	ff		 lea	 ecx, DWORD PTR $T3[ebp]
  000a2	51		 push	 ecx
  000a3	8d 95 ec fe ff
	ff		 lea	 edx, DWORD PTR $T2[ebp]
  000a9	52		 push	 edx
  000aa	e8 00 00 00 00	 call	 ??$_Min_value@I@std@@YAABIABI0@Z ; std::_Min_value<unsigned int>
  000af	83 c4 08	 add	 esp, 8
  000b2	8b 00		 mov	 eax, DWORD PTR [eax]

; 3601 :             _Storage_max - 1 // -1 is for null terminator and/or npos
; 3602 :         );
; 3603 :     }

  000b4	52		 push	 edx
  000b5	8b cd		 mov	 ecx, ebp
  000b7	50		 push	 eax
  000b8	8d 15 00 00 00
	00		 lea	 edx, DWORD PTR $LN6@max_size
  000be	e8 00 00 00 00	 call	 @_RTC_CheckStackVars@8
  000c3	58		 pop	 eax
  000c4	5a		 pop	 edx
  000c5	8b 4d f4	 mov	 ecx, DWORD PTR __$EHRec$[ebp]
  000c8	64 89 0d 00 00
	00 00		 mov	 DWORD PTR fs:0, ecx
  000cf	59		 pop	 ecx
  000d0	5f		 pop	 edi
  000d1	5e		 pop	 esi
  000d2	5b		 pop	 ebx
  000d3	8b 4d f0	 mov	 ecx, DWORD PTR __$ArrayPad$[ebp]
  000d6	33 cd		 xor	 ecx, ebp
  000d8	e8 00 00 00 00	 call	 @__security_check_cookie@4
  000dd	81 c4 18 01 00
	00		 add	 esp, 280		; 00000118H
  000e3	3b ec		 cmp	 ebp, esp
  000e5	e8 00 00 00 00	 call	 __RTC_CheckEsp
  000ea	8b e5		 mov	 esp, ebp
  000ec	5d		 pop	 ebp
  000ed	c3		 ret	 0
  000ee	66 90		 npad	 2
$LN6@max_size:
  000f0	01 00 00 00	 DD	 1
  000f4	00 00 00 00	 DD	 $LN5@max_size
$LN5@max_size:
  000f8	dc ff ff ff	 DD	 -36			; ffffffdcH
  000fc	04 00 00 00	 DD	 4
  00100	00 00 00 00	 DD	 $LN3@max_size
$LN3@max_size:
  00104	5f		 DB	 95			; 0000005fH
  00105	41		 DB	 65			; 00000041H
  00106	6c		 DB	 108			; 0000006cH
  00107	6c		 DB	 108			; 0000006cH
  00108	6f		 DB	 111			; 0000006fH
  00109	63		 DB	 99			; 00000063H
  0010a	5f		 DB	 95			; 0000005fH
  0010b	6d		 DB	 109			; 0000006dH
  0010c	61		 DB	 97			; 00000061H
  0010d	78		 DB	 120			; 00000078H
  0010e	00		 DB	 0
_TEXT	ENDS
;	COMDAT text$x
text$x	SEGMENT
__ehhandler$?max_size@?$basic_string@DU?$char_traits@D@std@@V?$allocator@D@2@@std@@QBEIXZ:
  00000	8b 54 24 08	 mov	 edx, DWORD PTR [esp+8]
  00004	8d 42 0c	 lea	 eax, DWORD PTR [edx+12]
  00007	8b 8a e4 fe ff
	ff		 mov	 ecx, DWORD PTR [edx-284]
  0000d	33 c8		 xor	 ecx, eax
  0000f	e8 00 00 00 00	 call	 @__security_check_cookie@4
  00014	8b 4a fc	 mov	 ecx, DWORD PTR [edx-4]
  00017	33 c8		 xor	 ecx, eax
  00019	e8 00 00 00 00	 call	 @__security_check_cookie@4
  0001e	b8 00 00 00 00	 mov	 eax, OFFSET __ehfuncinfo$?max_size@?$basic_string@DU?$char_traits@D@std@@V?$allocator@D@2@@std@@QBEIXZ
  00023	e9 00 00 00 00	 jmp	 ___CxxFrameHandler3
text$x	ENDS
?max_size@?$basic_string@DU?$char_traits@D@std@@V?$allocator@D@2@@std@@QBEIXZ ENDP ; std::basic_string<char,std::char_traits<char>,std::allocator<char> >::max_size
; Function compile flags: /Odtp /RTCsu /ZI
; File C:\Program Files (x86)\Microsoft Visual Studio\2019\Community\VC\Tools\MSVC\14.24.28314\include\xstring
;	COMDAT ?size@?$basic_string@DU?$char_traits@D@std@@V?$allocator@D@2@@std@@QBEIXZ
_TEXT	SEGMENT
_this$ = -20						; size = 4
__$EHRec$ = -12						; size = 12
?size@?$basic_string@DU?$char_traits@D@std@@V?$allocator@D@2@@std@@QBEIXZ PROC ; std::basic_string<char,std::char_traits<char>,std::allocator<char> >::size, COMDAT
; _this$ = ecx

; 3592 :     _NODISCARD size_type size() const noexcept {

  00000	55		 push	 ebp
  00001	8b ec		 mov	 ebp, esp
  00003	6a ff		 push	 -1
  00005	68 00 00 00 00	 push	 __ehhandler$?size@?$basic_string@DU?$char_traits@D@std@@V?$allocator@D@2@@std@@QBEIXZ
  0000a	64 a1 00 00 00
	00		 mov	 eax, DWORD PTR fs:0
  00010	50		 push	 eax
  00011	81 ec cc 00 00
	00		 sub	 esp, 204		; 000000ccH
  00017	53		 push	 ebx
  00018	56		 push	 esi
  00019	57		 push	 edi
  0001a	51		 push	 ecx
  0001b	8d bd 28 ff ff
	ff		 lea	 edi, DWORD PTR [ebp-216]
  00021	b9 33 00 00 00	 mov	 ecx, 51			; 00000033H
  00026	b8 cc cc cc cc	 mov	 eax, -858993460		; ccccccccH
  0002b	f3 ab		 rep stosd
  0002d	59		 pop	 ecx
  0002e	a1 00 00 00 00	 mov	 eax, DWORD PTR ___security_cookie
  00033	33 c5		 xor	 eax, ebp
  00035	50		 push	 eax
  00036	8d 45 f4	 lea	 eax, DWORD PTR __$EHRec$[ebp]
  00039	64 a3 00 00 00
	00		 mov	 DWORD PTR fs:0, eax
  0003f	89 4d ec	 mov	 DWORD PTR _this$[ebp], ecx
  00042	b9 00 00 00 00	 mov	 ecx, OFFSET __C564DC25_xstring
  00047	e8 00 00 00 00	 call	 @__CheckForDebuggerJustMyCode@4

; 3593 :         return _Mypair._Myval2._Mysize;

  0004c	8b 45 ec	 mov	 eax, DWORD PTR _this$[ebp]
  0004f	8b 40 14	 mov	 eax, DWORD PTR [eax+20]

; 3594 :     }

  00052	8b 4d f4	 mov	 ecx, DWORD PTR __$EHRec$[ebp]
  00055	64 89 0d 00 00
	00 00		 mov	 DWORD PTR fs:0, ecx
  0005c	59		 pop	 ecx
  0005d	5f		 pop	 edi
  0005e	5e		 pop	 esi
  0005f	5b		 pop	 ebx
  00060	81 c4 d8 00 00
	00		 add	 esp, 216		; 000000d8H
  00066	3b ec		 cmp	 ebp, esp
  00068	e8 00 00 00 00	 call	 __RTC_CheckEsp
  0006d	8b e5		 mov	 esp, ebp
  0006f	5d		 pop	 ebp
  00070	c3		 ret	 0
_TEXT	ENDS
;	COMDAT text$x
text$x	SEGMENT
__ehhandler$?size@?$basic_string@DU?$char_traits@D@std@@V?$allocator@D@2@@std@@QBEIXZ:
  00000	8b 54 24 08	 mov	 edx, DWORD PTR [esp+8]
  00004	8d 42 0c	 lea	 eax, DWORD PTR [edx+12]
  00007	8b 8a 24 ff ff
	ff		 mov	 ecx, DWORD PTR [edx-220]
  0000d	33 c8		 xor	 ecx, eax
  0000f	e8 00 00 00 00	 call	 @__security_check_cookie@4
  00014	b8 00 00 00 00	 mov	 eax, OFFSET __ehfuncinfo$?size@?$basic_string@DU?$char_traits@D@std@@V?$allocator@D@2@@std@@QBEIXZ
  00019	e9 00 00 00 00	 jmp	 ___CxxFrameHandler3
text$x	ENDS
?size@?$basic_string@DU?$char_traits@D@std@@V?$allocator@D@2@@std@@QBEIXZ ENDP ; std::basic_string<char,std::char_traits<char>,std::allocator<char> >::size
; Function compile flags: /Odtp /RTCsu /ZI
; File C:\Program Files (x86)\Microsoft Visual Studio\2019\Community\VC\Tools\MSVC\14.24.28314\include\xstring
;	COMDAT ?c_str@?$basic_string@DU?$char_traits@D@std@@V?$allocator@D@2@@std@@QBEPBDXZ
_TEXT	SEGMENT
_this$ = -20						; size = 4
__$EHRec$ = -12						; size = 12
?c_str@?$basic_string@DU?$char_traits@D@std@@V?$allocator@D@2@@std@@QBEPBDXZ PROC ; std::basic_string<char,std::char_traits<char>,std::allocator<char> >::c_str, COMDAT
; _this$ = ecx

; 3574 :     _NODISCARD _Ret_z_ const _Elem* c_str() const noexcept {

  00000	55		 push	 ebp
  00001	8b ec		 mov	 ebp, esp
  00003	6a ff		 push	 -1
  00005	68 00 00 00 00	 push	 __ehhandler$?c_str@?$basic_string@DU?$char_traits@D@std@@V?$allocator@D@2@@std@@QBEPBDXZ
  0000a	64 a1 00 00 00
	00		 mov	 eax, DWORD PTR fs:0
  00010	50		 push	 eax
  00011	81 ec cc 00 00
	00		 sub	 esp, 204		; 000000ccH
  00017	53		 push	 ebx
  00018	56		 push	 esi
  00019	57		 push	 edi
  0001a	51		 push	 ecx
  0001b	8d bd 28 ff ff
	ff		 lea	 edi, DWORD PTR [ebp-216]
  00021	b9 33 00 00 00	 mov	 ecx, 51			; 00000033H
  00026	b8 cc cc cc cc	 mov	 eax, -858993460		; ccccccccH
  0002b	f3 ab		 rep stosd
  0002d	59		 pop	 ecx
  0002e	a1 00 00 00 00	 mov	 eax, DWORD PTR ___security_cookie
  00033	33 c5		 xor	 eax, ebp
  00035	50		 push	 eax
  00036	8d 45 f4	 lea	 eax, DWORD PTR __$EHRec$[ebp]
  00039	64 a3 00 00 00
	00		 mov	 DWORD PTR fs:0, eax
  0003f	89 4d ec	 mov	 DWORD PTR _this$[ebp], ecx
  00042	b9 00 00 00 00	 mov	 ecx, OFFSET __C564DC25_xstring
  00047	e8 00 00 00 00	 call	 @__CheckForDebuggerJustMyCode@4

; 3575 :         return _Mypair._Myval2._Myptr();

  0004c	8b 4d ec	 mov	 ecx, DWORD PTR _this$[ebp]
  0004f	e8 00 00 00 00	 call	 ?_Myptr@?$_String_val@U?$_Simple_types@D@std@@@std@@QBEPBDXZ ; std::_String_val<std::_Simple_types<char> >::_Myptr

; 3576 :     }

  00054	8b 4d f4	 mov	 ecx, DWORD PTR __$EHRec$[ebp]
  00057	64 89 0d 00 00
	00 00		 mov	 DWORD PTR fs:0, ecx
  0005e	59		 pop	 ecx
  0005f	5f		 pop	 edi
  00060	5e		 pop	 esi
  00061	5b		 pop	 ebx
  00062	81 c4 d8 00 00
	00		 add	 esp, 216		; 000000d8H
  00068	3b ec		 cmp	 ebp, esp
  0006a	e8 00 00 00 00	 call	 __RTC_CheckEsp
  0006f	8b e5		 mov	 esp, ebp
  00071	5d		 pop	 ebp
  00072	c3		 ret	 0
_TEXT	ENDS
;	COMDAT text$x
text$x	SEGMENT
__ehhandler$?c_str@?$basic_string@DU?$char_traits@D@std@@V?$allocator@D@2@@std@@QBEPBDXZ:
  00000	8b 54 24 08	 mov	 edx, DWORD PTR [esp+8]
  00004	8d 42 0c	 lea	 eax, DWORD PTR [edx+12]
  00007	8b 8a 24 ff ff
	ff		 mov	 ecx, DWORD PTR [edx-220]
  0000d	33 c8		 xor	 ecx, eax
  0000f	e8 00 00 00 00	 call	 @__security_check_cookie@4
  00014	b8 00 00 00 00	 mov	 eax, OFFSET __ehfuncinfo$?c_str@?$basic_string@DU?$char_traits@D@std@@V?$allocator@D@2@@std@@QBEPBDXZ
  00019	e9 00 00 00 00	 jmp	 ___CxxFrameHandler3
text$x	ENDS
?c_str@?$basic_string@DU?$char_traits@D@std@@V?$allocator@D@2@@std@@QBEPBDXZ ENDP ; std::basic_string<char,std::char_traits<char>,std::allocator<char> >::c_str
; Function compile flags: /Odtp /RTCsu /ZI
; File C:\Program Files (x86)\Microsoft Visual Studio\2019\Community\VC\Tools\MSVC\14.24.28314\include\xstring
;	COMDAT ?push_back@?$basic_string@DU?$char_traits@D@std@@V?$allocator@D@2@@std@@QAEXD@Z
_TEXT	SEGMENT
$T1 = -245						; size = 1
$T2 = -233						; size = 1
__Ptr$3 = -32						; size = 4
__Old_size$ = -20					; size = 4
_this$ = -8						; size = 4
__Ch$ = 8						; size = 1
?push_back@?$basic_string@DU?$char_traits@D@std@@V?$allocator@D@2@@std@@QAEXD@Z PROC ; std::basic_string<char,std::char_traits<char>,std::allocator<char> >::push_back, COMDAT
; _this$ = ecx

; 3514 :     void push_back(const _Elem _Ch) { // insert element at end

  00000	55		 push	 ebp
  00001	8b ec		 mov	 ebp, esp
  00003	81 ec fc 00 00
	00		 sub	 esp, 252		; 000000fcH
  00009	53		 push	 ebx
  0000a	56		 push	 esi
  0000b	57		 push	 edi
  0000c	51		 push	 ecx
  0000d	8d bd 04 ff ff
	ff		 lea	 edi, DWORD PTR [ebp-252]
  00013	b9 3f 00 00 00	 mov	 ecx, 63			; 0000003fH
  00018	b8 cc cc cc cc	 mov	 eax, -858993460		; ccccccccH
  0001d	f3 ab		 rep stosd
  0001f	59		 pop	 ecx
  00020	89 4d f8	 mov	 DWORD PTR _this$[ebp], ecx
  00023	b9 00 00 00 00	 mov	 ecx, OFFSET __C564DC25_xstring
  00028	e8 00 00 00 00	 call	 @__CheckForDebuggerJustMyCode@4

; 3515 :         const size_type _Old_size = _Mypair._Myval2._Mysize;

  0002d	8b 45 f8	 mov	 eax, DWORD PTR _this$[ebp]
  00030	8b 48 14	 mov	 ecx, DWORD PTR [eax+20]
  00033	89 4d ec	 mov	 DWORD PTR __Old_size$[ebp], ecx

; 3516 :         if (_Old_size < _Mypair._Myval2._Myres) {

  00036	8b 45 f8	 mov	 eax, DWORD PTR _this$[ebp]
  00039	8b 4d ec	 mov	 ecx, DWORD PTR __Old_size$[ebp]
  0003c	3b 48 18	 cmp	 ecx, DWORD PTR [eax+24]
  0003f	73 4d		 jae	 SHORT $LN2@push_back

; 3517 :             _Mypair._Myval2._Mysize = _Old_size + 1;

  00041	8b 45 ec	 mov	 eax, DWORD PTR __Old_size$[ebp]
  00044	83 c0 01	 add	 eax, 1
  00047	8b 4d f8	 mov	 ecx, DWORD PTR _this$[ebp]
  0004a	89 41 14	 mov	 DWORD PTR [ecx+20], eax

; 3518 :             _Elem* const _Ptr       = _Mypair._Myval2._Myptr();

  0004d	8b 4d f8	 mov	 ecx, DWORD PTR _this$[ebp]
  00050	e8 00 00 00 00	 call	 ?_Myptr@?$_String_val@U?$_Simple_types@D@std@@@std@@QAEPADXZ ; std::_String_val<std::_Simple_types<char> >::_Myptr
  00055	89 45 e0	 mov	 DWORD PTR __Ptr$3[ebp], eax

; 3519 :             _Traits::assign(_Ptr[_Old_size], _Ch);

  00058	8d 45 08	 lea	 eax, DWORD PTR __Ch$[ebp]
  0005b	50		 push	 eax
  0005c	8b 4d e0	 mov	 ecx, DWORD PTR __Ptr$3[ebp]
  0005f	03 4d ec	 add	 ecx, DWORD PTR __Old_size$[ebp]
  00062	51		 push	 ecx
  00063	e8 00 00 00 00	 call	 ?assign@?$_Narrow_char_traits@DH@std@@SAXAADABD@Z ; std::_Narrow_char_traits<char,int>::assign
  00068	83 c4 08	 add	 esp, 8

; 3520 :             _Traits::assign(_Ptr[_Old_size + 1], _Elem());

  0006b	c6 85 17 ff ff
	ff 00		 mov	 BYTE PTR $T2[ebp], 0
  00072	8d 85 17 ff ff
	ff		 lea	 eax, DWORD PTR $T2[ebp]
  00078	50		 push	 eax
  00079	8b 4d ec	 mov	 ecx, DWORD PTR __Old_size$[ebp]
  0007c	8b 55 e0	 mov	 edx, DWORD PTR __Ptr$3[ebp]
  0007f	8d 44 0a 01	 lea	 eax, DWORD PTR [edx+ecx+1]
  00083	50		 push	 eax
  00084	e8 00 00 00 00	 call	 ?assign@?$_Narrow_char_traits@DH@std@@SAXAADABD@Z ; std::_Narrow_char_traits<char,int>::assign
  00089	83 c4 08	 add	 esp, 8

; 3521 :             return;

  0008c	eb 1f		 jmp	 SHORT $LN1@push_back
$LN2@push_back:

; 3522 :         }
; 3523 : 
; 3524 :         _Reallocate_grow_by(

  0008e	33 c0		 xor	 eax, eax
  00090	88 85 0b ff ff
	ff		 mov	 BYTE PTR $T1[ebp], al
  00096	0f b6 4d 08	 movzx	 ecx, BYTE PTR __Ch$[ebp]
  0009a	51		 push	 ecx
  0009b	0f b6 95 0b ff
	ff ff		 movzx	 edx, BYTE PTR $T1[ebp]
  000a2	52		 push	 edx
  000a3	6a 01		 push	 1
  000a5	8b 4d f8	 mov	 ecx, DWORD PTR _this$[ebp]
  000a8	e8 00 00 00 00	 call	 ??$_Reallocate_grow_by@V<lambda_15711c68e099a15a58f4d77303cb286d>@@D@?$basic_string@DU?$char_traits@D@std@@V?$allocator@D@2@@std@@AAEAAV01@IV<lambda_15711c68e099a15a58f4d77303cb286d>@@D@Z ; std::basic_string<char,std::char_traits<char>,std::allocator<char> >::_Reallocate_grow_by<<lambda_15711c68e099a15a58f4d77303cb286d>,char>
$LN1@push_back:

; 3525 :             1,
; 3526 :             [](_Elem* const _New_ptr, const _Elem* const _Old_ptr, const size_type _Old_size, const _Elem _Ch) {
; 3527 :                 _Traits::copy(_New_ptr, _Old_ptr, _Old_size);
; 3528 :                 _Traits::assign(_New_ptr[_Old_size], _Ch);
; 3529 :                 _Traits::assign(_New_ptr[_Old_size + 1], _Elem());
; 3530 :             },
; 3531 :             _Ch);
; 3532 :     }

  000ad	5f		 pop	 edi
  000ae	5e		 pop	 esi
  000af	5b		 pop	 ebx
  000b0	81 c4 fc 00 00
	00		 add	 esp, 252		; 000000fcH
  000b6	3b ec		 cmp	 ebp, esp
  000b8	e8 00 00 00 00	 call	 __RTC_CheckEsp
  000bd	8b e5		 mov	 esp, ebp
  000bf	5d		 pop	 ebp
  000c0	c2 04 00	 ret	 4
?push_back@?$basic_string@DU?$char_traits@D@std@@V?$allocator@D@2@@std@@QAEXD@Z ENDP ; std::basic_string<char,std::char_traits<char>,std::allocator<char> >::push_back
_TEXT	ENDS
; Function compile flags: /Odtp /RTCsu /ZI
; File C:\Program Files (x86)\Microsoft Visual Studio\2019\Community\VC\Tools\MSVC\14.24.28314\include\xstring
;	COMDAT ?erase@?$basic_string@DU?$char_traits@D@std@@V?$allocator@D@2@@std@@QAEAAV12@I@Z
_TEXT	SEGMENT
_this$ = -8						; size = 4
__Off$ = 8						; size = 4
?erase@?$basic_string@DU?$char_traits@D@std@@V?$allocator@D@2@@std@@QAEAAV12@I@Z PROC ; std::basic_string<char,std::char_traits<char>,std::allocator<char> >::erase, COMDAT
; _this$ = ecx

; 3116 :     basic_string& erase(const size_type _Off = 0) { // erase elements [_Off, ...)

  00000	55		 push	 ebp
  00001	8b ec		 mov	 ebp, esp
  00003	81 ec cc 00 00
	00		 sub	 esp, 204		; 000000ccH
  00009	53		 push	 ebx
  0000a	56		 push	 esi
  0000b	57		 push	 edi
  0000c	51		 push	 ecx
  0000d	8d bd 34 ff ff
	ff		 lea	 edi, DWORD PTR [ebp-204]
  00013	b9 33 00 00 00	 mov	 ecx, 51			; 00000033H
  00018	b8 cc cc cc cc	 mov	 eax, -858993460		; ccccccccH
  0001d	f3 ab		 rep stosd
  0001f	59		 pop	 ecx
  00020	89 4d f8	 mov	 DWORD PTR _this$[ebp], ecx
  00023	b9 00 00 00 00	 mov	 ecx, OFFSET __C564DC25_xstring
  00028	e8 00 00 00 00	 call	 @__CheckForDebuggerJustMyCode@4

; 3117 :         _Mypair._Myval2._Check_offset(_Off);

  0002d	8b 45 08	 mov	 eax, DWORD PTR __Off$[ebp]
  00030	50		 push	 eax
  00031	8b 4d f8	 mov	 ecx, DWORD PTR _this$[ebp]
  00034	e8 00 00 00 00	 call	 ?_Check_offset@?$_String_val@U?$_Simple_types@D@std@@@std@@QBEXI@Z ; std::_String_val<std::_Simple_types<char> >::_Check_offset

; 3118 :         _Eos(_Off);

  00039	8b 45 08	 mov	 eax, DWORD PTR __Off$[ebp]
  0003c	50		 push	 eax
  0003d	8b 4d f8	 mov	 ecx, DWORD PTR _this$[ebp]
  00040	e8 00 00 00 00	 call	 ?_Eos@?$basic_string@DU?$char_traits@D@std@@V?$allocator@D@2@@std@@AAEXI@Z ; std::basic_string<char,std::char_traits<char>,std::allocator<char> >::_Eos

; 3119 :         return *this;

  00045	8b 45 f8	 mov	 eax, DWORD PTR _this$[ebp]

; 3120 :     }

  00048	5f		 pop	 edi
  00049	5e		 pop	 esi
  0004a	5b		 pop	 ebx
  0004b	81 c4 cc 00 00
	00		 add	 esp, 204		; 000000ccH
  00051	3b ec		 cmp	 ebp, esp
  00053	e8 00 00 00 00	 call	 __RTC_CheckEsp
  00058	8b e5		 mov	 esp, ebp
  0005a	5d		 pop	 ebp
  0005b	c2 04 00	 ret	 4
?erase@?$basic_string@DU?$char_traits@D@std@@V?$allocator@D@2@@std@@QAEAAV12@I@Z ENDP ; std::basic_string<char,std::char_traits<char>,std::allocator<char> >::erase
_TEXT	ENDS
; Function compile flags: /Odtp /RTCsu /ZI
; File C:\Program Files (x86)\Microsoft Visual Studio\2019\Community\VC\Tools\MSVC\14.24.28314\include\xstring
;	COMDAT ??1?$basic_string@DU?$char_traits@D@std@@V?$allocator@D@2@@std@@QAE@XZ
_TEXT	SEGMENT
__To_delete$ = -60					; size = 4
_$S8$ = -45						; size = 1
__Alproxy$ = -36					; size = 4
_this$ = -24						; size = 4
__$ArrayPad$ = -16					; size = 4
__$EHRec$ = -12						; size = 12
??1?$basic_string@DU?$char_traits@D@std@@V?$allocator@D@2@@std@@QAE@XZ PROC ; std::basic_string<char,std::char_traits<char>,std::allocator<char> >::~basic_string<char,std::char_traits<char>,std::allocator<char> >, COMDAT
; _this$ = ecx

; 2627 :     ~basic_string() noexcept {

  00000	55		 push	 ebp
  00001	8b ec		 mov	 ebp, esp
  00003	6a ff		 push	 -1
  00005	68 00 00 00 00	 push	 __ehhandler$??1?$basic_string@DU?$char_traits@D@std@@V?$allocator@D@2@@std@@QAE@XZ
  0000a	64 a1 00 00 00
	00		 mov	 eax, DWORD PTR fs:0
  00010	50		 push	 eax
  00011	81 ec f4 00 00
	00		 sub	 esp, 244		; 000000f4H
  00017	53		 push	 ebx
  00018	56		 push	 esi
  00019	57		 push	 edi
  0001a	51		 push	 ecx
  0001b	8d bd 00 ff ff
	ff		 lea	 edi, DWORD PTR [ebp-256]
  00021	b9 3d 00 00 00	 mov	 ecx, 61			; 0000003dH
  00026	b8 cc cc cc cc	 mov	 eax, -858993460		; ccccccccH
  0002b	f3 ab		 rep stosd
  0002d	59		 pop	 ecx
  0002e	a1 00 00 00 00	 mov	 eax, DWORD PTR ___security_cookie
  00033	33 c5		 xor	 eax, ebp
  00035	89 45 f0	 mov	 DWORD PTR __$ArrayPad$[ebp], eax
  00038	50		 push	 eax
  00039	8d 45 f4	 lea	 eax, DWORD PTR __$EHRec$[ebp]
  0003c	64 a3 00 00 00
	00		 mov	 DWORD PTR fs:0, eax
  00042	89 4d e8	 mov	 DWORD PTR _this$[ebp], ecx
  00045	b9 00 00 00 00	 mov	 ecx, OFFSET __C564DC25_xstring
  0004a	e8 00 00 00 00	 call	 @__CheckForDebuggerJustMyCode@4

; 2628 :         _Tidy_deallocate();

  0004f	8b 4d e8	 mov	 ecx, DWORD PTR _this$[ebp]
  00052	e8 00 00 00 00	 call	 ?_Tidy_deallocate@?$basic_string@DU?$char_traits@D@std@@V?$allocator@D@2@@std@@AAEXXZ ; std::basic_string<char,std::char_traits<char>,std::allocator<char> >::_Tidy_deallocate

; 2629 : #if _ITERATOR_DEBUG_LEVEL != 0
; 2630 :         auto&& _Alproxy          = _GET_PROXY_ALLOCATOR(_Alty, _Getal());

  00057	8b 4d e8	 mov	 ecx, DWORD PTR _this$[ebp]
  0005a	e8 00 00 00 00	 call	 ?_Getal@?$basic_string@DU?$char_traits@D@std@@V?$allocator@D@2@@std@@AAEAAV?$allocator@D@2@XZ ; std::basic_string<char,std::char_traits<char>,std::allocator<char> >::_Getal
  0005f	50		 push	 eax
  00060	8d 4d d3	 lea	 ecx, DWORD PTR _$S8$[ebp]
  00063	e8 00 00 00 00	 call	 ??$?0D@?$allocator@U_Container_proxy@std@@@std@@QAE@ABV?$allocator@D@1@@Z ; std::allocator<std::_Container_proxy>::allocator<std::_Container_proxy><char>
  00068	8d 45 d3	 lea	 eax, DWORD PTR _$S8$[ebp]
  0006b	89 45 dc	 mov	 DWORD PTR __Alproxy$[ebp], eax

; 2631 :         const auto _To_delete    = _Mypair._Myval2._Myproxy;

  0006e	8b 45 e8	 mov	 eax, DWORD PTR _this$[ebp]
  00071	8b 08		 mov	 ecx, DWORD PTR [eax]
  00073	89 4d c4	 mov	 DWORD PTR __To_delete$[ebp], ecx

; 2632 :         _Mypair._Myval2._Myproxy = nullptr;

  00076	8b 45 e8	 mov	 eax, DWORD PTR _this$[ebp]
  00079	c7 00 00 00 00
	00		 mov	 DWORD PTR [eax], 0

; 2633 :         _Delete_plain_internal(_Alproxy, _To_delete);

  0007f	8b 45 c4	 mov	 eax, DWORD PTR __To_delete$[ebp]
  00082	50		 push	 eax
  00083	8b 4d dc	 mov	 ecx, DWORD PTR __Alproxy$[ebp]
  00086	51		 push	 ecx
  00087	e8 00 00 00 00	 call	 ??$_Delete_plain_internal@V?$allocator@U_Container_proxy@std@@@std@@@std@@YAXAAV?$allocator@U_Container_proxy@std@@@0@QAU_Container_proxy@0@@Z ; std::_Delete_plain_internal<std::allocator<std::_Container_proxy> >
  0008c	83 c4 08	 add	 esp, 8

; 2634 : #endif // _ITERATOR_DEBUG_LEVEL != 0
; 2635 :     }

  0008f	8b 4d e8	 mov	 ecx, DWORD PTR _this$[ebp]
  00092	e8 00 00 00 00	 call	 ??1?$_Compressed_pair@V?$allocator@D@std@@V?$_String_val@U?$_Simple_types@D@std@@@2@$00@std@@QAE@XZ
  00097	52		 push	 edx
  00098	8b cd		 mov	 ecx, ebp
  0009a	50		 push	 eax
  0009b	8d 15 00 00 00
	00		 lea	 edx, DWORD PTR $LN6@basic_stri
  000a1	e8 00 00 00 00	 call	 @_RTC_CheckStackVars@8
  000a6	58		 pop	 eax
  000a7	5a		 pop	 edx
  000a8	8b 4d f4	 mov	 ecx, DWORD PTR __$EHRec$[ebp]
  000ab	64 89 0d 00 00
	00 00		 mov	 DWORD PTR fs:0, ecx
  000b2	59		 pop	 ecx
  000b3	5f		 pop	 edi
  000b4	5e		 pop	 esi
  000b5	5b		 pop	 ebx
  000b6	8b 4d f0	 mov	 ecx, DWORD PTR __$ArrayPad$[ebp]
  000b9	33 cd		 xor	 ecx, ebp
  000bb	e8 00 00 00 00	 call	 @__security_check_cookie@4
  000c0	81 c4 00 01 00
	00		 add	 esp, 256		; 00000100H
  000c6	3b ec		 cmp	 ebp, esp
  000c8	e8 00 00 00 00	 call	 __RTC_CheckEsp
  000cd	8b e5		 mov	 esp, ebp
  000cf	5d		 pop	 ebp
  000d0	c3		 ret	 0
  000d1	0f 1f 00	 npad	 3
$LN6@basic_stri:
  000d4	01 00 00 00	 DD	 1
  000d8	00 00 00 00	 DD	 $LN5@basic_stri
$LN5@basic_stri:
  000dc	d3 ff ff ff	 DD	 -45			; ffffffd3H
  000e0	01 00 00 00	 DD	 1
  000e4	00 00 00 00	 DD	 $LN3@basic_stri
$LN3@basic_stri:
  000e8	24		 DB	 36			; 00000024H
  000e9	53		 DB	 83			; 00000053H
  000ea	38		 DB	 56			; 00000038H
  000eb	00		 DB	 0
_TEXT	ENDS
;	COMDAT text$x
text$x	SEGMENT
__ehhandler$??1?$basic_string@DU?$char_traits@D@std@@V?$allocator@D@2@@std@@QAE@XZ:
  00000	8b 54 24 08	 mov	 edx, DWORD PTR [esp+8]
  00004	8d 42 0c	 lea	 eax, DWORD PTR [edx+12]
  00007	8b 8a fc fe ff
	ff		 mov	 ecx, DWORD PTR [edx-260]
  0000d	33 c8		 xor	 ecx, eax
  0000f	e8 00 00 00 00	 call	 @__security_check_cookie@4
  00014	8b 4a fc	 mov	 ecx, DWORD PTR [edx-4]
  00017	33 c8		 xor	 ecx, eax
  00019	e8 00 00 00 00	 call	 @__security_check_cookie@4
  0001e	b8 00 00 00 00	 mov	 eax, OFFSET __ehfuncinfo$??1?$basic_string@DU?$char_traits@D@std@@V?$allocator@D@2@@std@@QAE@XZ
  00023	e9 00 00 00 00	 jmp	 ___CxxFrameHandler3
text$x	ENDS
??1?$basic_string@DU?$char_traits@D@std@@V?$allocator@D@2@@std@@QAE@XZ ENDP ; std::basic_string<char,std::char_traits<char>,std::allocator<char> >::~basic_string<char,std::char_traits<char>,std::allocator<char> >
; Function compile flags: /Odtp /RTCsu /ZI
; File C:\Program Files (x86)\Microsoft Visual Studio\2019\Community\VC\Tools\MSVC\14.24.28314\include\xstring
;	COMDAT ??0?$basic_string@DU?$char_traits@D@std@@V?$allocator@D@2@@std@@QAE@XZ
_TEXT	SEGMENT
$T2 = -233						; size = 1
$T3 = -221						; size = 1
_this$ = -20						; size = 4
__$EHRec$ = -12						; size = 12
??0?$basic_string@DU?$char_traits@D@std@@V?$allocator@D@2@@std@@QAE@XZ PROC ; std::basic_string<char,std::char_traits<char>,std::allocator<char> >::basic_string<char,std::char_traits<char>,std::allocator<char> >, COMDAT
; _this$ = ecx

; 2285 :     basic_string() noexcept(is_nothrow_default_constructible_v<_Alty>) : _Mypair(_Zero_then_variadic_args_t()) {

  00000	55		 push	 ebp
  00001	8b ec		 mov	 ebp, esp
  00003	6a ff		 push	 -1
  00005	68 00 00 00 00	 push	 __ehhandler$??0?$basic_string@DU?$char_traits@D@std@@V?$allocator@D@2@@std@@QAE@XZ
  0000a	64 a1 00 00 00
	00		 mov	 eax, DWORD PTR fs:0
  00010	50		 push	 eax
  00011	81 ec e4 00 00
	00		 sub	 esp, 228		; 000000e4H
  00017	53		 push	 ebx
  00018	56		 push	 esi
  00019	57		 push	 edi
  0001a	51		 push	 ecx
  0001b	8d bd 10 ff ff
	ff		 lea	 edi, DWORD PTR [ebp-240]
  00021	b9 39 00 00 00	 mov	 ecx, 57			; 00000039H
  00026	b8 cc cc cc cc	 mov	 eax, -858993460		; ccccccccH
  0002b	f3 ab		 rep stosd
  0002d	59		 pop	 ecx
  0002e	a1 00 00 00 00	 mov	 eax, DWORD PTR ___security_cookie
  00033	33 c5		 xor	 eax, ebp
  00035	50		 push	 eax
  00036	8d 45 f4	 lea	 eax, DWORD PTR __$EHRec$[ebp]
  00039	64 a3 00 00 00
	00		 mov	 DWORD PTR fs:0, eax
  0003f	89 4d ec	 mov	 DWORD PTR _this$[ebp], ecx
  00042	b9 00 00 00 00	 mov	 ecx, OFFSET __C564DC25_xstring
  00047	e8 00 00 00 00	 call	 @__CheckForDebuggerJustMyCode@4
  0004c	0f b6 85 23 ff
	ff ff		 movzx	 eax, BYTE PTR $T3[ebp]
  00053	50		 push	 eax
  00054	8b 4d ec	 mov	 ecx, DWORD PTR _this$[ebp]
  00057	e8 00 00 00 00	 call	 ??$?0$$V@?$_Compressed_pair@V?$allocator@D@std@@V?$_String_val@U?$_Simple_types@D@std@@@2@$00@std@@QAE@U_Zero_then_variadic_args_t@1@@Z ; std::_Compressed_pair<std::allocator<char>,std::_String_val<std::_Simple_types<char> >,1>::_Compressed_pair<std::allocator<char>,std::_String_val<std::_Simple_types<char> >,1><>

; 2286 :         _Mypair._Myval2._Alloc_proxy(_GET_PROXY_ALLOCATOR(_Alty, _Getal()));

  0005c	8b 4d ec	 mov	 ecx, DWORD PTR _this$[ebp]
  0005f	e8 00 00 00 00	 call	 ?_Getal@?$basic_string@DU?$char_traits@D@std@@V?$allocator@D@2@@std@@AAEAAV?$allocator@D@2@XZ ; std::basic_string<char,std::char_traits<char>,std::allocator<char> >::_Getal
  00064	50		 push	 eax
  00065	8d 8d 17 ff ff
	ff		 lea	 ecx, DWORD PTR $T2[ebp]
  0006b	e8 00 00 00 00	 call	 ??$?0D@?$allocator@U_Container_proxy@std@@@std@@QAE@ABV?$allocator@D@1@@Z ; std::allocator<std::_Container_proxy>::allocator<std::_Container_proxy><char>
  00070	50		 push	 eax
  00071	8b 4d ec	 mov	 ecx, DWORD PTR _this$[ebp]
  00074	e8 00 00 00 00	 call	 ??$_Alloc_proxy@V?$allocator@U_Container_proxy@std@@@std@@@_Container_base12@std@@QAEX$$QAV?$allocator@U_Container_proxy@std@@@1@@Z ; std::_Container_base12::_Alloc_proxy<std::allocator<std::_Container_proxy> >

; 2287 :         _Tidy_init();

  00079	8b 4d ec	 mov	 ecx, DWORD PTR _this$[ebp]
  0007c	e8 00 00 00 00	 call	 ?_Tidy_init@?$basic_string@DU?$char_traits@D@std@@V?$allocator@D@2@@std@@AAEXXZ ; std::basic_string<char,std::char_traits<char>,std::allocator<char> >::_Tidy_init

; 2288 :     }

  00081	8b 45 ec	 mov	 eax, DWORD PTR _this$[ebp]
  00084	8b 4d f4	 mov	 ecx, DWORD PTR __$EHRec$[ebp]
  00087	64 89 0d 00 00
	00 00		 mov	 DWORD PTR fs:0, ecx
  0008e	59		 pop	 ecx
  0008f	5f		 pop	 edi
  00090	5e		 pop	 esi
  00091	5b		 pop	 ebx
  00092	81 c4 f0 00 00
	00		 add	 esp, 240		; 000000f0H
  00098	3b ec		 cmp	 ebp, esp
  0009a	e8 00 00 00 00	 call	 __RTC_CheckEsp
  0009f	8b e5		 mov	 esp, ebp
  000a1	5d		 pop	 ebp
  000a2	c3		 ret	 0
_TEXT	ENDS
;	COMDAT text$x
text$x	SEGMENT
__ehhandler$??0?$basic_string@DU?$char_traits@D@std@@V?$allocator@D@2@@std@@QAE@XZ:
  00000	8b 54 24 08	 mov	 edx, DWORD PTR [esp+8]
  00004	8d 42 0c	 lea	 eax, DWORD PTR [edx+12]
  00007	8b 8a 0c ff ff
	ff		 mov	 ecx, DWORD PTR [edx-244]
  0000d	33 c8		 xor	 ecx, eax
  0000f	e8 00 00 00 00	 call	 @__security_check_cookie@4
  00014	b8 00 00 00 00	 mov	 eax, OFFSET __ehfuncinfo$??0?$basic_string@DU?$char_traits@D@std@@V?$allocator@D@2@@std@@QAE@XZ
  00019	e9 00 00 00 00	 jmp	 ___CxxFrameHandler3
text$x	ENDS
??0?$basic_string@DU?$char_traits@D@std@@V?$allocator@D@2@@std@@QAE@XZ ENDP ; std::basic_string<char,std::char_traits<char>,std::allocator<char> >::basic_string<char,std::char_traits<char>,std::allocator<char> >
; Function compile flags: /Odtp /RTCsu /ZI
;	COMDAT ??1?$_String_val@U?$_Simple_types@D@std@@@std@@QAE@XZ
_TEXT	SEGMENT
_this$ = -8						; size = 4
??1?$_String_val@U?$_Simple_types@D@std@@@std@@QAE@XZ PROC ; std::_String_val<std::_Simple_types<char> >::~_String_val<std::_Simple_types<char> >, COMDAT
; _this$ = ecx
  00000	55		 push	 ebp
  00001	8b ec		 mov	 ebp, esp
  00003	81 ec cc 00 00
	00		 sub	 esp, 204		; 000000ccH
  00009	53		 push	 ebx
  0000a	56		 push	 esi
  0000b	57		 push	 edi
  0000c	51		 push	 ecx
  0000d	8d bd 34 ff ff
	ff		 lea	 edi, DWORD PTR [ebp-204]
  00013	b9 33 00 00 00	 mov	 ecx, 51			; 00000033H
  00018	b8 cc cc cc cc	 mov	 eax, -858993460		; ccccccccH
  0001d	f3 ab		 rep stosd
  0001f	59		 pop	 ecx
  00020	89 4d f8	 mov	 DWORD PTR _this$[ebp], ecx
  00023	8b 4d f8	 mov	 ecx, DWORD PTR _this$[ebp]
  00026	83 c1 04	 add	 ecx, 4
  00029	e8 00 00 00 00	 call	 ??1_Bxty@?$_String_val@U?$_Simple_types@D@std@@@std@@QAE@XZ ; std::_String_val<std::_Simple_types<char> >::_Bxty::~_Bxty
  0002e	5f		 pop	 edi
  0002f	5e		 pop	 esi
  00030	5b		 pop	 ebx
  00031	81 c4 cc 00 00
	00		 add	 esp, 204		; 000000ccH
  00037	3b ec		 cmp	 ebp, esp
  00039	e8 00 00 00 00	 call	 __RTC_CheckEsp
  0003e	8b e5		 mov	 esp, ebp
  00040	5d		 pop	 ebp
  00041	c3		 ret	 0
??1?$_String_val@U?$_Simple_types@D@std@@@std@@QAE@XZ ENDP ; std::_String_val<std::_Simple_types<char> >::~_String_val<std::_Simple_types<char> >
_TEXT	ENDS
; Function compile flags: /Odtp /RTCsu /ZI
; File C:\Program Files (x86)\Microsoft Visual Studio\2019\Community\VC\Tools\MSVC\14.24.28314\include\xstring
;	COMDAT ??1_Bxty@?$_String_val@U?$_Simple_types@D@std@@@std@@QAE@XZ
_TEXT	SEGMENT
_this$ = -20						; size = 4
__$EHRec$ = -12						; size = 12
??1_Bxty@?$_String_val@U?$_Simple_types@D@std@@@std@@QAE@XZ PROC ; std::_String_val<std::_Simple_types<char> >::_Bxty::~_Bxty, COMDAT
; _this$ = ecx

; 2188 :         ~_Bxty() noexcept {} // user-provided, for fancy pointers

  00000	55		 push	 ebp
  00001	8b ec		 mov	 ebp, esp
  00003	6a ff		 push	 -1
  00005	68 00 00 00 00	 push	 __ehhandler$??1_Bxty@?$_String_val@U?$_Simple_types@D@std@@@std@@QAE@XZ
  0000a	64 a1 00 00 00
	00		 mov	 eax, DWORD PTR fs:0
  00010	50		 push	 eax
  00011	81 ec cc 00 00
	00		 sub	 esp, 204		; 000000ccH
  00017	53		 push	 ebx
  00018	56		 push	 esi
  00019	57		 push	 edi
  0001a	51		 push	 ecx
  0001b	8d bd 28 ff ff
	ff		 lea	 edi, DWORD PTR [ebp-216]
  00021	b9 33 00 00 00	 mov	 ecx, 51			; 00000033H
  00026	b8 cc cc cc cc	 mov	 eax, -858993460		; ccccccccH
  0002b	f3 ab		 rep stosd
  0002d	59		 pop	 ecx
  0002e	a1 00 00 00 00	 mov	 eax, DWORD PTR ___security_cookie
  00033	33 c5		 xor	 eax, ebp
  00035	50		 push	 eax
  00036	8d 45 f4	 lea	 eax, DWORD PTR __$EHRec$[ebp]
  00039	64 a3 00 00 00
	00		 mov	 DWORD PTR fs:0, eax
  0003f	89 4d ec	 mov	 DWORD PTR _this$[ebp], ecx
  00042	b9 00 00 00 00	 mov	 ecx, OFFSET __C564DC25_xstring
  00047	e8 00 00 00 00	 call	 @__CheckForDebuggerJustMyCode@4
  0004c	8b 4d f4	 mov	 ecx, DWORD PTR __$EHRec$[ebp]
  0004f	64 89 0d 00 00
	00 00		 mov	 DWORD PTR fs:0, ecx
  00056	59		 pop	 ecx
  00057	5f		 pop	 edi
  00058	5e		 pop	 esi
  00059	5b		 pop	 ebx
  0005a	81 c4 d8 00 00
	00		 add	 esp, 216		; 000000d8H
  00060	3b ec		 cmp	 ebp, esp
  00062	e8 00 00 00 00	 call	 __RTC_CheckEsp
  00067	8b e5		 mov	 esp, ebp
  00069	5d		 pop	 ebp
  0006a	c3		 ret	 0
_TEXT	ENDS
;	COMDAT text$x
text$x	SEGMENT
__ehhandler$??1_Bxty@?$_String_val@U?$_Simple_types@D@std@@@std@@QAE@XZ:
  00000	8b 54 24 08	 mov	 edx, DWORD PTR [esp+8]
  00004	8d 42 0c	 lea	 eax, DWORD PTR [edx+12]
  00007	8b 8a 24 ff ff
	ff		 mov	 ecx, DWORD PTR [edx-220]
  0000d	33 c8		 xor	 ecx, eax
  0000f	e8 00 00 00 00	 call	 @__security_check_cookie@4
  00014	b8 00 00 00 00	 mov	 eax, OFFSET __ehfuncinfo$??1_Bxty@?$_String_val@U?$_Simple_types@D@std@@@std@@QAE@XZ
  00019	e9 00 00 00 00	 jmp	 ___CxxFrameHandler3
text$x	ENDS
??1_Bxty@?$_String_val@U?$_Simple_types@D@std@@@std@@QAE@XZ ENDP ; std::_String_val<std::_Simple_types<char> >::_Bxty::~_Bxty
; Function compile flags: /Odtp /RTCsu /ZI
; File C:\Program Files (x86)\Microsoft Visual Studio\2019\Community\VC\Tools\MSVC\14.24.28314\include\xstring
;	COMDAT ??0_Bxty@?$_String_val@U?$_Simple_types@D@std@@@std@@QAE@XZ
_TEXT	SEGMENT
_this$ = -8						; size = 4
??0_Bxty@?$_String_val@U?$_Simple_types@D@std@@@std@@QAE@XZ PROC ; std::_String_val<std::_Simple_types<char> >::_Bxty::_Bxty, COMDAT
; _this$ = ecx

; 2186 :         _Bxty() {} // user-provided, for fancy pointers

  00000	55		 push	 ebp
  00001	8b ec		 mov	 ebp, esp
  00003	81 ec cc 00 00
	00		 sub	 esp, 204		; 000000ccH
  00009	53		 push	 ebx
  0000a	56		 push	 esi
  0000b	57		 push	 edi
  0000c	51		 push	 ecx
  0000d	8d bd 34 ff ff
	ff		 lea	 edi, DWORD PTR [ebp-204]
  00013	b9 33 00 00 00	 mov	 ecx, 51			; 00000033H
  00018	b8 cc cc cc cc	 mov	 eax, -858993460		; ccccccccH
  0001d	f3 ab		 rep stosd
  0001f	59		 pop	 ecx
  00020	89 4d f8	 mov	 DWORD PTR _this$[ebp], ecx
  00023	b9 00 00 00 00	 mov	 ecx, OFFSET __C564DC25_xstring
  00028	e8 00 00 00 00	 call	 @__CheckForDebuggerJustMyCode@4
  0002d	8b 45 f8	 mov	 eax, DWORD PTR _this$[ebp]
  00030	5f		 pop	 edi
  00031	5e		 pop	 esi
  00032	5b		 pop	 ebx
  00033	81 c4 cc 00 00
	00		 add	 esp, 204		; 000000ccH
  00039	3b ec		 cmp	 ebp, esp
  0003b	e8 00 00 00 00	 call	 __RTC_CheckEsp
  00040	8b e5		 mov	 esp, ebp
  00042	5d		 pop	 ebp
  00043	c3		 ret	 0
??0_Bxty@?$_String_val@U?$_Simple_types@D@std@@@std@@QAE@XZ ENDP ; std::_String_val<std::_Simple_types<char> >::_Bxty::_Bxty
_TEXT	ENDS
; Function compile flags: /Odtp /RTCsu /ZI
; File C:\Program Files (x86)\Microsoft Visual Studio\2019\Community\VC\Tools\MSVC\14.24.28314\include\xstring
;	COMDAT ?_Xran@?$_String_val@U?$_Simple_types@D@std@@@std@@SAXXZ
_TEXT	SEGMENT
?_Xran@?$_String_val@U?$_Simple_types@D@std@@@std@@SAXXZ PROC ; std::_String_val<std::_Simple_types<char> >::_Xran, COMDAT

; 2176 :     [[noreturn]] static void _Xran() {

  00000	55		 push	 ebp
  00001	8b ec		 mov	 ebp, esp
  00003	81 ec c0 00 00
	00		 sub	 esp, 192		; 000000c0H
  00009	53		 push	 ebx
  0000a	56		 push	 esi
  0000b	57		 push	 edi
  0000c	8d bd 40 ff ff
	ff		 lea	 edi, DWORD PTR [ebp-192]
  00012	b9 30 00 00 00	 mov	 ecx, 48			; 00000030H
  00017	b8 cc cc cc cc	 mov	 eax, -858993460		; ccccccccH
  0001c	f3 ab		 rep stosd
  0001e	b9 00 00 00 00	 mov	 ecx, OFFSET __C564DC25_xstring
  00023	e8 00 00 00 00	 call	 @__CheckForDebuggerJustMyCode@4

; 2177 :         _Xout_of_range("invalid string position");

  00028	68 00 00 00 00	 push	 OFFSET ??_C@_0BI@CFPLBAOH@invalid?5string?5position@
  0002d	e8 00 00 00 00	 call	 ?_Xout_of_range@std@@YAXPBD@Z ; std::_Xout_of_range
$LN2@Xran:

; 2178 :     }

  00032	5f		 pop	 edi
  00033	5e		 pop	 esi
  00034	5b		 pop	 ebx
  00035	81 c4 c0 00 00
	00		 add	 esp, 192		; 000000c0H
  0003b	3b ec		 cmp	 ebp, esp
  0003d	e8 00 00 00 00	 call	 __RTC_CheckEsp
  00042	8b e5		 mov	 esp, ebp
  00044	5d		 pop	 ebp
  00045	c3		 ret	 0
?_Xran@?$_String_val@U?$_Simple_types@D@std@@@std@@SAXXZ ENDP ; std::_String_val<std::_Simple_types<char> >::_Xran
_TEXT	ENDS
; Function compile flags: /Odtp /RTCsu /ZI
; File C:\Program Files (x86)\Microsoft Visual Studio\2019\Community\VC\Tools\MSVC\14.24.28314\include\xstring
;	COMDAT ?_Check_offset@?$_String_val@U?$_Simple_types@D@std@@@std@@QBEXI@Z
_TEXT	SEGMENT
_this$ = -8						; size = 4
__Off$ = 8						; size = 4
?_Check_offset@?$_String_val@U?$_Simple_types@D@std@@@std@@QBEXI@Z PROC ; std::_String_val<std::_Simple_types<char> >::_Check_offset, COMDAT
; _this$ = ecx

; 2164 :     void _Check_offset(const size_type _Off) const { // checks whether _Off is in the bounds of [0, size()]

  00000	55		 push	 ebp
  00001	8b ec		 mov	 ebp, esp
  00003	81 ec cc 00 00
	00		 sub	 esp, 204		; 000000ccH
  00009	53		 push	 ebx
  0000a	56		 push	 esi
  0000b	57		 push	 edi
  0000c	51		 push	 ecx
  0000d	8d bd 34 ff ff
	ff		 lea	 edi, DWORD PTR [ebp-204]
  00013	b9 33 00 00 00	 mov	 ecx, 51			; 00000033H
  00018	b8 cc cc cc cc	 mov	 eax, -858993460		; ccccccccH
  0001d	f3 ab		 rep stosd
  0001f	59		 pop	 ecx
  00020	89 4d f8	 mov	 DWORD PTR _this$[ebp], ecx
  00023	b9 00 00 00 00	 mov	 ecx, OFFSET __C564DC25_xstring
  00028	e8 00 00 00 00	 call	 @__CheckForDebuggerJustMyCode@4

; 2165 :         if (_Mysize < _Off) {

  0002d	8b 45 f8	 mov	 eax, DWORD PTR _this$[ebp]
  00030	8b 48 14	 mov	 ecx, DWORD PTR [eax+20]
  00033	3b 4d 08	 cmp	 ecx, DWORD PTR __Off$[ebp]
  00036	73 05		 jae	 SHORT $LN3@Check_offs

; 2166 :             _Xran();

  00038	e8 00 00 00 00	 call	 ?_Xran@?$_String_val@U?$_Simple_types@D@std@@@std@@SAXXZ ; std::_String_val<std::_Simple_types<char> >::_Xran
$LN3@Check_offs:

; 2167 :         }
; 2168 :     }

  0003d	5f		 pop	 edi
  0003e	5e		 pop	 esi
  0003f	5b		 pop	 ebx
  00040	81 c4 cc 00 00
	00		 add	 esp, 204		; 000000ccH
  00046	3b ec		 cmp	 ebp, esp
  00048	e8 00 00 00 00	 call	 __RTC_CheckEsp
  0004d	8b e5		 mov	 esp, ebp
  0004f	5d		 pop	 ebp
  00050	c2 04 00	 ret	 4
?_Check_offset@?$_String_val@U?$_Simple_types@D@std@@@std@@QBEXI@Z ENDP ; std::_String_val<std::_Simple_types<char> >::_Check_offset
_TEXT	ENDS
; Function compile flags: /Odtp /RTCsu /ZI
; File C:\Program Files (x86)\Microsoft Visual Studio\2019\Community\VC\Tools\MSVC\14.24.28314\include\xstring
;	COMDAT ?_Large_string_engaged@?$_String_val@U?$_Simple_types@D@std@@@std@@QBE_NXZ
_TEXT	SEGMENT
tv66 = -208						; size = 4
_this$ = -8						; size = 4
?_Large_string_engaged@?$_String_val@U?$_Simple_types@D@std@@@std@@QBE_NXZ PROC ; std::_String_val<std::_Simple_types<char> >::_Large_string_engaged, COMDAT
; _this$ = ecx

; 2160 :     bool _Large_string_engaged() const {

  00000	55		 push	 ebp
  00001	8b ec		 mov	 ebp, esp
  00003	81 ec d0 00 00
	00		 sub	 esp, 208		; 000000d0H
  00009	53		 push	 ebx
  0000a	56		 push	 esi
  0000b	57		 push	 edi
  0000c	51		 push	 ecx
  0000d	8d bd 30 ff ff
	ff		 lea	 edi, DWORD PTR [ebp-208]
  00013	b9 34 00 00 00	 mov	 ecx, 52			; 00000034H
  00018	b8 cc cc cc cc	 mov	 eax, -858993460		; ccccccccH
  0001d	f3 ab		 rep stosd
  0001f	59		 pop	 ecx
  00020	89 4d f8	 mov	 DWORD PTR _this$[ebp], ecx
  00023	b9 00 00 00 00	 mov	 ecx, OFFSET __C564DC25_xstring
  00028	e8 00 00 00 00	 call	 @__CheckForDebuggerJustMyCode@4

; 2161 :         return _BUF_SIZE <= _Myres;

  0002d	8b 45 f8	 mov	 eax, DWORD PTR _this$[ebp]
  00030	83 78 18 10	 cmp	 DWORD PTR [eax+24], 16	; 00000010H
  00034	72 0c		 jb	 SHORT $LN3@Large_stri
  00036	c7 85 30 ff ff
	ff 01 00 00 00	 mov	 DWORD PTR tv66[ebp], 1
  00040	eb 0a		 jmp	 SHORT $LN4@Large_stri
$LN3@Large_stri:
  00042	c7 85 30 ff ff
	ff 00 00 00 00	 mov	 DWORD PTR tv66[ebp], 0
$LN4@Large_stri:
  0004c	8a 85 30 ff ff
	ff		 mov	 al, BYTE PTR tv66[ebp]

; 2162 :     }

  00052	5f		 pop	 edi
  00053	5e		 pop	 esi
  00054	5b		 pop	 ebx
  00055	81 c4 d0 00 00
	00		 add	 esp, 208		; 000000d0H
  0005b	3b ec		 cmp	 ebp, esp
  0005d	e8 00 00 00 00	 call	 __RTC_CheckEsp
  00062	8b e5		 mov	 esp, ebp
  00064	5d		 pop	 ebp
  00065	c3		 ret	 0
?_Large_string_engaged@?$_String_val@U?$_Simple_types@D@std@@@std@@QBE_NXZ ENDP ; std::_String_val<std::_Simple_types<char> >::_Large_string_engaged
_TEXT	ENDS
; Function compile flags: /Odtp /RTCsu /ZI
; File C:\Program Files (x86)\Microsoft Visual Studio\2019\Community\VC\Tools\MSVC\14.24.28314\include\xstring
;	COMDAT ?_Myptr@?$_String_val@U?$_Simple_types@D@std@@@std@@QBEPBDXZ
_TEXT	SEGMENT
__Result$ = -20						; size = 4
_this$ = -8						; size = 4
?_Myptr@?$_String_val@U?$_Simple_types@D@std@@@std@@QBEPBDXZ PROC ; std::_String_val<std::_Simple_types<char> >::_Myptr, COMDAT
; _this$ = ecx

; 2151 :     const value_type* _Myptr() const {

  00000	55		 push	 ebp
  00001	8b ec		 mov	 ebp, esp
  00003	81 ec d8 00 00
	00		 sub	 esp, 216		; 000000d8H
  00009	53		 push	 ebx
  0000a	56		 push	 esi
  0000b	57		 push	 edi
  0000c	51		 push	 ecx
  0000d	8d bd 28 ff ff
	ff		 lea	 edi, DWORD PTR [ebp-216]
  00013	b9 36 00 00 00	 mov	 ecx, 54			; 00000036H
  00018	b8 cc cc cc cc	 mov	 eax, -858993460		; ccccccccH
  0001d	f3 ab		 rep stosd
  0001f	59		 pop	 ecx
  00020	89 4d f8	 mov	 DWORD PTR _this$[ebp], ecx
  00023	b9 00 00 00 00	 mov	 ecx, OFFSET __C564DC25_xstring
  00028	e8 00 00 00 00	 call	 @__CheckForDebuggerJustMyCode@4

; 2152 :         const value_type* _Result = _Bx._Buf;

  0002d	8b 45 f8	 mov	 eax, DWORD PTR _this$[ebp]
  00030	83 c0 04	 add	 eax, 4
  00033	89 45 ec	 mov	 DWORD PTR __Result$[ebp], eax

; 2153 :         if (_Large_string_engaged()) {

  00036	8b 4d f8	 mov	 ecx, DWORD PTR _this$[ebp]
  00039	e8 00 00 00 00	 call	 ?_Large_string_engaged@?$_String_val@U?$_Simple_types@D@std@@@std@@QBE_NXZ ; std::_String_val<std::_Simple_types<char> >::_Large_string_engaged
  0003e	0f b6 c0	 movzx	 eax, al
  00041	85 c0		 test	 eax, eax
  00043	74 12		 je	 SHORT $LN2@Myptr

; 2154 :             _Result = _Unfancy(_Bx._Ptr);

  00045	8b 45 f8	 mov	 eax, DWORD PTR _this$[ebp]
  00048	8b 48 04	 mov	 ecx, DWORD PTR [eax+4]
  0004b	51		 push	 ecx
  0004c	e8 00 00 00 00	 call	 ??$_Unfancy@D@std@@YAPADPAD@Z ; std::_Unfancy<char>
  00051	83 c4 04	 add	 esp, 4
  00054	89 45 ec	 mov	 DWORD PTR __Result$[ebp], eax
$LN2@Myptr:

; 2155 :         }
; 2156 : 
; 2157 :         return _Result;

  00057	8b 45 ec	 mov	 eax, DWORD PTR __Result$[ebp]

; 2158 :     }

  0005a	5f		 pop	 edi
  0005b	5e		 pop	 esi
  0005c	5b		 pop	 ebx
  0005d	81 c4 d8 00 00
	00		 add	 esp, 216		; 000000d8H
  00063	3b ec		 cmp	 ebp, esp
  00065	e8 00 00 00 00	 call	 __RTC_CheckEsp
  0006a	8b e5		 mov	 esp, ebp
  0006c	5d		 pop	 ebp
  0006d	c3		 ret	 0
?_Myptr@?$_String_val@U?$_Simple_types@D@std@@@std@@QBEPBDXZ ENDP ; std::_String_val<std::_Simple_types<char> >::_Myptr
_TEXT	ENDS
; Function compile flags: /Odtp /RTCsu /ZI
; File C:\Program Files (x86)\Microsoft Visual Studio\2019\Community\VC\Tools\MSVC\14.24.28314\include\xstring
;	COMDAT ?_Myptr@?$_String_val@U?$_Simple_types@D@std@@@std@@QAEPADXZ
_TEXT	SEGMENT
__Result$ = -20						; size = 4
_this$ = -8						; size = 4
?_Myptr@?$_String_val@U?$_Simple_types@D@std@@@std@@QAEPADXZ PROC ; std::_String_val<std::_Simple_types<char> >::_Myptr, COMDAT
; _this$ = ecx

; 2142 :     value_type* _Myptr() {

  00000	55		 push	 ebp
  00001	8b ec		 mov	 ebp, esp
  00003	81 ec d8 00 00
	00		 sub	 esp, 216		; 000000d8H
  00009	53		 push	 ebx
  0000a	56		 push	 esi
  0000b	57		 push	 edi
  0000c	51		 push	 ecx
  0000d	8d bd 28 ff ff
	ff		 lea	 edi, DWORD PTR [ebp-216]
  00013	b9 36 00 00 00	 mov	 ecx, 54			; 00000036H
  00018	b8 cc cc cc cc	 mov	 eax, -858993460		; ccccccccH
  0001d	f3 ab		 rep stosd
  0001f	59		 pop	 ecx
  00020	89 4d f8	 mov	 DWORD PTR _this$[ebp], ecx
  00023	b9 00 00 00 00	 mov	 ecx, OFFSET __C564DC25_xstring
  00028	e8 00 00 00 00	 call	 @__CheckForDebuggerJustMyCode@4

; 2143 :         value_type* _Result = _Bx._Buf;

  0002d	8b 45 f8	 mov	 eax, DWORD PTR _this$[ebp]
  00030	83 c0 04	 add	 eax, 4
  00033	89 45 ec	 mov	 DWORD PTR __Result$[ebp], eax

; 2144 :         if (_Large_string_engaged()) {

  00036	8b 4d f8	 mov	 ecx, DWORD PTR _this$[ebp]
  00039	e8 00 00 00 00	 call	 ?_Large_string_engaged@?$_String_val@U?$_Simple_types@D@std@@@std@@QBE_NXZ ; std::_String_val<std::_Simple_types<char> >::_Large_string_engaged
  0003e	0f b6 c0	 movzx	 eax, al
  00041	85 c0		 test	 eax, eax
  00043	74 12		 je	 SHORT $LN2@Myptr

; 2145 :             _Result = _Unfancy(_Bx._Ptr);

  00045	8b 45 f8	 mov	 eax, DWORD PTR _this$[ebp]
  00048	8b 48 04	 mov	 ecx, DWORD PTR [eax+4]
  0004b	51		 push	 ecx
  0004c	e8 00 00 00 00	 call	 ??$_Unfancy@D@std@@YAPADPAD@Z ; std::_Unfancy<char>
  00051	83 c4 04	 add	 esp, 4
  00054	89 45 ec	 mov	 DWORD PTR __Result$[ebp], eax
$LN2@Myptr:

; 2146 :         }
; 2147 : 
; 2148 :         return _Result;

  00057	8b 45 ec	 mov	 eax, DWORD PTR __Result$[ebp]

; 2149 :     }

  0005a	5f		 pop	 edi
  0005b	5e		 pop	 esi
  0005c	5b		 pop	 ebx
  0005d	81 c4 d8 00 00
	00		 add	 esp, 216		; 000000d8H
  00063	3b ec		 cmp	 ebp, esp
  00065	e8 00 00 00 00	 call	 __RTC_CheckEsp
  0006a	8b e5		 mov	 esp, ebp
  0006c	5d		 pop	 ebp
  0006d	c3		 ret	 0
?_Myptr@?$_String_val@U?$_Simple_types@D@std@@@std@@QAEPADXZ ENDP ; std::_String_val<std::_Simple_types<char> >::_Myptr
_TEXT	ENDS
; Function compile flags: /Odtp /RTCsu /ZI
; File C:\Program Files (x86)\Microsoft Visual Studio\2019\Community\VC\Tools\MSVC\14.24.28314\include\xstring
;	COMDAT ??0?$_String_val@U?$_Simple_types@D@std@@@std@@QAE@XZ
_TEXT	SEGMENT
_this$ = -8						; size = 4
??0?$_String_val@U?$_Simple_types@D@std@@@std@@QAE@XZ PROC ; std::_String_val<std::_Simple_types<char> >::_String_val<std::_Simple_types<char> >, COMDAT
; _this$ = ecx

; 2132 :     _String_val() : _Bx(), _Mysize(0), _Myres(0) {}

  00000	55		 push	 ebp
  00001	8b ec		 mov	 ebp, esp
  00003	81 ec cc 00 00
	00		 sub	 esp, 204		; 000000ccH
  00009	53		 push	 ebx
  0000a	56		 push	 esi
  0000b	57		 push	 edi
  0000c	51		 push	 ecx
  0000d	8d bd 34 ff ff
	ff		 lea	 edi, DWORD PTR [ebp-204]
  00013	b9 33 00 00 00	 mov	 ecx, 51			; 00000033H
  00018	b8 cc cc cc cc	 mov	 eax, -858993460		; ccccccccH
  0001d	f3 ab		 rep stosd
  0001f	59		 pop	 ecx
  00020	89 4d f8	 mov	 DWORD PTR _this$[ebp], ecx
  00023	b9 00 00 00 00	 mov	 ecx, OFFSET __C564DC25_xstring
  00028	e8 00 00 00 00	 call	 @__CheckForDebuggerJustMyCode@4
  0002d	8b 4d f8	 mov	 ecx, DWORD PTR _this$[ebp]
  00030	e8 00 00 00 00	 call	 ??0_Container_base12@std@@QAE@XZ ; std::_Container_base12::_Container_base12
  00035	8b 4d f8	 mov	 ecx, DWORD PTR _this$[ebp]
  00038	83 c1 04	 add	 ecx, 4
  0003b	e8 00 00 00 00	 call	 ??0_Bxty@?$_String_val@U?$_Simple_types@D@std@@@std@@QAE@XZ ; std::_String_val<std::_Simple_types<char> >::_Bxty::_Bxty
  00040	8b 45 f8	 mov	 eax, DWORD PTR _this$[ebp]
  00043	c7 40 14 00 00
	00 00		 mov	 DWORD PTR [eax+20], 0
  0004a	8b 45 f8	 mov	 eax, DWORD PTR _this$[ebp]
  0004d	c7 40 18 00 00
	00 00		 mov	 DWORD PTR [eax+24], 0
  00054	8b 45 f8	 mov	 eax, DWORD PTR _this$[ebp]
  00057	5f		 pop	 edi
  00058	5e		 pop	 esi
  00059	5b		 pop	 ebx
  0005a	81 c4 cc 00 00
	00		 add	 esp, 204		; 000000ccH
  00060	3b ec		 cmp	 ebp, esp
  00062	e8 00 00 00 00	 call	 __RTC_CheckEsp
  00067	8b e5		 mov	 esp, ebp
  00069	5d		 pop	 ebp
  0006a	c3		 ret	 0
??0?$_String_val@U?$_Simple_types@D@std@@@std@@QAE@XZ ENDP ; std::_String_val<std::_Simple_types<char> >::_String_val<std::_Simple_types<char> >
_TEXT	ENDS
; Function compile flags: /Odtp /RTCsu /ZI
; File C:\Program Files (x86)\Microsoft Visual Studio\2019\Community\VC\Tools\MSVC\14.24.28314\include\xmemory
;	COMDAT ?max_size@?$_Default_allocator_traits@V?$allocator@D@std@@@std@@SAIABV?$allocator@D@2@@Z
_TEXT	SEGMENT
__$EHRec$ = -12						; size = 12
___formal$ = 8						; size = 4
?max_size@?$_Default_allocator_traits@V?$allocator@D@std@@@std@@SAIABV?$allocator@D@2@@Z PROC ; std::_Default_allocator_traits<std::allocator<char> >::max_size, COMDAT

; 679  :     _NODISCARD static size_type max_size(const _Alloc&) noexcept {

  00000	55		 push	 ebp
  00001	8b ec		 mov	 ebp, esp
  00003	6a ff		 push	 -1
  00005	68 00 00 00 00	 push	 __ehhandler$?max_size@?$_Default_allocator_traits@V?$allocator@D@std@@@std@@SAIABV?$allocator@D@2@@Z
  0000a	64 a1 00 00 00
	00		 mov	 eax, DWORD PTR fs:0
  00010	50		 push	 eax
  00011	81 ec c0 00 00
	00		 sub	 esp, 192		; 000000c0H
  00017	53		 push	 ebx
  00018	56		 push	 esi
  00019	57		 push	 edi
  0001a	8d bd 34 ff ff
	ff		 lea	 edi, DWORD PTR [ebp-204]
  00020	b9 30 00 00 00	 mov	 ecx, 48			; 00000030H
  00025	b8 cc cc cc cc	 mov	 eax, -858993460		; ccccccccH
  0002a	f3 ab		 rep stosd
  0002c	a1 00 00 00 00	 mov	 eax, DWORD PTR ___security_cookie
  00031	33 c5		 xor	 eax, ebp
  00033	50		 push	 eax
  00034	8d 45 f4	 lea	 eax, DWORD PTR __$EHRec$[ebp]
  00037	64 a3 00 00 00
	00		 mov	 DWORD PTR fs:0, eax
  0003d	b9 00 00 00 00	 mov	 ecx, OFFSET __B1B75AB9_xmemory
  00042	e8 00 00 00 00	 call	 @__CheckForDebuggerJustMyCode@4

; 680  :         return static_cast<size_t>(-1) / sizeof(value_type);

  00047	83 c8 ff	 or	 eax, -1

; 681  :     }

  0004a	8b 4d f4	 mov	 ecx, DWORD PTR __$EHRec$[ebp]
  0004d	64 89 0d 00 00
	00 00		 mov	 DWORD PTR fs:0, ecx
  00054	59		 pop	 ecx
  00055	5f		 pop	 edi
  00056	5e		 pop	 esi
  00057	5b		 pop	 ebx
  00058	81 c4 cc 00 00
	00		 add	 esp, 204		; 000000ccH
  0005e	3b ec		 cmp	 ebp, esp
  00060	e8 00 00 00 00	 call	 __RTC_CheckEsp
  00065	8b e5		 mov	 esp, ebp
  00067	5d		 pop	 ebp
  00068	c3		 ret	 0
_TEXT	ENDS
;	COMDAT text$x
text$x	SEGMENT
__ehhandler$?max_size@?$_Default_allocator_traits@V?$allocator@D@std@@@std@@SAIABV?$allocator@D@2@@Z:
  00000	8b 54 24 08	 mov	 edx, DWORD PTR [esp+8]
  00004	8d 42 0c	 lea	 eax, DWORD PTR [edx+12]
  00007	8b 8a 30 ff ff
	ff		 mov	 ecx, DWORD PTR [edx-208]
  0000d	33 c8		 xor	 ecx, eax
  0000f	e8 00 00 00 00	 call	 @__security_check_cookie@4
  00014	b8 00 00 00 00	 mov	 eax, OFFSET __ehfuncinfo$?max_size@?$_Default_allocator_traits@V?$allocator@D@std@@@std@@SAIABV?$allocator@D@2@@Z
  00019	e9 00 00 00 00	 jmp	 ___CxxFrameHandler3
text$x	ENDS
?max_size@?$_Default_allocator_traits@V?$allocator@D@std@@@std@@SAIABV?$allocator@D@2@@Z ENDP ; std::_Default_allocator_traits<std::allocator<char> >::max_size
; Function compile flags: /Odtp /RTCsu /ZI
; File C:\Program Files (x86)\Microsoft Visual Studio\2019\Community\VC\Tools\MSVC\14.24.28314\include\xmemory
;	COMDAT ?allocate@?$allocator@D@std@@QAEPADI@Z
_TEXT	SEGMENT
_this$ = -8						; size = 4
__Count$ = 8						; size = 4
?allocate@?$allocator@D@std@@QAEPADI@Z PROC		; std::allocator<char>::allocate, COMDAT
; _this$ = ecx

; 783  :     _NODISCARD _DECLSPEC_ALLOCATOR _Ty* allocate(_CRT_GUARDOVERFLOW const size_t _Count) {

  00000	55		 push	 ebp
  00001	8b ec		 mov	 ebp, esp
  00003	81 ec cc 00 00
	00		 sub	 esp, 204		; 000000ccH
  00009	53		 push	 ebx
  0000a	56		 push	 esi
  0000b	57		 push	 edi
  0000c	51		 push	 ecx
  0000d	8d bd 34 ff ff
	ff		 lea	 edi, DWORD PTR [ebp-204]
  00013	b9 33 00 00 00	 mov	 ecx, 51			; 00000033H
  00018	b8 cc cc cc cc	 mov	 eax, -858993460		; ccccccccH
  0001d	f3 ab		 rep stosd
  0001f	59		 pop	 ecx
  00020	89 4d f8	 mov	 DWORD PTR _this$[ebp], ecx
  00023	b9 00 00 00 00	 mov	 ecx, OFFSET __B1B75AB9_xmemory
  00028	e8 00 00 00 00	 call	 @__CheckForDebuggerJustMyCode@4

; 784  :         return static_cast<_Ty*>(_Allocate<_New_alignof<_Ty>>(_Get_size_of_n<sizeof(_Ty)>(_Count)));

  0002d	8b 45 08	 mov	 eax, DWORD PTR __Count$[ebp]
  00030	50		 push	 eax
  00031	e8 00 00 00 00	 call	 ??$_Get_size_of_n@$00@std@@YAII@Z ; std::_Get_size_of_n<1>
  00036	83 c4 04	 add	 esp, 4
  00039	50		 push	 eax
  0003a	e8 00 00 00 00	 call	 ??$_Allocate@$07U_Default_allocate_traits@std@@$0A@@std@@YAPAXI@Z ; std::_Allocate<8,std::_Default_allocate_traits,0>
  0003f	83 c4 04	 add	 esp, 4

; 785  :     }

  00042	5f		 pop	 edi
  00043	5e		 pop	 esi
  00044	5b		 pop	 ebx
  00045	81 c4 cc 00 00
	00		 add	 esp, 204		; 000000ccH
  0004b	3b ec		 cmp	 ebp, esp
  0004d	e8 00 00 00 00	 call	 __RTC_CheckEsp
  00052	8b e5		 mov	 esp, ebp
  00054	5d		 pop	 ebp
  00055	c2 04 00	 ret	 4
?allocate@?$allocator@D@std@@QAEPADI@Z ENDP		; std::allocator<char>::allocate
_TEXT	ENDS
; Function compile flags: /Odtp /RTCsu /ZI
; File C:\Program Files (x86)\Microsoft Visual Studio\2019\Community\VC\Tools\MSVC\14.24.28314\include\xmemory
;	COMDAT ?deallocate@?$allocator@D@std@@QAEXQADI@Z
_TEXT	SEGMENT
_this$ = -8						; size = 4
__Ptr$ = 8						; size = 4
__Count$ = 12						; size = 4
?deallocate@?$allocator@D@std@@QAEXQADI@Z PROC		; std::allocator<char>::deallocate, COMDAT
; _this$ = ecx

; 778  :     void deallocate(_Ty* const _Ptr, const size_t _Count) {

  00000	55		 push	 ebp
  00001	8b ec		 mov	 ebp, esp
  00003	81 ec cc 00 00
	00		 sub	 esp, 204		; 000000ccH
  00009	53		 push	 ebx
  0000a	56		 push	 esi
  0000b	57		 push	 edi
  0000c	51		 push	 ecx
  0000d	8d bd 34 ff ff
	ff		 lea	 edi, DWORD PTR [ebp-204]
  00013	b9 33 00 00 00	 mov	 ecx, 51			; 00000033H
  00018	b8 cc cc cc cc	 mov	 eax, -858993460		; ccccccccH
  0001d	f3 ab		 rep stosd
  0001f	59		 pop	 ecx
  00020	89 4d f8	 mov	 DWORD PTR _this$[ebp], ecx
  00023	b9 00 00 00 00	 mov	 ecx, OFFSET __B1B75AB9_xmemory
  00028	e8 00 00 00 00	 call	 @__CheckForDebuggerJustMyCode@4

; 779  :         // no overflow check on the following multiply; we assume _Allocate did that check
; 780  :         _Deallocate<_New_alignof<_Ty>>(_Ptr, sizeof(_Ty) * _Count);

  0002d	8b 45 0c	 mov	 eax, DWORD PTR __Count$[ebp]
  00030	50		 push	 eax
  00031	8b 4d 08	 mov	 ecx, DWORD PTR __Ptr$[ebp]
  00034	51		 push	 ecx
  00035	e8 00 00 00 00	 call	 ??$_Deallocate@$07$0A@@std@@YAXPAXI@Z ; std::_Deallocate<8,0>
  0003a	83 c4 08	 add	 esp, 8

; 781  :     }

  0003d	5f		 pop	 edi
  0003e	5e		 pop	 esi
  0003f	5b		 pop	 ebx
  00040	81 c4 cc 00 00
	00		 add	 esp, 204		; 000000ccH
  00046	3b ec		 cmp	 ebp, esp
  00048	e8 00 00 00 00	 call	 __RTC_CheckEsp
  0004d	8b e5		 mov	 esp, ebp
  0004f	5d		 pop	 ebp
  00050	c2 08 00	 ret	 8
?deallocate@?$allocator@D@std@@QAEXQADI@Z ENDP		; std::allocator<char>::deallocate
_TEXT	ENDS
; Function compile flags: /Odtp /RTCsu /ZI
; File C:\Program Files (x86)\Microsoft Visual Studio\2019\Community\VC\Tools\MSVC\14.24.28314\include\xmemory
;	COMDAT ??0?$allocator@D@std@@QAE@XZ
_TEXT	SEGMENT
_this$ = -20						; size = 4
__$EHRec$ = -12						; size = 12
??0?$allocator@D@std@@QAE@XZ PROC			; std::allocator<char>::allocator<char>, COMDAT
; _this$ = ecx

; 772  :     constexpr allocator() noexcept {}

  00000	55		 push	 ebp
  00001	8b ec		 mov	 ebp, esp
  00003	6a ff		 push	 -1
  00005	68 00 00 00 00	 push	 __ehhandler$??0?$allocator@D@std@@QAE@XZ
  0000a	64 a1 00 00 00
	00		 mov	 eax, DWORD PTR fs:0
  00010	50		 push	 eax
  00011	81 ec cc 00 00
	00		 sub	 esp, 204		; 000000ccH
  00017	53		 push	 ebx
  00018	56		 push	 esi
  00019	57		 push	 edi
  0001a	51		 push	 ecx
  0001b	8d bd 28 ff ff
	ff		 lea	 edi, DWORD PTR [ebp-216]
  00021	b9 33 00 00 00	 mov	 ecx, 51			; 00000033H
  00026	b8 cc cc cc cc	 mov	 eax, -858993460		; ccccccccH
  0002b	f3 ab		 rep stosd
  0002d	59		 pop	 ecx
  0002e	a1 00 00 00 00	 mov	 eax, DWORD PTR ___security_cookie
  00033	33 c5		 xor	 eax, ebp
  00035	50		 push	 eax
  00036	8d 45 f4	 lea	 eax, DWORD PTR __$EHRec$[ebp]
  00039	64 a3 00 00 00
	00		 mov	 DWORD PTR fs:0, eax
  0003f	89 4d ec	 mov	 DWORD PTR _this$[ebp], ecx
  00042	b9 00 00 00 00	 mov	 ecx, OFFSET __B1B75AB9_xmemory
  00047	e8 00 00 00 00	 call	 @__CheckForDebuggerJustMyCode@4
  0004c	8b 45 ec	 mov	 eax, DWORD PTR _this$[ebp]
  0004f	8b 4d f4	 mov	 ecx, DWORD PTR __$EHRec$[ebp]
  00052	64 89 0d 00 00
	00 00		 mov	 DWORD PTR fs:0, ecx
  00059	59		 pop	 ecx
  0005a	5f		 pop	 edi
  0005b	5e		 pop	 esi
  0005c	5b		 pop	 ebx
  0005d	81 c4 d8 00 00
	00		 add	 esp, 216		; 000000d8H
  00063	3b ec		 cmp	 ebp, esp
  00065	e8 00 00 00 00	 call	 __RTC_CheckEsp
  0006a	8b e5		 mov	 esp, ebp
  0006c	5d		 pop	 ebp
  0006d	c3		 ret	 0
_TEXT	ENDS
;	COMDAT text$x
text$x	SEGMENT
__ehhandler$??0?$allocator@D@std@@QAE@XZ:
  00000	8b 54 24 08	 mov	 edx, DWORD PTR [esp+8]
  00004	8d 42 0c	 lea	 eax, DWORD PTR [edx+12]
  00007	8b 8a 24 ff ff
	ff		 mov	 ecx, DWORD PTR [edx-220]
  0000d	33 c8		 xor	 ecx, eax
  0000f	e8 00 00 00 00	 call	 @__security_check_cookie@4
  00014	b8 00 00 00 00	 mov	 eax, OFFSET __ehfuncinfo$??0?$allocator@D@std@@QAE@XZ
  00019	e9 00 00 00 00	 jmp	 ___CxxFrameHandler3
text$x	ENDS
??0?$allocator@D@std@@QAE@XZ ENDP			; std::allocator<char>::allocator<char>
; Function compile flags: /Odtp /RTCsu /ZI
; File C:\Program Files (x86)\Microsoft Visual Studio\2019\Community\VC\Tools\MSVC\14.24.28314\include\utility
;	COMDAT ??$_Min_value@I@std@@YAABIABI0@Z
_TEXT	SEGMENT
tv65 = -220						; size = 4
$T2 = -212						; size = 4
__$EHRec$ = -12						; size = 12
__Left$ = 8						; size = 4
__Right$ = 12						; size = 4
??$_Min_value@I@std@@YAABIABI0@Z PROC			; std::_Min_value<unsigned int>, COMDAT

; 29   :     const _Ty& _Left, const _Ty& _Right) noexcept(noexcept(_Right < _Left)) {

  00000	55		 push	 ebp
  00001	8b ec		 mov	 ebp, esp
  00003	6a ff		 push	 -1
  00005	68 00 00 00 00	 push	 __ehhandler$??$_Min_value@I@std@@YAABIABI0@Z
  0000a	64 a1 00 00 00
	00		 mov	 eax, DWORD PTR fs:0
  00010	50		 push	 eax
  00011	81 ec d0 00 00
	00		 sub	 esp, 208		; 000000d0H
  00017	53		 push	 ebx
  00018	56		 push	 esi
  00019	57		 push	 edi
  0001a	8d bd 24 ff ff
	ff		 lea	 edi, DWORD PTR [ebp-220]
  00020	b9 34 00 00 00	 mov	 ecx, 52			; 00000034H
  00025	b8 cc cc cc cc	 mov	 eax, -858993460		; ccccccccH
  0002a	f3 ab		 rep stosd
  0002c	a1 00 00 00 00	 mov	 eax, DWORD PTR ___security_cookie
  00031	33 c5		 xor	 eax, ebp
  00033	50		 push	 eax
  00034	8d 45 f4	 lea	 eax, DWORD PTR __$EHRec$[ebp]
  00037	64 a3 00 00 00
	00		 mov	 DWORD PTR fs:0, eax
  0003d	b9 00 00 00 00	 mov	 ecx, OFFSET __DB22397A_utility
  00042	e8 00 00 00 00	 call	 @__CheckForDebuggerJustMyCode@4

; 30   :     return _Right < _Left ? _Right : _Left;

  00047	8b 45 0c	 mov	 eax, DWORD PTR __Right$[ebp]
  0004a	8b 4d 08	 mov	 ecx, DWORD PTR __Left$[ebp]
  0004d	8b 10		 mov	 edx, DWORD PTR [eax]
  0004f	3b 11		 cmp	 edx, DWORD PTR [ecx]
  00051	73 0b		 jae	 SHORT $LN3@Min_value
  00053	8b 45 0c	 mov	 eax, DWORD PTR __Right$[ebp]
  00056	89 85 24 ff ff
	ff		 mov	 DWORD PTR tv65[ebp], eax
  0005c	eb 09		 jmp	 SHORT $LN4@Min_value
$LN3@Min_value:
  0005e	8b 4d 08	 mov	 ecx, DWORD PTR __Left$[ebp]
  00061	89 8d 24 ff ff
	ff		 mov	 DWORD PTR tv65[ebp], ecx
$LN4@Min_value:
  00067	8b 95 24 ff ff
	ff		 mov	 edx, DWORD PTR tv65[ebp]
  0006d	89 95 2c ff ff
	ff		 mov	 DWORD PTR $T2[ebp], edx
  00073	8b 85 2c ff ff
	ff		 mov	 eax, DWORD PTR $T2[ebp]

; 31   : }

  00079	8b 4d f4	 mov	 ecx, DWORD PTR __$EHRec$[ebp]
  0007c	64 89 0d 00 00
	00 00		 mov	 DWORD PTR fs:0, ecx
  00083	59		 pop	 ecx
  00084	5f		 pop	 edi
  00085	5e		 pop	 esi
  00086	5b		 pop	 ebx
  00087	81 c4 dc 00 00
	00		 add	 esp, 220		; 000000dcH
  0008d	3b ec		 cmp	 ebp, esp
  0008f	e8 00 00 00 00	 call	 __RTC_CheckEsp
  00094	8b e5		 mov	 esp, ebp
  00096	5d		 pop	 ebp
  00097	c3		 ret	 0
_TEXT	ENDS
;	COMDAT text$x
text$x	SEGMENT
__ehhandler$??$_Min_value@I@std@@YAABIABI0@Z:
  00000	8b 54 24 08	 mov	 edx, DWORD PTR [esp+8]
  00004	8d 42 0c	 lea	 eax, DWORD PTR [edx+12]
  00007	8b 8a 20 ff ff
	ff		 mov	 ecx, DWORD PTR [edx-224]
  0000d	33 c8		 xor	 ecx, eax
  0000f	e8 00 00 00 00	 call	 @__security_check_cookie@4
  00014	b8 00 00 00 00	 mov	 eax, OFFSET __ehfuncinfo$??$_Min_value@I@std@@YAABIABI0@Z
  00019	e9 00 00 00 00	 jmp	 ___CxxFrameHandler3
text$x	ENDS
??$_Min_value@I@std@@YAABIABI0@Z ENDP			; std::_Min_value<unsigned int>
; Function compile flags: /Odtp /RTCsu /ZI
; File C:\Program Files (x86)\Microsoft Visual Studio\2019\Community\VC\Tools\MSVC\14.24.28314\include\xstring
;	COMDAT ?eof@?$_Narrow_char_traits@DH@std@@SAHXZ
_TEXT	SEGMENT
__$EHRec$ = -12						; size = 12
?eof@?$_Narrow_char_traits@DH@std@@SAHXZ PROC		; std::_Narrow_char_traits<char,int>::eof, COMDAT

; 404  :     _NODISCARD static constexpr int_type eof() noexcept {

  00000	55		 push	 ebp
  00001	8b ec		 mov	 ebp, esp
  00003	6a ff		 push	 -1
  00005	68 00 00 00 00	 push	 __ehhandler$?eof@?$_Narrow_char_traits@DH@std@@SAHXZ
  0000a	64 a1 00 00 00
	00		 mov	 eax, DWORD PTR fs:0
  00010	50		 push	 eax
  00011	81 ec c0 00 00
	00		 sub	 esp, 192		; 000000c0H
  00017	53		 push	 ebx
  00018	56		 push	 esi
  00019	57		 push	 edi
  0001a	8d bd 34 ff ff
	ff		 lea	 edi, DWORD PTR [ebp-204]
  00020	b9 30 00 00 00	 mov	 ecx, 48			; 00000030H
  00025	b8 cc cc cc cc	 mov	 eax, -858993460		; ccccccccH
  0002a	f3 ab		 rep stosd
  0002c	a1 00 00 00 00	 mov	 eax, DWORD PTR ___security_cookie
  00031	33 c5		 xor	 eax, ebp
  00033	50		 push	 eax
  00034	8d 45 f4	 lea	 eax, DWORD PTR __$EHRec$[ebp]
  00037	64 a3 00 00 00
	00		 mov	 DWORD PTR fs:0, eax
  0003d	b9 00 00 00 00	 mov	 ecx, OFFSET __C564DC25_xstring
  00042	e8 00 00 00 00	 call	 @__CheckForDebuggerJustMyCode@4

; 405  :         return static_cast<int_type>(EOF);

  00047	83 c8 ff	 or	 eax, -1

; 406  :     }

  0004a	8b 4d f4	 mov	 ecx, DWORD PTR __$EHRec$[ebp]
  0004d	64 89 0d 00 00
	00 00		 mov	 DWORD PTR fs:0, ecx
  00054	59		 pop	 ecx
  00055	5f		 pop	 edi
  00056	5e		 pop	 esi
  00057	5b		 pop	 ebx
  00058	81 c4 cc 00 00
	00		 add	 esp, 204		; 000000ccH
  0005e	3b ec		 cmp	 ebp, esp
  00060	e8 00 00 00 00	 call	 __RTC_CheckEsp
  00065	8b e5		 mov	 esp, ebp
  00067	5d		 pop	 ebp
  00068	c3		 ret	 0
_TEXT	ENDS
;	COMDAT text$x
text$x	SEGMENT
__ehhandler$?eof@?$_Narrow_char_traits@DH@std@@SAHXZ:
  00000	8b 54 24 08	 mov	 edx, DWORD PTR [esp+8]
  00004	8d 42 0c	 lea	 eax, DWORD PTR [edx+12]
  00007	8b 8a 30 ff ff
	ff		 mov	 ecx, DWORD PTR [edx-208]
  0000d	33 c8		 xor	 ecx, eax
  0000f	e8 00 00 00 00	 call	 @__security_check_cookie@4
  00014	b8 00 00 00 00	 mov	 eax, OFFSET __ehfuncinfo$?eof@?$_Narrow_char_traits@DH@std@@SAHXZ
  00019	e9 00 00 00 00	 jmp	 ___CxxFrameHandler3
text$x	ENDS
?eof@?$_Narrow_char_traits@DH@std@@SAHXZ ENDP		; std::_Narrow_char_traits<char,int>::eof
; Function compile flags: /Odtp /RTCsu /ZI
; File C:\Program Files (x86)\Microsoft Visual Studio\2019\Community\VC\Tools\MSVC\14.24.28314\include\xstring
;	COMDAT ?not_eof@?$_Narrow_char_traits@DH@std@@SAHABH@Z
_TEXT	SEGMENT
tv68 = -212						; size = 4
tv69 = -208						; size = 4
__$EHRec$ = -12						; size = 12
__Meta$ = 8						; size = 4
?not_eof@?$_Narrow_char_traits@DH@std@@SAHABH@Z PROC	; std::_Narrow_char_traits<char,int>::not_eof, COMDAT

; 400  :     _NODISCARD static constexpr int_type not_eof(const int_type& _Meta) noexcept {

  00000	55		 push	 ebp
  00001	8b ec		 mov	 ebp, esp
  00003	6a ff		 push	 -1
  00005	68 00 00 00 00	 push	 __ehhandler$?not_eof@?$_Narrow_char_traits@DH@std@@SAHABH@Z
  0000a	64 a1 00 00 00
	00		 mov	 eax, DWORD PTR fs:0
  00010	50		 push	 eax
  00011	81 ec c8 00 00
	00		 sub	 esp, 200		; 000000c8H
  00017	53		 push	 ebx
  00018	56		 push	 esi
  00019	57		 push	 edi
  0001a	8d bd 2c ff ff
	ff		 lea	 edi, DWORD PTR [ebp-212]
  00020	b9 32 00 00 00	 mov	 ecx, 50			; 00000032H
  00025	b8 cc cc cc cc	 mov	 eax, -858993460		; ccccccccH
  0002a	f3 ab		 rep stosd
  0002c	a1 00 00 00 00	 mov	 eax, DWORD PTR ___security_cookie
  00031	33 c5		 xor	 eax, ebp
  00033	50		 push	 eax
  00034	8d 45 f4	 lea	 eax, DWORD PTR __$EHRec$[ebp]
  00037	64 a3 00 00 00
	00		 mov	 DWORD PTR fs:0, eax
  0003d	b9 00 00 00 00	 mov	 ecx, OFFSET __C564DC25_xstring
  00042	e8 00 00 00 00	 call	 @__CheckForDebuggerJustMyCode@4

; 401  :         return _Meta != eof() ? _Meta : !eof();

  00047	e8 00 00 00 00	 call	 ?eof@?$_Narrow_char_traits@DH@std@@SAHXZ ; std::_Narrow_char_traits<char,int>::eof
  0004c	8b 4d 08	 mov	 ecx, DWORD PTR __Meta$[ebp]
  0004f	39 01		 cmp	 DWORD PTR [ecx], eax
  00051	74 0d		 je	 SHORT $LN5@not_eof
  00053	8b 55 08	 mov	 edx, DWORD PTR __Meta$[ebp]
  00056	8b 02		 mov	 eax, DWORD PTR [edx]
  00058	89 85 30 ff ff
	ff		 mov	 DWORD PTR tv69[ebp], eax
  0005e	eb 2b		 jmp	 SHORT $LN6@not_eof
$LN5@not_eof:
  00060	e8 00 00 00 00	 call	 ?eof@?$_Narrow_char_traits@DH@std@@SAHXZ ; std::_Narrow_char_traits<char,int>::eof
  00065	85 c0		 test	 eax, eax
  00067	75 0c		 jne	 SHORT $LN3@not_eof
  00069	c7 85 2c ff ff
	ff 01 00 00 00	 mov	 DWORD PTR tv68[ebp], 1
  00073	eb 0a		 jmp	 SHORT $LN4@not_eof
$LN3@not_eof:
  00075	c7 85 2c ff ff
	ff 00 00 00 00	 mov	 DWORD PTR tv68[ebp], 0
$LN4@not_eof:
  0007f	8b 8d 2c ff ff
	ff		 mov	 ecx, DWORD PTR tv68[ebp]
  00085	89 8d 30 ff ff
	ff		 mov	 DWORD PTR tv69[ebp], ecx
$LN6@not_eof:
  0008b	8b 85 30 ff ff
	ff		 mov	 eax, DWORD PTR tv69[ebp]

; 402  :     }

  00091	8b 4d f4	 mov	 ecx, DWORD PTR __$EHRec$[ebp]
  00094	64 89 0d 00 00
	00 00		 mov	 DWORD PTR fs:0, ecx
  0009b	59		 pop	 ecx
  0009c	5f		 pop	 edi
  0009d	5e		 pop	 esi
  0009e	5b		 pop	 ebx
  0009f	81 c4 d4 00 00
	00		 add	 esp, 212		; 000000d4H
  000a5	3b ec		 cmp	 ebp, esp
  000a7	e8 00 00 00 00	 call	 __RTC_CheckEsp
  000ac	8b e5		 mov	 esp, ebp
  000ae	5d		 pop	 ebp
  000af	c3		 ret	 0
_TEXT	ENDS
;	COMDAT text$x
text$x	SEGMENT
__ehhandler$?not_eof@?$_Narrow_char_traits@DH@std@@SAHABH@Z:
  00000	8b 54 24 08	 mov	 edx, DWORD PTR [esp+8]
  00004	8d 42 0c	 lea	 eax, DWORD PTR [edx+12]
  00007	8b 8a 28 ff ff
	ff		 mov	 ecx, DWORD PTR [edx-216]
  0000d	33 c8		 xor	 ecx, eax
  0000f	e8 00 00 00 00	 call	 @__security_check_cookie@4
  00014	b8 00 00 00 00	 mov	 eax, OFFSET __ehfuncinfo$?not_eof@?$_Narrow_char_traits@DH@std@@SAHABH@Z
  00019	e9 00 00 00 00	 jmp	 ___CxxFrameHandler3
text$x	ENDS
?not_eof@?$_Narrow_char_traits@DH@std@@SAHABH@Z ENDP	; std::_Narrow_char_traits<char,int>::not_eof
; Function compile flags: /Odtp /RTCsu /ZI
; File C:\Program Files (x86)\Microsoft Visual Studio\2019\Community\VC\Tools\MSVC\14.24.28314\include\xstring
;	COMDAT ?eq_int_type@?$_Narrow_char_traits@DH@std@@SA_NABH0@Z
_TEXT	SEGMENT
tv65 = -208						; size = 4
__$EHRec$ = -12						; size = 12
__Left$ = 8						; size = 4
__Right$ = 12						; size = 4
?eq_int_type@?$_Narrow_char_traits@DH@std@@SA_NABH0@Z PROC ; std::_Narrow_char_traits<char,int>::eq_int_type, COMDAT

; 396  :     _NODISCARD static constexpr bool eq_int_type(const int_type& _Left, const int_type& _Right) noexcept {

  00000	55		 push	 ebp
  00001	8b ec		 mov	 ebp, esp
  00003	6a ff		 push	 -1
  00005	68 00 00 00 00	 push	 __ehhandler$?eq_int_type@?$_Narrow_char_traits@DH@std@@SA_NABH0@Z
  0000a	64 a1 00 00 00
	00		 mov	 eax, DWORD PTR fs:0
  00010	50		 push	 eax
  00011	81 ec c4 00 00
	00		 sub	 esp, 196		; 000000c4H
  00017	53		 push	 ebx
  00018	56		 push	 esi
  00019	57		 push	 edi
  0001a	8d bd 30 ff ff
	ff		 lea	 edi, DWORD PTR [ebp-208]
  00020	b9 31 00 00 00	 mov	 ecx, 49			; 00000031H
  00025	b8 cc cc cc cc	 mov	 eax, -858993460		; ccccccccH
  0002a	f3 ab		 rep stosd
  0002c	a1 00 00 00 00	 mov	 eax, DWORD PTR ___security_cookie
  00031	33 c5		 xor	 eax, ebp
  00033	50		 push	 eax
  00034	8d 45 f4	 lea	 eax, DWORD PTR __$EHRec$[ebp]
  00037	64 a3 00 00 00
	00		 mov	 DWORD PTR fs:0, eax
  0003d	b9 00 00 00 00	 mov	 ecx, OFFSET __C564DC25_xstring
  00042	e8 00 00 00 00	 call	 @__CheckForDebuggerJustMyCode@4

; 397  :         return _Left == _Right;

  00047	8b 45 08	 mov	 eax, DWORD PTR __Left$[ebp]
  0004a	8b 4d 0c	 mov	 ecx, DWORD PTR __Right$[ebp]
  0004d	8b 10		 mov	 edx, DWORD PTR [eax]
  0004f	3b 11		 cmp	 edx, DWORD PTR [ecx]
  00051	75 0c		 jne	 SHORT $LN3@eq_int_typ
  00053	c7 85 30 ff ff
	ff 01 00 00 00	 mov	 DWORD PTR tv65[ebp], 1
  0005d	eb 0a		 jmp	 SHORT $LN4@eq_int_typ
$LN3@eq_int_typ:
  0005f	c7 85 30 ff ff
	ff 00 00 00 00	 mov	 DWORD PTR tv65[ebp], 0
$LN4@eq_int_typ:
  00069	8a 85 30 ff ff
	ff		 mov	 al, BYTE PTR tv65[ebp]

; 398  :     }

  0006f	8b 4d f4	 mov	 ecx, DWORD PTR __$EHRec$[ebp]
  00072	64 89 0d 00 00
	00 00		 mov	 DWORD PTR fs:0, ecx
  00079	59		 pop	 ecx
  0007a	5f		 pop	 edi
  0007b	5e		 pop	 esi
  0007c	5b		 pop	 ebx
  0007d	81 c4 d0 00 00
	00		 add	 esp, 208		; 000000d0H
  00083	3b ec		 cmp	 ebp, esp
  00085	e8 00 00 00 00	 call	 __RTC_CheckEsp
  0008a	8b e5		 mov	 esp, ebp
  0008c	5d		 pop	 ebp
  0008d	c3		 ret	 0
_TEXT	ENDS
;	COMDAT text$x
text$x	SEGMENT
__ehhandler$?eq_int_type@?$_Narrow_char_traits@DH@std@@SA_NABH0@Z:
  00000	8b 54 24 08	 mov	 edx, DWORD PTR [esp+8]
  00004	8d 42 0c	 lea	 eax, DWORD PTR [edx+12]
  00007	8b 8a 2c ff ff
	ff		 mov	 ecx, DWORD PTR [edx-212]
  0000d	33 c8		 xor	 ecx, eax
  0000f	e8 00 00 00 00	 call	 @__security_check_cookie@4
  00014	b8 00 00 00 00	 mov	 eax, OFFSET __ehfuncinfo$?eq_int_type@?$_Narrow_char_traits@DH@std@@SA_NABH0@Z
  00019	e9 00 00 00 00	 jmp	 ___CxxFrameHandler3
text$x	ENDS
?eq_int_type@?$_Narrow_char_traits@DH@std@@SA_NABH0@Z ENDP ; std::_Narrow_char_traits<char,int>::eq_int_type
; Function compile flags: /Odtp /RTCsu /ZI
; File C:\Program Files (x86)\Microsoft Visual Studio\2019\Community\VC\Tools\MSVC\14.24.28314\include\xstring
;	COMDAT ?to_int_type@?$_Narrow_char_traits@DH@std@@SAHABD@Z
_TEXT	SEGMENT
__$EHRec$ = -12						; size = 12
__Ch$ = 8						; size = 4
?to_int_type@?$_Narrow_char_traits@DH@std@@SAHABD@Z PROC ; std::_Narrow_char_traits<char,int>::to_int_type, COMDAT

; 392  :     _NODISCARD static constexpr int_type to_int_type(const _Elem& _Ch) noexcept {

  00000	55		 push	 ebp
  00001	8b ec		 mov	 ebp, esp
  00003	6a ff		 push	 -1
  00005	68 00 00 00 00	 push	 __ehhandler$?to_int_type@?$_Narrow_char_traits@DH@std@@SAHABD@Z
  0000a	64 a1 00 00 00
	00		 mov	 eax, DWORD PTR fs:0
  00010	50		 push	 eax
  00011	81 ec c0 00 00
	00		 sub	 esp, 192		; 000000c0H
  00017	53		 push	 ebx
  00018	56		 push	 esi
  00019	57		 push	 edi
  0001a	8d bd 34 ff ff
	ff		 lea	 edi, DWORD PTR [ebp-204]
  00020	b9 30 00 00 00	 mov	 ecx, 48			; 00000030H
  00025	b8 cc cc cc cc	 mov	 eax, -858993460		; ccccccccH
  0002a	f3 ab		 rep stosd
  0002c	a1 00 00 00 00	 mov	 eax, DWORD PTR ___security_cookie
  00031	33 c5		 xor	 eax, ebp
  00033	50		 push	 eax
  00034	8d 45 f4	 lea	 eax, DWORD PTR __$EHRec$[ebp]
  00037	64 a3 00 00 00
	00		 mov	 DWORD PTR fs:0, eax
  0003d	b9 00 00 00 00	 mov	 ecx, OFFSET __C564DC25_xstring
  00042	e8 00 00 00 00	 call	 @__CheckForDebuggerJustMyCode@4

; 393  :         return static_cast<unsigned char>(_Ch);

  00047	8b 45 08	 mov	 eax, DWORD PTR __Ch$[ebp]
  0004a	0f b6 00	 movzx	 eax, BYTE PTR [eax]

; 394  :     }

  0004d	8b 4d f4	 mov	 ecx, DWORD PTR __$EHRec$[ebp]
  00050	64 89 0d 00 00
	00 00		 mov	 DWORD PTR fs:0, ecx
  00057	59		 pop	 ecx
  00058	5f		 pop	 edi
  00059	5e		 pop	 esi
  0005a	5b		 pop	 ebx
  0005b	81 c4 cc 00 00
	00		 add	 esp, 204		; 000000ccH
  00061	3b ec		 cmp	 ebp, esp
  00063	e8 00 00 00 00	 call	 __RTC_CheckEsp
  00068	8b e5		 mov	 esp, ebp
  0006a	5d		 pop	 ebp
  0006b	c3		 ret	 0
_TEXT	ENDS
;	COMDAT text$x
text$x	SEGMENT
__ehhandler$?to_int_type@?$_Narrow_char_traits@DH@std@@SAHABD@Z:
  00000	8b 54 24 08	 mov	 edx, DWORD PTR [esp+8]
  00004	8d 42 0c	 lea	 eax, DWORD PTR [edx+12]
  00007	8b 8a 30 ff ff
	ff		 mov	 ecx, DWORD PTR [edx-208]
  0000d	33 c8		 xor	 ecx, eax
  0000f	e8 00 00 00 00	 call	 @__security_check_cookie@4
  00014	b8 00 00 00 00	 mov	 eax, OFFSET __ehfuncinfo$?to_int_type@?$_Narrow_char_traits@DH@std@@SAHABD@Z
  00019	e9 00 00 00 00	 jmp	 ___CxxFrameHandler3
text$x	ENDS
?to_int_type@?$_Narrow_char_traits@DH@std@@SAHABD@Z ENDP ; std::_Narrow_char_traits<char,int>::to_int_type
; Function compile flags: /Odtp /RTCsu /ZI
; File C:\Program Files (x86)\Microsoft Visual Studio\2019\Community\VC\Tools\MSVC\14.24.28314\include\xstring
;	COMDAT ?to_char_type@?$_Narrow_char_traits@DH@std@@SADABH@Z
_TEXT	SEGMENT
__$EHRec$ = -12						; size = 12
__Meta$ = 8						; size = 4
?to_char_type@?$_Narrow_char_traits@DH@std@@SADABH@Z PROC ; std::_Narrow_char_traits<char,int>::to_char_type, COMDAT

; 388  :     _NODISCARD static constexpr _Elem to_char_type(const int_type& _Meta) noexcept {

  00000	55		 push	 ebp
  00001	8b ec		 mov	 ebp, esp
  00003	6a ff		 push	 -1
  00005	68 00 00 00 00	 push	 __ehhandler$?to_char_type@?$_Narrow_char_traits@DH@std@@SADABH@Z
  0000a	64 a1 00 00 00
	00		 mov	 eax, DWORD PTR fs:0
  00010	50		 push	 eax
  00011	81 ec c0 00 00
	00		 sub	 esp, 192		; 000000c0H
  00017	53		 push	 ebx
  00018	56		 push	 esi
  00019	57		 push	 edi
  0001a	8d bd 34 ff ff
	ff		 lea	 edi, DWORD PTR [ebp-204]
  00020	b9 30 00 00 00	 mov	 ecx, 48			; 00000030H
  00025	b8 cc cc cc cc	 mov	 eax, -858993460		; ccccccccH
  0002a	f3 ab		 rep stosd
  0002c	a1 00 00 00 00	 mov	 eax, DWORD PTR ___security_cookie
  00031	33 c5		 xor	 eax, ebp
  00033	50		 push	 eax
  00034	8d 45 f4	 lea	 eax, DWORD PTR __$EHRec$[ebp]
  00037	64 a3 00 00 00
	00		 mov	 DWORD PTR fs:0, eax
  0003d	b9 00 00 00 00	 mov	 ecx, OFFSET __C564DC25_xstring
  00042	e8 00 00 00 00	 call	 @__CheckForDebuggerJustMyCode@4

; 389  :         return static_cast<_Elem>(_Meta);

  00047	8b 45 08	 mov	 eax, DWORD PTR __Meta$[ebp]
  0004a	8a 00		 mov	 al, BYTE PTR [eax]

; 390  :     }

  0004c	8b 4d f4	 mov	 ecx, DWORD PTR __$EHRec$[ebp]
  0004f	64 89 0d 00 00
	00 00		 mov	 DWORD PTR fs:0, ecx
  00056	59		 pop	 ecx
  00057	5f		 pop	 edi
  00058	5e		 pop	 esi
  00059	5b		 pop	 ebx
  0005a	81 c4 cc 00 00
	00		 add	 esp, 204		; 000000ccH
  00060	3b ec		 cmp	 ebp, esp
  00062	e8 00 00 00 00	 call	 __RTC_CheckEsp
  00067	8b e5		 mov	 esp, ebp
  00069	5d		 pop	 ebp
  0006a	c3		 ret	 0
_TEXT	ENDS
;	COMDAT text$x
text$x	SEGMENT
__ehhandler$?to_char_type@?$_Narrow_char_traits@DH@std@@SADABH@Z:
  00000	8b 54 24 08	 mov	 edx, DWORD PTR [esp+8]
  00004	8d 42 0c	 lea	 eax, DWORD PTR [edx+12]
  00007	8b 8a 30 ff ff
	ff		 mov	 ecx, DWORD PTR [edx-208]
  0000d	33 c8		 xor	 ecx, eax
  0000f	e8 00 00 00 00	 call	 @__security_check_cookie@4
  00014	b8 00 00 00 00	 mov	 eax, OFFSET __ehfuncinfo$?to_char_type@?$_Narrow_char_traits@DH@std@@SADABH@Z
  00019	e9 00 00 00 00	 jmp	 ___CxxFrameHandler3
text$x	ENDS
?to_char_type@?$_Narrow_char_traits@DH@std@@SADABH@Z ENDP ; std::_Narrow_char_traits<char,int>::to_char_type
; Function compile flags: /Odtp /RTCsu /ZI
; File C:\Program Files (x86)\Microsoft Visual Studio\2019\Community\VC\Tools\MSVC\14.24.28314\include\xstring
;	COMDAT ?eq@?$_Narrow_char_traits@DH@std@@SA_NABD0@Z
_TEXT	SEGMENT
tv67 = -208						; size = 4
__$EHRec$ = -12						; size = 12
__Left$ = 8						; size = 4
__Right$ = 12						; size = 4
?eq@?$_Narrow_char_traits@DH@std@@SA_NABD0@Z PROC	; std::_Narrow_char_traits<char,int>::eq, COMDAT

; 380  :     _NODISCARD static constexpr bool eq(const _Elem& _Left, const _Elem& _Right) noexcept {

  00000	55		 push	 ebp
  00001	8b ec		 mov	 ebp, esp
  00003	6a ff		 push	 -1
  00005	68 00 00 00 00	 push	 __ehhandler$?eq@?$_Narrow_char_traits@DH@std@@SA_NABD0@Z
  0000a	64 a1 00 00 00
	00		 mov	 eax, DWORD PTR fs:0
  00010	50		 push	 eax
  00011	81 ec c4 00 00
	00		 sub	 esp, 196		; 000000c4H
  00017	53		 push	 ebx
  00018	56		 push	 esi
  00019	57		 push	 edi
  0001a	8d bd 30 ff ff
	ff		 lea	 edi, DWORD PTR [ebp-208]
  00020	b9 31 00 00 00	 mov	 ecx, 49			; 00000031H
  00025	b8 cc cc cc cc	 mov	 eax, -858993460		; ccccccccH
  0002a	f3 ab		 rep stosd
  0002c	a1 00 00 00 00	 mov	 eax, DWORD PTR ___security_cookie
  00031	33 c5		 xor	 eax, ebp
  00033	50		 push	 eax
  00034	8d 45 f4	 lea	 eax, DWORD PTR __$EHRec$[ebp]
  00037	64 a3 00 00 00
	00		 mov	 DWORD PTR fs:0, eax
  0003d	b9 00 00 00 00	 mov	 ecx, OFFSET __C564DC25_xstring
  00042	e8 00 00 00 00	 call	 @__CheckForDebuggerJustMyCode@4

; 381  :         return _Left == _Right;

  00047	8b 45 08	 mov	 eax, DWORD PTR __Left$[ebp]
  0004a	0f be 08	 movsx	 ecx, BYTE PTR [eax]
  0004d	8b 55 0c	 mov	 edx, DWORD PTR __Right$[ebp]
  00050	0f be 02	 movsx	 eax, BYTE PTR [edx]
  00053	3b c8		 cmp	 ecx, eax
  00055	75 0c		 jne	 SHORT $LN3@eq
  00057	c7 85 30 ff ff
	ff 01 00 00 00	 mov	 DWORD PTR tv67[ebp], 1
  00061	eb 0a		 jmp	 SHORT $LN4@eq
$LN3@eq:
  00063	c7 85 30 ff ff
	ff 00 00 00 00	 mov	 DWORD PTR tv67[ebp], 0
$LN4@eq:
  0006d	8a 85 30 ff ff
	ff		 mov	 al, BYTE PTR tv67[ebp]

; 382  :     }

  00073	8b 4d f4	 mov	 ecx, DWORD PTR __$EHRec$[ebp]
  00076	64 89 0d 00 00
	00 00		 mov	 DWORD PTR fs:0, ecx
  0007d	59		 pop	 ecx
  0007e	5f		 pop	 edi
  0007f	5e		 pop	 esi
  00080	5b		 pop	 ebx
  00081	81 c4 d0 00 00
	00		 add	 esp, 208		; 000000d0H
  00087	3b ec		 cmp	 ebp, esp
  00089	e8 00 00 00 00	 call	 __RTC_CheckEsp
  0008e	8b e5		 mov	 esp, ebp
  00090	5d		 pop	 ebp
  00091	c3		 ret	 0
_TEXT	ENDS
;	COMDAT text$x
text$x	SEGMENT
__ehhandler$?eq@?$_Narrow_char_traits@DH@std@@SA_NABD0@Z:
  00000	8b 54 24 08	 mov	 edx, DWORD PTR [esp+8]
  00004	8d 42 0c	 lea	 eax, DWORD PTR [edx+12]
  00007	8b 8a 2c ff ff
	ff		 mov	 ecx, DWORD PTR [edx-212]
  0000d	33 c8		 xor	 ecx, eax
  0000f	e8 00 00 00 00	 call	 @__security_check_cookie@4
  00014	b8 00 00 00 00	 mov	 eax, OFFSET __ehfuncinfo$?eq@?$_Narrow_char_traits@DH@std@@SA_NABD0@Z
  00019	e9 00 00 00 00	 jmp	 ___CxxFrameHandler3
text$x	ENDS
?eq@?$_Narrow_char_traits@DH@std@@SA_NABD0@Z ENDP	; std::_Narrow_char_traits<char,int>::eq
; Function compile flags: /Odtp /RTCsu /ZI
; File C:\Program Files (x86)\Microsoft Visual Studio\2019\Community\VC\Tools\MSVC\14.24.28314\include\xstring
;	COMDAT ?assign@?$_Narrow_char_traits@DH@std@@SAXAADABD@Z
_TEXT	SEGMENT
__$EHRec$ = -12						; size = 12
__Left$ = 8						; size = 4
__Right$ = 12						; size = 4
?assign@?$_Narrow_char_traits@DH@std@@SAXAADABD@Z PROC	; std::_Narrow_char_traits<char,int>::assign, COMDAT

; 376  :     static _CONSTEXPR17 void assign(_Elem& _Left, const _Elem& _Right) noexcept {

  00000	55		 push	 ebp
  00001	8b ec		 mov	 ebp, esp
  00003	6a ff		 push	 -1
  00005	68 00 00 00 00	 push	 __ehhandler$?assign@?$_Narrow_char_traits@DH@std@@SAXAADABD@Z
  0000a	64 a1 00 00 00
	00		 mov	 eax, DWORD PTR fs:0
  00010	50		 push	 eax
  00011	81 ec c0 00 00
	00		 sub	 esp, 192		; 000000c0H
  00017	53		 push	 ebx
  00018	56		 push	 esi
  00019	57		 push	 edi
  0001a	8d bd 34 ff ff
	ff		 lea	 edi, DWORD PTR [ebp-204]
  00020	b9 30 00 00 00	 mov	 ecx, 48			; 00000030H
  00025	b8 cc cc cc cc	 mov	 eax, -858993460		; ccccccccH
  0002a	f3 ab		 rep stosd
  0002c	a1 00 00 00 00	 mov	 eax, DWORD PTR ___security_cookie
  00031	33 c5		 xor	 eax, ebp
  00033	50		 push	 eax
  00034	8d 45 f4	 lea	 eax, DWORD PTR __$EHRec$[ebp]
  00037	64 a3 00 00 00
	00		 mov	 DWORD PTR fs:0, eax
  0003d	b9 00 00 00 00	 mov	 ecx, OFFSET __C564DC25_xstring
  00042	e8 00 00 00 00	 call	 @__CheckForDebuggerJustMyCode@4

; 377  :         _Left = _Right;

  00047	8b 45 08	 mov	 eax, DWORD PTR __Left$[ebp]
  0004a	8b 4d 0c	 mov	 ecx, DWORD PTR __Right$[ebp]
  0004d	8a 11		 mov	 dl, BYTE PTR [ecx]
  0004f	88 10		 mov	 BYTE PTR [eax], dl

; 378  :     }

  00051	8b 4d f4	 mov	 ecx, DWORD PTR __$EHRec$[ebp]
  00054	64 89 0d 00 00
	00 00		 mov	 DWORD PTR fs:0, ecx
  0005b	59		 pop	 ecx
  0005c	5f		 pop	 edi
  0005d	5e		 pop	 esi
  0005e	5b		 pop	 ebx
  0005f	81 c4 cc 00 00
	00		 add	 esp, 204		; 000000ccH
  00065	3b ec		 cmp	 ebp, esp
  00067	e8 00 00 00 00	 call	 __RTC_CheckEsp
  0006c	8b e5		 mov	 esp, ebp
  0006e	5d		 pop	 ebp
  0006f	c3		 ret	 0
_TEXT	ENDS
;	COMDAT text$x
text$x	SEGMENT
__ehhandler$?assign@?$_Narrow_char_traits@DH@std@@SAXAADABD@Z:
  00000	8b 54 24 08	 mov	 edx, DWORD PTR [esp+8]
  00004	8d 42 0c	 lea	 eax, DWORD PTR [edx+12]
  00007	8b 8a 30 ff ff
	ff		 mov	 ecx, DWORD PTR [edx-208]
  0000d	33 c8		 xor	 ecx, eax
  0000f	e8 00 00 00 00	 call	 @__security_check_cookie@4
  00014	b8 00 00 00 00	 mov	 eax, OFFSET __ehfuncinfo$?assign@?$_Narrow_char_traits@DH@std@@SAXAADABD@Z
  00019	e9 00 00 00 00	 jmp	 ___CxxFrameHandler3
text$x	ENDS
?assign@?$_Narrow_char_traits@DH@std@@SAXAADABD@Z ENDP	; std::_Narrow_char_traits<char,int>::assign
; Function compile flags: /Odtp /RTCsu /ZI
; File C:\Program Files (x86)\Microsoft Visual Studio\2019\Community\VC\Tools\MSVC\14.24.28314\include\xstring
;	COMDAT ?copy@?$_Narrow_char_traits@DH@std@@SAPADQADQBDI@Z
_TEXT	SEGMENT
__$EHRec$ = -12						; size = 12
__First1$ = 8						; size = 4
__First2$ = 12						; size = 4
__Count$ = 16						; size = 4
?copy@?$_Narrow_char_traits@DH@std@@SAPADQADQBDI@Z PROC	; std::_Narrow_char_traits<char,int>::copy, COMDAT

; 330  :         const size_t _Count) noexcept /* strengthened */ {

  00000	55		 push	 ebp
  00001	8b ec		 mov	 ebp, esp
  00003	6a ff		 push	 -1
  00005	68 00 00 00 00	 push	 __ehhandler$?copy@?$_Narrow_char_traits@DH@std@@SAPADQADQBDI@Z
  0000a	64 a1 00 00 00
	00		 mov	 eax, DWORD PTR fs:0
  00010	50		 push	 eax
  00011	81 ec c0 00 00
	00		 sub	 esp, 192		; 000000c0H
  00017	53		 push	 ebx
  00018	56		 push	 esi
  00019	57		 push	 edi
  0001a	8d bd 34 ff ff
	ff		 lea	 edi, DWORD PTR [ebp-204]
  00020	b9 30 00 00 00	 mov	 ecx, 48			; 00000030H
  00025	b8 cc cc cc cc	 mov	 eax, -858993460		; ccccccccH
  0002a	f3 ab		 rep stosd
  0002c	a1 00 00 00 00	 mov	 eax, DWORD PTR ___security_cookie
  00031	33 c5		 xor	 eax, ebp
  00033	50		 push	 eax
  00034	8d 45 f4	 lea	 eax, DWORD PTR __$EHRec$[ebp]
  00037	64 a3 00 00 00
	00		 mov	 DWORD PTR fs:0, eax
  0003d	b9 00 00 00 00	 mov	 ecx, OFFSET __C564DC25_xstring
  00042	e8 00 00 00 00	 call	 @__CheckForDebuggerJustMyCode@4

; 331  :         // copy [_First2, _First2 + _Count) to [_First1, ...)
; 332  :         return static_cast<_Elem*>(_CSTD memcpy(_First1, _First2, _Count));

  00047	8b 45 10	 mov	 eax, DWORD PTR __Count$[ebp]
  0004a	50		 push	 eax
  0004b	8b 4d 0c	 mov	 ecx, DWORD PTR __First2$[ebp]
  0004e	51		 push	 ecx
  0004f	8b 55 08	 mov	 edx, DWORD PTR __First1$[ebp]
  00052	52		 push	 edx
  00053	e8 00 00 00 00	 call	 _memcpy
  00058	83 c4 0c	 add	 esp, 12			; 0000000cH

; 333  :     }

  0005b	8b 4d f4	 mov	 ecx, DWORD PTR __$EHRec$[ebp]
  0005e	64 89 0d 00 00
	00 00		 mov	 DWORD PTR fs:0, ecx
  00065	59		 pop	 ecx
  00066	5f		 pop	 edi
  00067	5e		 pop	 esi
  00068	5b		 pop	 ebx
  00069	81 c4 cc 00 00
	00		 add	 esp, 204		; 000000ccH
  0006f	3b ec		 cmp	 ebp, esp
  00071	e8 00 00 00 00	 call	 __RTC_CheckEsp
  00076	8b e5		 mov	 esp, ebp
  00078	5d		 pop	 ebp
  00079	c3		 ret	 0
_TEXT	ENDS
;	COMDAT text$x
text$x	SEGMENT
__ehhandler$?copy@?$_Narrow_char_traits@DH@std@@SAPADQADQBDI@Z:
  00000	8b 54 24 08	 mov	 edx, DWORD PTR [esp+8]
  00004	8d 42 0c	 lea	 eax, DWORD PTR [edx+12]
  00007	8b 8a 30 ff ff
	ff		 mov	 ecx, DWORD PTR [edx-208]
  0000d	33 c8		 xor	 ecx, eax
  0000f	e8 00 00 00 00	 call	 @__security_check_cookie@4
  00014	b8 00 00 00 00	 mov	 eax, OFFSET __ehfuncinfo$?copy@?$_Narrow_char_traits@DH@std@@SAPADQADQBDI@Z
  00019	e9 00 00 00 00	 jmp	 ___CxxFrameHandler3
text$x	ENDS
?copy@?$_Narrow_char_traits@DH@std@@SAPADQADQBDI@Z ENDP	; std::_Narrow_char_traits<char,int>::copy
; Function compile flags: /Odtp /RTCsu /ZI
; File C:\Program Files (x86)\Microsoft Visual Studio\2019\Community\VC\Tools\MSVC\14.24.28314\include\xmemory
;	COMDAT ??$_Construct_in_place@U_Container_proxy@std@@PAU_Container_base12@2@@std@@YAXAAU_Container_proxy@0@$$QAPAU_Container_base12@0@@Z
_TEXT	SEGMENT
$T2 = -212						; size = 4
__$EHRec$ = -12						; size = 12
__Obj$ = 8						; size = 4
_<_Args_0>$ = 12					; size = 4
??$_Construct_in_place@U_Container_proxy@std@@PAU_Container_base12@2@@std@@YAXAAU_Container_proxy@0@$$QAPAU_Container_base12@0@@Z PROC ; std::_Construct_in_place<std::_Container_proxy,std::_Container_base12 *>, COMDAT

; 202  : void _Construct_in_place(_Ty& _Obj, _Types&&... _Args) noexcept(is_nothrow_constructible_v<_Ty, _Types...>) {

  00000	55		 push	 ebp
  00001	8b ec		 mov	 ebp, esp
  00003	6a ff		 push	 -1
  00005	68 00 00 00 00	 push	 __ehhandler$??$_Construct_in_place@U_Container_proxy@std@@PAU_Container_base12@2@@std@@YAXAAU_Container_proxy@0@$$QAPAU_Container_base12@0@@Z
  0000a	64 a1 00 00 00
	00		 mov	 eax, DWORD PTR fs:0
  00010	50		 push	 eax
  00011	81 ec cc 00 00
	00		 sub	 esp, 204		; 000000ccH
  00017	53		 push	 ebx
  00018	56		 push	 esi
  00019	57		 push	 edi
  0001a	8d bd 28 ff ff
	ff		 lea	 edi, DWORD PTR [ebp-216]
  00020	b9 33 00 00 00	 mov	 ecx, 51			; 00000033H
  00025	b8 cc cc cc cc	 mov	 eax, -858993460		; ccccccccH
  0002a	f3 ab		 rep stosd
  0002c	a1 00 00 00 00	 mov	 eax, DWORD PTR ___security_cookie
  00031	33 c5		 xor	 eax, ebp
  00033	50		 push	 eax
  00034	8d 45 f4	 lea	 eax, DWORD PTR __$EHRec$[ebp]
  00037	64 a3 00 00 00
	00		 mov	 DWORD PTR fs:0, eax
  0003d	b9 00 00 00 00	 mov	 ecx, OFFSET __B1B75AB9_xmemory
  00042	e8 00 00 00 00	 call	 @__CheckForDebuggerJustMyCode@4
  00047	8b 45 08	 mov	 eax, DWORD PTR __Obj$[ebp]
  0004a	50		 push	 eax
  0004b	e8 00 00 00 00	 call	 ??$addressof@U_Container_proxy@std@@@std@@YAPAU_Container_proxy@0@AAU10@@Z ; std::addressof<std::_Container_proxy>
  00050	83 c4 04	 add	 esp, 4
  00053	50		 push	 eax
  00054	6a 08		 push	 8
  00056	e8 00 00 00 00	 call	 ??2@YAPAXIPAX@Z		; operator new
  0005b	83 c4 08	 add	 esp, 8
  0005e	89 85 2c ff ff
	ff		 mov	 DWORD PTR $T2[ebp], eax
  00064	8b 4d 0c	 mov	 ecx, DWORD PTR _<_Args_0>$[ebp]
  00067	51		 push	 ecx
  00068	e8 00 00 00 00	 call	 ??$forward@PAU_Container_base12@std@@@std@@YA$$QAPAU_Container_base12@0@AAPAU10@@Z ; std::forward<std::_Container_base12 *>
  0006d	83 c4 04	 add	 esp, 4
  00070	8b 10		 mov	 edx, DWORD PTR [eax]
  00072	52		 push	 edx
  00073	8b 8d 2c ff ff
	ff		 mov	 ecx, DWORD PTR $T2[ebp]
  00079	e8 00 00 00 00	 call	 ??0_Container_proxy@std@@QAE@PAU_Container_base12@1@@Z ; std::_Container_proxy::_Container_proxy

; 203  :     ::new (const_cast<void*>(static_cast<const volatile void*>(_STD addressof(_Obj))))
; 204  :         _Ty(_STD forward<_Types>(_Args)...);
; 205  : }

  0007e	8b 4d f4	 mov	 ecx, DWORD PTR __$EHRec$[ebp]
  00081	64 89 0d 00 00
	00 00		 mov	 DWORD PTR fs:0, ecx
  00088	59		 pop	 ecx
  00089	5f		 pop	 edi
  0008a	5e		 pop	 esi
  0008b	5b		 pop	 ebx
  0008c	81 c4 d8 00 00
	00		 add	 esp, 216		; 000000d8H
  00092	3b ec		 cmp	 ebp, esp
  00094	e8 00 00 00 00	 call	 __RTC_CheckEsp
  00099	8b e5		 mov	 esp, ebp
  0009b	5d		 pop	 ebp
  0009c	c3		 ret	 0
_TEXT	ENDS
;	COMDAT text$x
text$x	SEGMENT
__ehhandler$??$_Construct_in_place@U_Container_proxy@std@@PAU_Container_base12@2@@std@@YAXAAU_Container_proxy@0@$$QAPAU_Container_base12@0@@Z:
  00000	8b 54 24 08	 mov	 edx, DWORD PTR [esp+8]
  00004	8d 42 0c	 lea	 eax, DWORD PTR [edx+12]
  00007	8b 8a 24 ff ff
	ff		 mov	 ecx, DWORD PTR [edx-220]
  0000d	33 c8		 xor	 ecx, eax
  0000f	e8 00 00 00 00	 call	 @__security_check_cookie@4
  00014	b8 00 00 00 00	 mov	 eax, OFFSET __ehfuncinfo$??$_Construct_in_place@U_Container_proxy@std@@PAU_Container_base12@2@@std@@YAXAAU_Container_proxy@0@$$QAPAU_Container_base12@0@@Z
  00019	e9 00 00 00 00	 jmp	 ___CxxFrameHandler3
text$x	ENDS
??$_Construct_in_place@U_Container_proxy@std@@PAU_Container_base12@2@@std@@YAXAAU_Container_proxy@0@$$QAPAU_Container_base12@0@@Z ENDP ; std::_Construct_in_place<std::_Container_proxy,std::_Container_base12 *>
; Function compile flags: /Odtp /RTCsu /ZI
; File C:\Program Files (x86)\Microsoft Visual Studio\2019\Community\VC\Tools\MSVC\14.24.28314\include\xmemory
;	COMDAT ?_Orphan_all@_Container_base12@std@@QAEXXZ
_TEXT	SEGMENT
__Pnext$2 = -48						; size = 4
__Lock$3 = -36						; size = 4
_this$ = -24						; size = 4
__$ArrayPad$ = -16					; size = 4
__$EHRec$ = -12						; size = 12
?_Orphan_all@_Container_base12@std@@QAEXXZ PROC		; std::_Container_base12::_Orphan_all, COMDAT
; _this$ = ecx

; 1201 : inline void _Container_base12::_Orphan_all() noexcept {

  00000	55		 push	 ebp
  00001	8b ec		 mov	 ebp, esp
  00003	6a ff		 push	 -1
  00005	68 00 00 00 00	 push	 __ehhandler$?_Orphan_all@_Container_base12@std@@QAEXXZ
  0000a	64 a1 00 00 00
	00		 mov	 eax, DWORD PTR fs:0
  00010	50		 push	 eax
  00011	81 ec e8 00 00
	00		 sub	 esp, 232		; 000000e8H
  00017	53		 push	 ebx
  00018	56		 push	 esi
  00019	57		 push	 edi
  0001a	51		 push	 ecx
  0001b	8d bd 0c ff ff
	ff		 lea	 edi, DWORD PTR [ebp-244]
  00021	b9 3a 00 00 00	 mov	 ecx, 58			; 0000003aH
  00026	b8 cc cc cc cc	 mov	 eax, -858993460		; ccccccccH
  0002b	f3 ab		 rep stosd
  0002d	59		 pop	 ecx
  0002e	a1 00 00 00 00	 mov	 eax, DWORD PTR ___security_cookie
  00033	33 c5		 xor	 eax, ebp
  00035	89 45 f0	 mov	 DWORD PTR __$ArrayPad$[ebp], eax
  00038	50		 push	 eax
  00039	8d 45 f4	 lea	 eax, DWORD PTR __$EHRec$[ebp]
  0003c	64 a3 00 00 00
	00		 mov	 DWORD PTR fs:0, eax
  00042	89 4d e8	 mov	 DWORD PTR _this$[ebp], ecx
  00045	b9 00 00 00 00	 mov	 ecx, OFFSET __B1B75AB9_xmemory
  0004a	e8 00 00 00 00	 call	 @__CheckForDebuggerJustMyCode@4

; 1202 : #if _ITERATOR_DEBUG_LEVEL == 2
; 1203 :     if (_Myproxy) { // proxy allocated, drain it

  0004f	8b 45 e8	 mov	 eax, DWORD PTR _this$[ebp]
  00052	83 38 00	 cmp	 DWORD PTR [eax], 0
  00055	74 61		 je	 SHORT $LN6@Orphan_all

; 1204 :         _Lockit _Lock(_LOCK_DEBUG);

  00057	8b f4		 mov	 esi, esp
  00059	6a 03		 push	 3
  0005b	8d 4d dc	 lea	 ecx, DWORD PTR __Lock$3[ebp]
  0005e	ff 15 00 00 00
	00		 call	 DWORD PTR __imp_??0_Lockit@std@@QAE@H@Z
  00064	3b f4		 cmp	 esi, esp
  00066	e8 00 00 00 00	 call	 __RTC_CheckEsp

; 1205 : 
; 1206 :         for (auto _Pnext = &_Myproxy->_Myfirstiter; *_Pnext; *_Pnext = (*_Pnext)->_Mynextiter) {

  0006b	8b 45 e8	 mov	 eax, DWORD PTR _this$[ebp]
  0006e	8b 08		 mov	 ecx, DWORD PTR [eax]
  00070	83 c1 04	 add	 ecx, 4
  00073	89 4d d0	 mov	 DWORD PTR __Pnext$2[ebp], ecx
  00076	eb 0d		 jmp	 SHORT $LN4@Orphan_all
$LN2@Orphan_all:
  00078	8b 45 d0	 mov	 eax, DWORD PTR __Pnext$2[ebp]
  0007b	8b 08		 mov	 ecx, DWORD PTR [eax]
  0007d	8b 55 d0	 mov	 edx, DWORD PTR __Pnext$2[ebp]
  00080	8b 41 04	 mov	 eax, DWORD PTR [ecx+4]
  00083	89 02		 mov	 DWORD PTR [edx], eax
$LN4@Orphan_all:
  00085	8b 45 d0	 mov	 eax, DWORD PTR __Pnext$2[ebp]
  00088	83 38 00	 cmp	 DWORD PTR [eax], 0
  0008b	74 0d		 je	 SHORT $LN3@Orphan_all

; 1207 :             (*_Pnext)->_Myproxy = nullptr;

  0008d	8b 45 d0	 mov	 eax, DWORD PTR __Pnext$2[ebp]
  00090	8b 08		 mov	 ecx, DWORD PTR [eax]
  00092	c7 01 00 00 00
	00		 mov	 DWORD PTR [ecx], 0

; 1208 :         }

  00098	eb de		 jmp	 SHORT $LN2@Orphan_all
$LN3@Orphan_all:

; 1209 : 
; 1210 :         _Myproxy->_Myfirstiter = nullptr;

  0009a	8b 45 e8	 mov	 eax, DWORD PTR _this$[ebp]
  0009d	8b 08		 mov	 ecx, DWORD PTR [eax]
  0009f	c7 41 04 00 00
	00 00		 mov	 DWORD PTR [ecx+4], 0

; 1211 :     }

  000a6	8b f4		 mov	 esi, esp
  000a8	8d 4d dc	 lea	 ecx, DWORD PTR __Lock$3[ebp]
  000ab	ff 15 00 00 00
	00		 call	 DWORD PTR __imp_??1_Lockit@std@@QAE@XZ
  000b1	3b f4		 cmp	 esi, esp
  000b3	e8 00 00 00 00	 call	 __RTC_CheckEsp
$LN6@Orphan_all:

; 1212 : #endif // _ITERATOR_DEBUG_LEVEL == 2
; 1213 : }

  000b8	52		 push	 edx
  000b9	8b cd		 mov	 ecx, ebp
  000bb	50		 push	 eax
  000bc	8d 15 00 00 00
	00		 lea	 edx, DWORD PTR $LN10@Orphan_all
  000c2	e8 00 00 00 00	 call	 @_RTC_CheckStackVars@8
  000c7	58		 pop	 eax
  000c8	5a		 pop	 edx
  000c9	8b 4d f4	 mov	 ecx, DWORD PTR __$EHRec$[ebp]
  000cc	64 89 0d 00 00
	00 00		 mov	 DWORD PTR fs:0, ecx
  000d3	59		 pop	 ecx
  000d4	5f		 pop	 edi
  000d5	5e		 pop	 esi
  000d6	5b		 pop	 ebx
  000d7	8b 4d f0	 mov	 ecx, DWORD PTR __$ArrayPad$[ebp]
  000da	33 cd		 xor	 ecx, ebp
  000dc	e8 00 00 00 00	 call	 @__security_check_cookie@4
  000e1	81 c4 f4 00 00
	00		 add	 esp, 244		; 000000f4H
  000e7	3b ec		 cmp	 ebp, esp
  000e9	e8 00 00 00 00	 call	 __RTC_CheckEsp
  000ee	8b e5		 mov	 esp, ebp
  000f0	5d		 pop	 ebp
  000f1	c3		 ret	 0
  000f2	66 90		 npad	 2
$LN10@Orphan_all:
  000f4	01 00 00 00	 DD	 1
  000f8	00 00 00 00	 DD	 $LN9@Orphan_all
$LN9@Orphan_all:
  000fc	dc ff ff ff	 DD	 -36			; ffffffdcH
  00100	04 00 00 00	 DD	 4
  00104	00 00 00 00	 DD	 $LN7@Orphan_all
$LN7@Orphan_all:
  00108	5f		 DB	 95			; 0000005fH
  00109	4c		 DB	 76			; 0000004cH
  0010a	6f		 DB	 111			; 0000006fH
  0010b	63		 DB	 99			; 00000063H
  0010c	6b		 DB	 107			; 0000006bH
  0010d	00		 DB	 0
_TEXT	ENDS
;	COMDAT text$x
text$x	SEGMENT
__ehhandler$?_Orphan_all@_Container_base12@std@@QAEXXZ:
  00000	8b 54 24 08	 mov	 edx, DWORD PTR [esp+8]
  00004	8d 42 0c	 lea	 eax, DWORD PTR [edx+12]
  00007	8b 8a 08 ff ff
	ff		 mov	 ecx, DWORD PTR [edx-248]
  0000d	33 c8		 xor	 ecx, eax
  0000f	e8 00 00 00 00	 call	 @__security_check_cookie@4
  00014	8b 4a fc	 mov	 ecx, DWORD PTR [edx-4]
  00017	33 c8		 xor	 ecx, eax
  00019	e8 00 00 00 00	 call	 @__security_check_cookie@4
  0001e	b8 00 00 00 00	 mov	 eax, OFFSET __ehfuncinfo$?_Orphan_all@_Container_base12@std@@QAEXXZ
  00023	e9 00 00 00 00	 jmp	 ___CxxFrameHandler3
text$x	ENDS
?_Orphan_all@_Container_base12@std@@QAEXXZ ENDP		; std::_Container_base12::_Orphan_all
; Function compile flags: /Odtp /RTCsu /ZI
; File C:\Program Files (x86)\Microsoft Visual Studio\2019\Community\VC\Tools\MSVC\14.24.28314\include\xmemory
;	COMDAT ??0_Container_base12@std@@QAE@XZ
_TEXT	SEGMENT
_this$ = -20						; size = 4
__$EHRec$ = -12						; size = 12
??0_Container_base12@std@@QAE@XZ PROC			; std::_Container_base12::_Container_base12, COMDAT
; _this$ = ecx

; 1088 :     _Container_base12() noexcept : _Myproxy(nullptr) {}

  00000	55		 push	 ebp
  00001	8b ec		 mov	 ebp, esp
  00003	6a ff		 push	 -1
  00005	68 00 00 00 00	 push	 __ehhandler$??0_Container_base12@std@@QAE@XZ
  0000a	64 a1 00 00 00
	00		 mov	 eax, DWORD PTR fs:0
  00010	50		 push	 eax
  00011	81 ec cc 00 00
	00		 sub	 esp, 204		; 000000ccH
  00017	53		 push	 ebx
  00018	56		 push	 esi
  00019	57		 push	 edi
  0001a	51		 push	 ecx
  0001b	8d bd 28 ff ff
	ff		 lea	 edi, DWORD PTR [ebp-216]
  00021	b9 33 00 00 00	 mov	 ecx, 51			; 00000033H
  00026	b8 cc cc cc cc	 mov	 eax, -858993460		; ccccccccH
  0002b	f3 ab		 rep stosd
  0002d	59		 pop	 ecx
  0002e	a1 00 00 00 00	 mov	 eax, DWORD PTR ___security_cookie
  00033	33 c5		 xor	 eax, ebp
  00035	50		 push	 eax
  00036	8d 45 f4	 lea	 eax, DWORD PTR __$EHRec$[ebp]
  00039	64 a3 00 00 00
	00		 mov	 DWORD PTR fs:0, eax
  0003f	89 4d ec	 mov	 DWORD PTR _this$[ebp], ecx
  00042	b9 00 00 00 00	 mov	 ecx, OFFSET __B1B75AB9_xmemory
  00047	e8 00 00 00 00	 call	 @__CheckForDebuggerJustMyCode@4
  0004c	8b 45 ec	 mov	 eax, DWORD PTR _this$[ebp]
  0004f	c7 00 00 00 00
	00		 mov	 DWORD PTR [eax], 0
  00055	8b 45 ec	 mov	 eax, DWORD PTR _this$[ebp]
  00058	8b 4d f4	 mov	 ecx, DWORD PTR __$EHRec$[ebp]
  0005b	64 89 0d 00 00
	00 00		 mov	 DWORD PTR fs:0, ecx
  00062	59		 pop	 ecx
  00063	5f		 pop	 edi
  00064	5e		 pop	 esi
  00065	5b		 pop	 ebx
  00066	81 c4 d8 00 00
	00		 add	 esp, 216		; 000000d8H
  0006c	3b ec		 cmp	 ebp, esp
  0006e	e8 00 00 00 00	 call	 __RTC_CheckEsp
  00073	8b e5		 mov	 esp, ebp
  00075	5d		 pop	 ebp
  00076	c3		 ret	 0
_TEXT	ENDS
;	COMDAT text$x
text$x	SEGMENT
__ehhandler$??0_Container_base12@std@@QAE@XZ:
  00000	8b 54 24 08	 mov	 edx, DWORD PTR [esp+8]
  00004	8d 42 0c	 lea	 eax, DWORD PTR [edx+12]
  00007	8b 8a 24 ff ff
	ff		 mov	 ecx, DWORD PTR [edx-220]
  0000d	33 c8		 xor	 ecx, eax
  0000f	e8 00 00 00 00	 call	 @__security_check_cookie@4
  00014	b8 00 00 00 00	 mov	 eax, OFFSET __ehfuncinfo$??0_Container_base12@std@@QAE@XZ
  00019	e9 00 00 00 00	 jmp	 ___CxxFrameHandler3
text$x	ENDS
??0_Container_base12@std@@QAE@XZ ENDP			; std::_Container_base12::_Container_base12
; Function compile flags: /Odtp /RTCsu /ZI
; File C:\Program Files (x86)\Microsoft Visual Studio\2019\Community\VC\Tools\MSVC\14.24.28314\include\xmemory
;	COMDAT ??0_Container_proxy@std@@QAE@PAU_Container_base12@1@@Z
_TEXT	SEGMENT
_this$ = -20						; size = 4
__$EHRec$ = -12						; size = 12
__Mycont_$ = 8						; size = 4
??0_Container_proxy@std@@QAE@PAU_Container_base12@1@@Z PROC ; std::_Container_proxy::_Container_proxy, COMDAT
; _this$ = ecx

; 1080 :     _Container_proxy(_Container_base12* _Mycont_) noexcept : _Mycont(_Mycont_), _Myfirstiter(nullptr) {}

  00000	55		 push	 ebp
  00001	8b ec		 mov	 ebp, esp
  00003	6a ff		 push	 -1
  00005	68 00 00 00 00	 push	 __ehhandler$??0_Container_proxy@std@@QAE@PAU_Container_base12@1@@Z
  0000a	64 a1 00 00 00
	00		 mov	 eax, DWORD PTR fs:0
  00010	50		 push	 eax
  00011	81 ec cc 00 00
	00		 sub	 esp, 204		; 000000ccH
  00017	53		 push	 ebx
  00018	56		 push	 esi
  00019	57		 push	 edi
  0001a	51		 push	 ecx
  0001b	8d bd 28 ff ff
	ff		 lea	 edi, DWORD PTR [ebp-216]
  00021	b9 33 00 00 00	 mov	 ecx, 51			; 00000033H
  00026	b8 cc cc cc cc	 mov	 eax, -858993460		; ccccccccH
  0002b	f3 ab		 rep stosd
  0002d	59		 pop	 ecx
  0002e	a1 00 00 00 00	 mov	 eax, DWORD PTR ___security_cookie
  00033	33 c5		 xor	 eax, ebp
  00035	50		 push	 eax
  00036	8d 45 f4	 lea	 eax, DWORD PTR __$EHRec$[ebp]
  00039	64 a3 00 00 00
	00		 mov	 DWORD PTR fs:0, eax
  0003f	89 4d ec	 mov	 DWORD PTR _this$[ebp], ecx
  00042	b9 00 00 00 00	 mov	 ecx, OFFSET __B1B75AB9_xmemory
  00047	e8 00 00 00 00	 call	 @__CheckForDebuggerJustMyCode@4
  0004c	8b 45 ec	 mov	 eax, DWORD PTR _this$[ebp]
  0004f	8b 4d 08	 mov	 ecx, DWORD PTR __Mycont_$[ebp]
  00052	89 08		 mov	 DWORD PTR [eax], ecx
  00054	8b 45 ec	 mov	 eax, DWORD PTR _this$[ebp]
  00057	c7 40 04 00 00
	00 00		 mov	 DWORD PTR [eax+4], 0
  0005e	8b 45 ec	 mov	 eax, DWORD PTR _this$[ebp]
  00061	8b 4d f4	 mov	 ecx, DWORD PTR __$EHRec$[ebp]
  00064	64 89 0d 00 00
	00 00		 mov	 DWORD PTR fs:0, ecx
  0006b	59		 pop	 ecx
  0006c	5f		 pop	 edi
  0006d	5e		 pop	 esi
  0006e	5b		 pop	 ebx
  0006f	81 c4 d8 00 00
	00		 add	 esp, 216		; 000000d8H
  00075	3b ec		 cmp	 ebp, esp
  00077	e8 00 00 00 00	 call	 __RTC_CheckEsp
  0007c	8b e5		 mov	 esp, ebp
  0007e	5d		 pop	 ebp
  0007f	c2 04 00	 ret	 4
_TEXT	ENDS
;	COMDAT text$x
text$x	SEGMENT
__ehhandler$??0_Container_proxy@std@@QAE@PAU_Container_base12@1@@Z:
  00000	8b 54 24 08	 mov	 edx, DWORD PTR [esp+8]
  00004	8d 42 0c	 lea	 eax, DWORD PTR [edx+12]
  00007	8b 8a 24 ff ff
	ff		 mov	 ecx, DWORD PTR [edx-220]
  0000d	33 c8		 xor	 ecx, eax
  0000f	e8 00 00 00 00	 call	 @__security_check_cookie@4
  00014	b8 00 00 00 00	 mov	 eax, OFFSET __ehfuncinfo$??0_Container_proxy@std@@QAE@PAU_Container_base12@1@@Z
  00019	e9 00 00 00 00	 jmp	 ___CxxFrameHandler3
text$x	ENDS
??0_Container_proxy@std@@QAE@PAU_Container_base12@1@@Z ENDP ; std::_Container_proxy::_Container_proxy
; Function compile flags: /Odtp /RTCsu /ZI
; File C:\Program Files (x86)\Microsoft Visual Studio\2019\Community\VC\Tools\MSVC\14.24.28314\include\xmemory
;	COMDAT ?_Adjust_manually_vector_aligned@std@@YAXAAPAXAAI@Z
_TEXT	SEGMENT
__Back_shift$ = -44					; size = 4
__Min_back_shift$ = -32					; size = 4
__Ptr_container$ = -20					; size = 4
__Ptr_user$ = -8					; size = 4
__Ptr$ = 8						; size = 4
__Bytes$ = 12						; size = 4
?_Adjust_manually_vector_aligned@std@@YAXAAPAXAAI@Z PROC ; std::_Adjust_manually_vector_aligned, COMDAT

; 106  : inline void _Adjust_manually_vector_aligned(void*& _Ptr, size_t& _Bytes) {

  00000	55		 push	 ebp
  00001	8b ec		 mov	 ebp, esp
  00003	81 ec f0 00 00
	00		 sub	 esp, 240		; 000000f0H
  00009	53		 push	 ebx
  0000a	56		 push	 esi
  0000b	57		 push	 edi
  0000c	8d bd 10 ff ff
	ff		 lea	 edi, DWORD PTR [ebp-240]
  00012	b9 3c 00 00 00	 mov	 ecx, 60			; 0000003cH
  00017	b8 cc cc cc cc	 mov	 eax, -858993460		; ccccccccH
  0001c	f3 ab		 rep stosd
  0001e	b9 00 00 00 00	 mov	 ecx, OFFSET __B1B75AB9_xmemory
  00023	e8 00 00 00 00	 call	 @__CheckForDebuggerJustMyCode@4

; 107  :     // adjust parameters from _Allocate_manually_vector_aligned to pass to operator delete
; 108  :     _Bytes += _Non_user_size;

  00028	8b 45 0c	 mov	 eax, DWORD PTR __Bytes$[ebp]
  0002b	8b 08		 mov	 ecx, DWORD PTR [eax]
  0002d	83 c1 27	 add	 ecx, 39			; 00000027H
  00030	8b 55 0c	 mov	 edx, DWORD PTR __Bytes$[ebp]
  00033	89 0a		 mov	 DWORD PTR [edx], ecx

; 109  : 
; 110  :     const uintptr_t* const _Ptr_user = reinterpret_cast<uintptr_t*>(_Ptr);

  00035	8b 45 08	 mov	 eax, DWORD PTR __Ptr$[ebp]
  00038	8b 08		 mov	 ecx, DWORD PTR [eax]
  0003a	89 4d f8	 mov	 DWORD PTR __Ptr_user$[ebp], ecx

; 111  :     const uintptr_t _Ptr_container   = _Ptr_user[-1];

  0003d	b8 04 00 00 00	 mov	 eax, 4
  00042	6b c8 ff	 imul	 ecx, eax, -1
  00045	8b 55 f8	 mov	 edx, DWORD PTR __Ptr_user$[ebp]
  00048	8b 04 0a	 mov	 eax, DWORD PTR [edx+ecx]
  0004b	89 45 ec	 mov	 DWORD PTR __Ptr_container$[ebp], eax
$LN4@Adjust_man:

; 112  : 
; 113  :     // If the following asserts, it likely means that we are performing
; 114  :     // an aligned delete on memory coming from an unaligned allocation.
; 115  :     _STL_ASSERT(_Ptr_user[-2] == _Big_allocation_sentinel, "invalid argument");

  0004e	b8 04 00 00 00	 mov	 eax, 4
  00053	6b c8 fe	 imul	 ecx, eax, -2
  00056	8b 55 f8	 mov	 edx, DWORD PTR __Ptr_user$[ebp]
  00059	81 3c 0a fa fa
	fa fa		 cmp	 DWORD PTR [edx+ecx], -84215046 ; fafafafaH
  00060	75 02		 jne	 SHORT $LN7@Adjust_man
  00062	eb 64		 jmp	 SHORT $LN2@Adjust_man
$LN7@Adjust_man:
  00064	8b f4		 mov	 esi, esp
  00066	68 00 00 00 00	 push	 OFFSET ??_C@_0BB@FCMFBGOM@invalid?5argument@
  0006b	68 00 00 00 00	 push	 OFFSET ??_C@_02DKCKIIND@?$CFs@
  00070	6a 00		 push	 0
  00072	a1 00 00 00 00	 mov	 eax, DWORD PTR ?__LINE__Var@?0??_Adjust_manually_vector_aligned@std@@YAXAAPAXAAI@Z@4JA
  00077	83 c0 09	 add	 eax, 9
  0007a	50		 push	 eax
  0007b	68 00 00 00 00	 push	 OFFSET ??_C@_0GI@JKOMEBKC@C?3?2Program?5Files?5?$CIx86?$CJ?2Microsof@
  00080	6a 02		 push	 2
  00082	ff 15 00 00 00
	00		 call	 DWORD PTR __imp___CrtDbgReport
  00088	83 c4 18	 add	 esp, 24			; 00000018H
  0008b	3b f4		 cmp	 esi, esp
  0008d	e8 00 00 00 00	 call	 __RTC_CheckEsp
  00092	83 f8 01	 cmp	 eax, 1
  00095	75 01		 jne	 SHORT $LN19@Adjust_man
  00097	cc		 int	 3
$LN19@Adjust_man:
  00098	8b f4		 mov	 esi, esp
  0009a	6a 00		 push	 0
  0009c	a1 00 00 00 00	 mov	 eax, DWORD PTR ?__LINE__Var@?0??_Adjust_manually_vector_aligned@std@@YAXAAPAXAAI@Z@4JA
  000a1	83 c0 09	 add	 eax, 9
  000a4	50		 push	 eax
  000a5	68 00 00 00 00	 push	 OFFSET ??_C@_1NA@OANNLGA@?$AAC?$AA?3?$AA?2?$AAP?$AAr?$AAo?$AAg?$AAr?$AAa?$AAm?$AA?5?$AAF?$AAi?$AAl?$AAe@
  000aa	68 00 00 00 00	 push	 OFFSET ??_C@_1EK@NIFDJFDG@?$AAs?$AAt?$AAd?$AA?3?$AA?3?$AA_?$AAA?$AAd?$AAj?$AAu?$AAs?$AAt?$AA_?$AAm?$AAa@
  000af	68 00 00 00 00	 push	 OFFSET ??_C@_1CG@JNLFBNGN@?$AA?$CC?$AAi?$AAn?$AAv?$AAa?$AAl?$AAi?$AAd?$AA?5?$AAa?$AAr?$AAg?$AAu?$AAm?$AAe@
  000b4	ff 15 00 00 00
	00		 call	 DWORD PTR __imp___invalid_parameter
  000ba	83 c4 14	 add	 esp, 20			; 00000014H
  000bd	3b f4		 cmp	 esi, esp
  000bf	e8 00 00 00 00	 call	 __RTC_CheckEsp
  000c4	33 c0		 xor	 eax, eax
  000c6	75 9c		 jne	 SHORT $LN7@Adjust_man
$LN2@Adjust_man:
  000c8	33 c0		 xor	 eax, eax
  000ca	75 82		 jne	 SHORT $LN4@Adjust_man

; 116  : 
; 117  :     // Extra paranoia on aligned allocation/deallocation; ensure _Ptr_container is
; 118  :     // in range [_Min_back_shift, _Non_user_size]
; 119  : #ifdef _DEBUG
; 120  :     constexpr uintptr_t _Min_back_shift = 2 * sizeof(void*);

  000cc	c7 45 e0 08 00
	00 00		 mov	 DWORD PTR __Min_back_shift$[ebp], 8

; 121  : #else // ^^^ _DEBUG ^^^ // vvv !_DEBUG vvv
; 122  :     constexpr uintptr_t _Min_back_shift = sizeof(void*);
; 123  : #endif // _DEBUG
; 124  :     const uintptr_t _Back_shift = reinterpret_cast<uintptr_t>(_Ptr) - _Ptr_container;

  000d3	8b 45 08	 mov	 eax, DWORD PTR __Ptr$[ebp]
  000d6	8b 08		 mov	 ecx, DWORD PTR [eax]
  000d8	2b 4d ec	 sub	 ecx, DWORD PTR __Ptr_container$[ebp]
  000db	89 4d d4	 mov	 DWORD PTR __Back_shift$[ebp], ecx
$LN10@Adjust_man:

; 125  :     _STL_VERIFY(_Back_shift >= _Min_back_shift && _Back_shift <= _Non_user_size, "invalid argument");

  000de	83 7d d4 08	 cmp	 DWORD PTR __Back_shift$[ebp], 8
  000e2	72 08		 jb	 SHORT $LN13@Adjust_man
  000e4	83 7d d4 27	 cmp	 DWORD PTR __Back_shift$[ebp], 39 ; 00000027H
  000e8	77 02		 ja	 SHORT $LN13@Adjust_man
  000ea	eb 64		 jmp	 SHORT $LN8@Adjust_man
$LN13@Adjust_man:
  000ec	8b f4		 mov	 esi, esp
  000ee	68 00 00 00 00	 push	 OFFSET ??_C@_0BB@FCMFBGOM@invalid?5argument@
  000f3	68 00 00 00 00	 push	 OFFSET ??_C@_02DKCKIIND@?$CFs@
  000f8	6a 00		 push	 0
  000fa	a1 00 00 00 00	 mov	 eax, DWORD PTR ?__LINE__Var@?0??_Adjust_manually_vector_aligned@std@@YAXAAPAXAAI@Z@4JA
  000ff	83 c0 13	 add	 eax, 19			; 00000013H
  00102	50		 push	 eax
  00103	68 00 00 00 00	 push	 OFFSET ??_C@_0GI@JKOMEBKC@C?3?2Program?5Files?5?$CIx86?$CJ?2Microsof@
  00108	6a 02		 push	 2
  0010a	ff 15 00 00 00
	00		 call	 DWORD PTR __imp___CrtDbgReport
  00110	83 c4 18	 add	 esp, 24			; 00000018H
  00113	3b f4		 cmp	 esi, esp
  00115	e8 00 00 00 00	 call	 __RTC_CheckEsp
  0011a	83 f8 01	 cmp	 eax, 1
  0011d	75 01		 jne	 SHORT $LN20@Adjust_man
  0011f	cc		 int	 3
$LN20@Adjust_man:
  00120	8b f4		 mov	 esi, esp
  00122	6a 00		 push	 0
  00124	a1 00 00 00 00	 mov	 eax, DWORD PTR ?__LINE__Var@?0??_Adjust_manually_vector_aligned@std@@YAXAAPAXAAI@Z@4JA
  00129	83 c0 13	 add	 eax, 19			; 00000013H
  0012c	50		 push	 eax
  0012d	68 00 00 00 00	 push	 OFFSET ??_C@_1NA@OANNLGA@?$AAC?$AA?3?$AA?2?$AAP?$AAr?$AAo?$AAg?$AAr?$AAa?$AAm?$AA?5?$AAF?$AAi?$AAl?$AAe@
  00132	68 00 00 00 00	 push	 OFFSET ??_C@_1EK@NIFDJFDG@?$AAs?$AAt?$AAd?$AA?3?$AA?3?$AA_?$AAA?$AAd?$AAj?$AAu?$AAs?$AAt?$AA_?$AAm?$AAa@
  00137	68 00 00 00 00	 push	 OFFSET ??_C@_1CG@JNLFBNGN@?$AA?$CC?$AAi?$AAn?$AAv?$AAa?$AAl?$AAi?$AAd?$AA?5?$AAa?$AAr?$AAg?$AAu?$AAm?$AAe@
  0013c	ff 15 00 00 00
	00		 call	 DWORD PTR __imp___invalid_parameter
  00142	83 c4 14	 add	 esp, 20			; 00000014H
  00145	3b f4		 cmp	 esi, esp
  00147	e8 00 00 00 00	 call	 __RTC_CheckEsp
  0014c	33 c0		 xor	 eax, eax
  0014e	75 9c		 jne	 SHORT $LN13@Adjust_man
$LN8@Adjust_man:
  00150	33 c0		 xor	 eax, eax
  00152	75 8a		 jne	 SHORT $LN10@Adjust_man

; 126  :     _Ptr = reinterpret_cast<void*>(_Ptr_container);

  00154	8b 45 08	 mov	 eax, DWORD PTR __Ptr$[ebp]
  00157	8b 4d ec	 mov	 ecx, DWORD PTR __Ptr_container$[ebp]
  0015a	89 08		 mov	 DWORD PTR [eax], ecx

; 127  : }

  0015c	5f		 pop	 edi
  0015d	5e		 pop	 esi
  0015e	5b		 pop	 ebx
  0015f	81 c4 f0 00 00
	00		 add	 esp, 240		; 000000f0H
  00165	3b ec		 cmp	 ebp, esp
  00167	e8 00 00 00 00	 call	 __RTC_CheckEsp
  0016c	8b e5		 mov	 esp, ebp
  0016e	5d		 pop	 ebp
  0016f	c3		 ret	 0
?_Adjust_manually_vector_aligned@std@@YAXAAPAXAAI@Z ENDP ; std::_Adjust_manually_vector_aligned
_TEXT	ENDS
; Function compile flags: /Odtp /RTCsu /ZI
; File C:\Program Files (x86)\Microsoft Visual Studio\2019\Community\VC\Tools\MSVC\14.24.28314\include\xmemory
;	COMDAT ?_Allocate@_Default_allocate_traits@std@@SAPAXI@Z
_TEXT	SEGMENT
__Bytes$ = 8						; size = 4
?_Allocate@_Default_allocate_traits@std@@SAPAXI@Z PROC	; std::_Default_allocate_traits::_Allocate, COMDAT

; 50   :     _DECLSPEC_ALLOCATOR static void* _Allocate(const size_t _Bytes) {

  00000	55		 push	 ebp
  00001	8b ec		 mov	 ebp, esp
  00003	81 ec c0 00 00
	00		 sub	 esp, 192		; 000000c0H
  00009	53		 push	 ebx
  0000a	56		 push	 esi
  0000b	57		 push	 edi
  0000c	8d bd 40 ff ff
	ff		 lea	 edi, DWORD PTR [ebp-192]
  00012	b9 30 00 00 00	 mov	 ecx, 48			; 00000030H
  00017	b8 cc cc cc cc	 mov	 eax, -858993460		; ccccccccH
  0001c	f3 ab		 rep stosd
  0001e	b9 00 00 00 00	 mov	 ecx, OFFSET __B1B75AB9_xmemory
  00023	e8 00 00 00 00	 call	 @__CheckForDebuggerJustMyCode@4

; 51   :         return ::operator new(_Bytes);

  00028	8b 45 08	 mov	 eax, DWORD PTR __Bytes$[ebp]
  0002b	50		 push	 eax
  0002c	e8 00 00 00 00	 call	 ??2@YAPAXI@Z		; operator new
  00031	83 c4 04	 add	 esp, 4

; 52   :     }

  00034	5f		 pop	 edi
  00035	5e		 pop	 esi
  00036	5b		 pop	 ebx
  00037	81 c4 c0 00 00
	00		 add	 esp, 192		; 000000c0H
  0003d	3b ec		 cmp	 ebp, esp
  0003f	e8 00 00 00 00	 call	 __RTC_CheckEsp
  00044	8b e5		 mov	 esp, ebp
  00046	5d		 pop	 ebp
  00047	c3		 ret	 0
?_Allocate@_Default_allocate_traits@std@@SAPAXI@Z ENDP	; std::_Default_allocate_traits::_Allocate
_TEXT	ENDS
; Function compile flags: /Odtp /RTCsu /ZI
; File C:\Program Files (x86)\Microsoft Visual Studio\2019\Community\VC\Tools\MSVC\14.24.28314\include\limits
;	COMDAT ?max@?$numeric_limits@H@std@@SAHXZ
_TEXT	SEGMENT
__$EHRec$ = -12						; size = 12
?max@?$numeric_limits@H@std@@SAHXZ PROC			; std::numeric_limits<int>::max, COMDAT

; 557  :     _NODISCARD static constexpr int(max)() noexcept {

  00000	55		 push	 ebp
  00001	8b ec		 mov	 ebp, esp
  00003	6a ff		 push	 -1
  00005	68 00 00 00 00	 push	 __ehhandler$?max@?$numeric_limits@H@std@@SAHXZ
  0000a	64 a1 00 00 00
	00		 mov	 eax, DWORD PTR fs:0
  00010	50		 push	 eax
  00011	81 ec c0 00 00
	00		 sub	 esp, 192		; 000000c0H
  00017	53		 push	 ebx
  00018	56		 push	 esi
  00019	57		 push	 edi
  0001a	8d bd 34 ff ff
	ff		 lea	 edi, DWORD PTR [ebp-204]
  00020	b9 30 00 00 00	 mov	 ecx, 48			; 00000030H
  00025	b8 cc cc cc cc	 mov	 eax, -858993460		; ccccccccH
  0002a	f3 ab		 rep stosd
  0002c	a1 00 00 00 00	 mov	 eax, DWORD PTR ___security_cookie
  00031	33 c5		 xor	 eax, ebp
  00033	50		 push	 eax
  00034	8d 45 f4	 lea	 eax, DWORD PTR __$EHRec$[ebp]
  00037	64 a3 00 00 00
	00		 mov	 DWORD PTR fs:0, eax
  0003d	b9 00 00 00 00	 mov	 ecx, OFFSET __CDF80030_limits
  00042	e8 00 00 00 00	 call	 @__CheckForDebuggerJustMyCode@4

; 558  :         return INT_MAX;

  00047	b8 ff ff ff 7f	 mov	 eax, 2147483647		; 7fffffffH

; 559  :     }

  0004c	8b 4d f4	 mov	 ecx, DWORD PTR __$EHRec$[ebp]
  0004f	64 89 0d 00 00
	00 00		 mov	 DWORD PTR fs:0, ecx
  00056	59		 pop	 ecx
  00057	5f		 pop	 edi
  00058	5e		 pop	 esi
  00059	5b		 pop	 ebx
  0005a	81 c4 cc 00 00
	00		 add	 esp, 204		; 000000ccH
  00060	3b ec		 cmp	 ebp, esp
  00062	e8 00 00 00 00	 call	 __RTC_CheckEsp
  00067	8b e5		 mov	 esp, ebp
  00069	5d		 pop	 ebp
  0006a	c3		 ret	 0
_TEXT	ENDS
;	COMDAT text$x
text$x	SEGMENT
__ehhandler$?max@?$numeric_limits@H@std@@SAHXZ:
  00000	8b 54 24 08	 mov	 edx, DWORD PTR [esp+8]
  00004	8d 42 0c	 lea	 eax, DWORD PTR [edx+12]
  00007	8b 8a 30 ff ff
	ff		 mov	 ecx, DWORD PTR [edx-208]
  0000d	33 c8		 xor	 ecx, eax
  0000f	e8 00 00 00 00	 call	 @__security_check_cookie@4
  00014	b8 00 00 00 00	 mov	 eax, OFFSET __ehfuncinfo$?max@?$numeric_limits@H@std@@SAHXZ
  00019	e9 00 00 00 00	 jmp	 ___CxxFrameHandler3
text$x	ENDS
?max@?$numeric_limits@H@std@@SAHXZ ENDP			; std::numeric_limits<int>::max
; Function compile flags: /Odtp /RTCsu /ZI
; File C:\Program Files (x86)\Microsoft Visual Studio\2019\Community\VC\Tools\MSVC\14.24.28314\include\exception
;	COMDAT ?_Throw_bad_array_new_length@std@@YAXXZ
_TEXT	SEGMENT
$T1 = -208						; size = 12
?_Throw_bad_array_new_length@std@@YAXXZ PROC		; std::_Throw_bad_array_new_length, COMDAT

; 322  : [[noreturn]] inline void _Throw_bad_array_new_length() {

  00000	55		 push	 ebp
  00001	8b ec		 mov	 ebp, esp
  00003	81 ec d4 00 00
	00		 sub	 esp, 212		; 000000d4H
  00009	53		 push	 ebx
  0000a	56		 push	 esi
  0000b	57		 push	 edi
  0000c	8d bd 2c ff ff
	ff		 lea	 edi, DWORD PTR [ebp-212]
  00012	b9 35 00 00 00	 mov	 ecx, 53			; 00000035H
  00017	b8 cc cc cc cc	 mov	 eax, -858993460		; ccccccccH
  0001c	f3 ab		 rep stosd
  0001e	b9 00 00 00 00	 mov	 ecx, OFFSET __CB7CF65A_exception
  00023	e8 00 00 00 00	 call	 @__CheckForDebuggerJustMyCode@4

; 323  :     _THROW(bad_array_new_length{});

  00028	8d 8d 30 ff ff
	ff		 lea	 ecx, DWORD PTR $T1[ebp]
  0002e	e8 00 00 00 00	 call	 ??0bad_array_new_length@std@@QAE@XZ ; std::bad_array_new_length::bad_array_new_length
  00033	68 00 00 00 00	 push	 OFFSET __TI3?AVbad_array_new_length@std@@
  00038	8d 85 30 ff ff
	ff		 lea	 eax, DWORD PTR $T1[ebp]
  0003e	50		 push	 eax
  0003f	e8 00 00 00 00	 call	 __CxxThrowException@8
$LN2@Throw_bad_:

; 324  : }

  00044	5f		 pop	 edi
  00045	5e		 pop	 esi
  00046	5b		 pop	 ebx
  00047	81 c4 d4 00 00
	00		 add	 esp, 212		; 000000d4H
  0004d	3b ec		 cmp	 ebp, esp
  0004f	e8 00 00 00 00	 call	 __RTC_CheckEsp
  00054	8b e5		 mov	 esp, ebp
  00056	5d		 pop	 ebp
  00057	c3		 ret	 0
?_Throw_bad_array_new_length@std@@YAXXZ ENDP		; std::_Throw_bad_array_new_length
_TEXT	ENDS
; Function compile flags: /Odtp /RTCsu /ZI
;	COMDAT ??_Gbad_array_new_length@std@@UAEPAXI@Z
_TEXT	SEGMENT
_this$ = -8						; size = 4
___flags$ = 8						; size = 4
??_Gbad_array_new_length@std@@UAEPAXI@Z PROC		; std::bad_array_new_length::`scalar deleting destructor', COMDAT
; _this$ = ecx
  00000	55		 push	 ebp
  00001	8b ec		 mov	 ebp, esp
  00003	81 ec cc 00 00
	00		 sub	 esp, 204		; 000000ccH
  00009	53		 push	 ebx
  0000a	56		 push	 esi
  0000b	57		 push	 edi
  0000c	51		 push	 ecx
  0000d	8d bd 34 ff ff
	ff		 lea	 edi, DWORD PTR [ebp-204]
  00013	b9 33 00 00 00	 mov	 ecx, 51			; 00000033H
  00018	b8 cc cc cc cc	 mov	 eax, -858993460		; ccccccccH
  0001d	f3 ab		 rep stosd
  0001f	59		 pop	 ecx
  00020	89 4d f8	 mov	 DWORD PTR _this$[ebp], ecx
  00023	8b 4d f8	 mov	 ecx, DWORD PTR _this$[ebp]
  00026	e8 00 00 00 00	 call	 ??1bad_array_new_length@std@@UAE@XZ
  0002b	8b 45 08	 mov	 eax, DWORD PTR ___flags$[ebp]
  0002e	83 e0 01	 and	 eax, 1
  00031	74 0e		 je	 SHORT $LN2@scalar
  00033	6a 0c		 push	 12			; 0000000cH
  00035	8b 45 f8	 mov	 eax, DWORD PTR _this$[ebp]
  00038	50		 push	 eax
  00039	e8 00 00 00 00	 call	 ??3@YAXPAXI@Z		; operator delete
  0003e	83 c4 08	 add	 esp, 8
$LN2@scalar:
  00041	8b 45 f8	 mov	 eax, DWORD PTR _this$[ebp]
  00044	5f		 pop	 edi
  00045	5e		 pop	 esi
  00046	5b		 pop	 ebx
  00047	81 c4 cc 00 00
	00		 add	 esp, 204		; 000000ccH
  0004d	3b ec		 cmp	 ebp, esp
  0004f	e8 00 00 00 00	 call	 __RTC_CheckEsp
  00054	8b e5		 mov	 esp, ebp
  00056	5d		 pop	 ebp
  00057	c2 04 00	 ret	 4
??_Gbad_array_new_length@std@@UAEPAXI@Z ENDP		; std::bad_array_new_length::`scalar deleting destructor'
_TEXT	ENDS
; Function compile flags: /Odtp /RTCsu /ZI
;	COMDAT ??0bad_array_new_length@std@@QAE@ABV01@@Z
_TEXT	SEGMENT
_this$ = -8						; size = 4
___that$ = 8						; size = 4
??0bad_array_new_length@std@@QAE@ABV01@@Z PROC		; std::bad_array_new_length::bad_array_new_length, COMDAT
; _this$ = ecx
  00000	55		 push	 ebp
  00001	8b ec		 mov	 ebp, esp
  00003	81 ec cc 00 00
	00		 sub	 esp, 204		; 000000ccH
  00009	53		 push	 ebx
  0000a	56		 push	 esi
  0000b	57		 push	 edi
  0000c	51		 push	 ecx
  0000d	8d bd 34 ff ff
	ff		 lea	 edi, DWORD PTR [ebp-204]
  00013	b9 33 00 00 00	 mov	 ecx, 51			; 00000033H
  00018	b8 cc cc cc cc	 mov	 eax, -858993460		; ccccccccH
  0001d	f3 ab		 rep stosd
  0001f	59		 pop	 ecx
  00020	89 4d f8	 mov	 DWORD PTR _this$[ebp], ecx
  00023	8b 45 08	 mov	 eax, DWORD PTR ___that$[ebp]
  00026	50		 push	 eax
  00027	8b 4d f8	 mov	 ecx, DWORD PTR _this$[ebp]
  0002a	e8 00 00 00 00	 call	 ??0bad_alloc@std@@QAE@ABV01@@Z
  0002f	8b 45 f8	 mov	 eax, DWORD PTR _this$[ebp]
  00032	c7 00 00 00 00
	00		 mov	 DWORD PTR [eax], OFFSET ??_7bad_array_new_length@std@@6B@
  00038	8b 45 f8	 mov	 eax, DWORD PTR _this$[ebp]
  0003b	5f		 pop	 edi
  0003c	5e		 pop	 esi
  0003d	5b		 pop	 ebx
  0003e	81 c4 cc 00 00
	00		 add	 esp, 204		; 000000ccH
  00044	3b ec		 cmp	 ebp, esp
  00046	e8 00 00 00 00	 call	 __RTC_CheckEsp
  0004b	8b e5		 mov	 esp, ebp
  0004d	5d		 pop	 ebp
  0004e	c2 04 00	 ret	 4
??0bad_array_new_length@std@@QAE@ABV01@@Z ENDP		; std::bad_array_new_length::bad_array_new_length
_TEXT	ENDS
; Function compile flags: /Odtp /RTCsu /ZI
;	COMDAT ??1bad_array_new_length@std@@UAE@XZ
_TEXT	SEGMENT
_this$ = -8						; size = 4
??1bad_array_new_length@std@@UAE@XZ PROC		; std::bad_array_new_length::~bad_array_new_length, COMDAT
; _this$ = ecx
  00000	55		 push	 ebp
  00001	8b ec		 mov	 ebp, esp
  00003	81 ec cc 00 00
	00		 sub	 esp, 204		; 000000ccH
  00009	53		 push	 ebx
  0000a	56		 push	 esi
  0000b	57		 push	 edi
  0000c	51		 push	 ecx
  0000d	8d bd 34 ff ff
	ff		 lea	 edi, DWORD PTR [ebp-204]
  00013	b9 33 00 00 00	 mov	 ecx, 51			; 00000033H
  00018	b8 cc cc cc cc	 mov	 eax, -858993460		; ccccccccH
  0001d	f3 ab		 rep stosd
  0001f	59		 pop	 ecx
  00020	89 4d f8	 mov	 DWORD PTR _this$[ebp], ecx
  00023	8b 4d f8	 mov	 ecx, DWORD PTR _this$[ebp]
  00026	e8 00 00 00 00	 call	 ??1bad_alloc@std@@UAE@XZ
  0002b	5f		 pop	 edi
  0002c	5e		 pop	 esi
  0002d	5b		 pop	 ebx
  0002e	81 c4 cc 00 00
	00		 add	 esp, 204		; 000000ccH
  00034	3b ec		 cmp	 ebp, esp
  00036	e8 00 00 00 00	 call	 __RTC_CheckEsp
  0003b	8b e5		 mov	 esp, ebp
  0003d	5d		 pop	 ebp
  0003e	c3		 ret	 0
??1bad_array_new_length@std@@UAE@XZ ENDP		; std::bad_array_new_length::~bad_array_new_length
_TEXT	ENDS
; Function compile flags: /Odtp /RTCsu /ZI
; File C:\Program Files (x86)\Microsoft Visual Studio\2019\Community\VC\Tools\MSVC\14.24.28314\include\vcruntime_exception.h
;	COMDAT ??0bad_array_new_length@std@@QAE@XZ
_TEXT	SEGMENT
_this$ = -20						; size = 4
__$EHRec$ = -12						; size = 12
??0bad_array_new_length@std@@QAE@XZ PROC		; std::bad_array_new_length::bad_array_new_length, COMDAT
; _this$ = ecx

; 138  :     {

  00000	55		 push	 ebp
  00001	8b ec		 mov	 ebp, esp
  00003	6a ff		 push	 -1
  00005	68 00 00 00 00	 push	 __ehhandler$??0bad_array_new_length@std@@QAE@XZ
  0000a	64 a1 00 00 00
	00		 mov	 eax, DWORD PTR fs:0
  00010	50		 push	 eax
  00011	81 ec cc 00 00
	00		 sub	 esp, 204		; 000000ccH
  00017	53		 push	 ebx
  00018	56		 push	 esi
  00019	57		 push	 edi
  0001a	51		 push	 ecx
  0001b	8d bd 28 ff ff
	ff		 lea	 edi, DWORD PTR [ebp-216]
  00021	b9 33 00 00 00	 mov	 ecx, 51			; 00000033H
  00026	b8 cc cc cc cc	 mov	 eax, -858993460		; ccccccccH
  0002b	f3 ab		 rep stosd
  0002d	59		 pop	 ecx
  0002e	a1 00 00 00 00	 mov	 eax, DWORD PTR ___security_cookie
  00033	33 c5		 xor	 eax, ebp
  00035	50		 push	 eax
  00036	8d 45 f4	 lea	 eax, DWORD PTR __$EHRec$[ebp]
  00039	64 a3 00 00 00
	00		 mov	 DWORD PTR fs:0, eax
  0003f	89 4d ec	 mov	 DWORD PTR _this$[ebp], ecx
  00042	b9 00 00 00 00	 mov	 ecx, OFFSET __CFCEF810_vcruntime_exception@h
  00047	e8 00 00 00 00	 call	 @__CheckForDebuggerJustMyCode@4

; 137  :         : bad_alloc("bad array new length")

  0004c	68 00 00 00 00	 push	 OFFSET ??_C@_0BF@KINCDENJ@bad?5array?5new?5length@
  00051	8b 4d ec	 mov	 ecx, DWORD PTR _this$[ebp]
  00054	e8 00 00 00 00	 call	 ??0bad_alloc@std@@AAE@QBD@Z ; std::bad_alloc::bad_alloc

; 138  :     {

  00059	8b 45 ec	 mov	 eax, DWORD PTR _this$[ebp]
  0005c	c7 00 00 00 00
	00		 mov	 DWORD PTR [eax], OFFSET ??_7bad_array_new_length@std@@6B@

; 139  :     }

  00062	8b 45 ec	 mov	 eax, DWORD PTR _this$[ebp]
  00065	8b 4d f4	 mov	 ecx, DWORD PTR __$EHRec$[ebp]
  00068	64 89 0d 00 00
	00 00		 mov	 DWORD PTR fs:0, ecx
  0006f	59		 pop	 ecx
  00070	5f		 pop	 edi
  00071	5e		 pop	 esi
  00072	5b		 pop	 ebx
  00073	81 c4 d8 00 00
	00		 add	 esp, 216		; 000000d8H
  00079	3b ec		 cmp	 ebp, esp
  0007b	e8 00 00 00 00	 call	 __RTC_CheckEsp
  00080	8b e5		 mov	 esp, ebp
  00082	5d		 pop	 ebp
  00083	c3		 ret	 0
_TEXT	ENDS
;	COMDAT text$x
text$x	SEGMENT
__ehhandler$??0bad_array_new_length@std@@QAE@XZ:
  00000	8b 54 24 08	 mov	 edx, DWORD PTR [esp+8]
  00004	8d 42 0c	 lea	 eax, DWORD PTR [edx+12]
  00007	8b 8a 24 ff ff
	ff		 mov	 ecx, DWORD PTR [edx-220]
  0000d	33 c8		 xor	 ecx, eax
  0000f	e8 00 00 00 00	 call	 @__security_check_cookie@4
  00014	b8 00 00 00 00	 mov	 eax, OFFSET __ehfuncinfo$??0bad_array_new_length@std@@QAE@XZ
  00019	e9 00 00 00 00	 jmp	 ___CxxFrameHandler3
text$x	ENDS
??0bad_array_new_length@std@@QAE@XZ ENDP		; std::bad_array_new_length::bad_array_new_length
; Function compile flags: /Odtp /RTCsu /ZI
;	COMDAT ??_Gbad_alloc@std@@UAEPAXI@Z
_TEXT	SEGMENT
_this$ = -8						; size = 4
___flags$ = 8						; size = 4
??_Gbad_alloc@std@@UAEPAXI@Z PROC			; std::bad_alloc::`scalar deleting destructor', COMDAT
; _this$ = ecx
  00000	55		 push	 ebp
  00001	8b ec		 mov	 ebp, esp
  00003	81 ec cc 00 00
	00		 sub	 esp, 204		; 000000ccH
  00009	53		 push	 ebx
  0000a	56		 push	 esi
  0000b	57		 push	 edi
  0000c	51		 push	 ecx
  0000d	8d bd 34 ff ff
	ff		 lea	 edi, DWORD PTR [ebp-204]
  00013	b9 33 00 00 00	 mov	 ecx, 51			; 00000033H
  00018	b8 cc cc cc cc	 mov	 eax, -858993460		; ccccccccH
  0001d	f3 ab		 rep stosd
  0001f	59		 pop	 ecx
  00020	89 4d f8	 mov	 DWORD PTR _this$[ebp], ecx
  00023	8b 4d f8	 mov	 ecx, DWORD PTR _this$[ebp]
  00026	e8 00 00 00 00	 call	 ??1bad_alloc@std@@UAE@XZ
  0002b	8b 45 08	 mov	 eax, DWORD PTR ___flags$[ebp]
  0002e	83 e0 01	 and	 eax, 1
  00031	74 0e		 je	 SHORT $LN2@scalar
  00033	6a 0c		 push	 12			; 0000000cH
  00035	8b 45 f8	 mov	 eax, DWORD PTR _this$[ebp]
  00038	50		 push	 eax
  00039	e8 00 00 00 00	 call	 ??3@YAXPAXI@Z		; operator delete
  0003e	83 c4 08	 add	 esp, 8
$LN2@scalar:
  00041	8b 45 f8	 mov	 eax, DWORD PTR _this$[ebp]
  00044	5f		 pop	 edi
  00045	5e		 pop	 esi
  00046	5b		 pop	 ebx
  00047	81 c4 cc 00 00
	00		 add	 esp, 204		; 000000ccH
  0004d	3b ec		 cmp	 ebp, esp
  0004f	e8 00 00 00 00	 call	 __RTC_CheckEsp
  00054	8b e5		 mov	 esp, ebp
  00056	5d		 pop	 ebp
  00057	c2 04 00	 ret	 4
??_Gbad_alloc@std@@UAEPAXI@Z ENDP			; std::bad_alloc::`scalar deleting destructor'
_TEXT	ENDS
; Function compile flags: /Odtp /RTCsu /ZI
;	COMDAT ??0bad_alloc@std@@QAE@ABV01@@Z
_TEXT	SEGMENT
_this$ = -8						; size = 4
___that$ = 8						; size = 4
??0bad_alloc@std@@QAE@ABV01@@Z PROC			; std::bad_alloc::bad_alloc, COMDAT
; _this$ = ecx
  00000	55		 push	 ebp
  00001	8b ec		 mov	 ebp, esp
  00003	81 ec cc 00 00
	00		 sub	 esp, 204		; 000000ccH
  00009	53		 push	 ebx
  0000a	56		 push	 esi
  0000b	57		 push	 edi
  0000c	51		 push	 ecx
  0000d	8d bd 34 ff ff
	ff		 lea	 edi, DWORD PTR [ebp-204]
  00013	b9 33 00 00 00	 mov	 ecx, 51			; 00000033H
  00018	b8 cc cc cc cc	 mov	 eax, -858993460		; ccccccccH
  0001d	f3 ab		 rep stosd
  0001f	59		 pop	 ecx
  00020	89 4d f8	 mov	 DWORD PTR _this$[ebp], ecx
  00023	8b 45 08	 mov	 eax, DWORD PTR ___that$[ebp]
  00026	50		 push	 eax
  00027	8b 4d f8	 mov	 ecx, DWORD PTR _this$[ebp]
  0002a	e8 00 00 00 00	 call	 ??0exception@std@@QAE@ABV01@@Z ; std::exception::exception
  0002f	8b 45 f8	 mov	 eax, DWORD PTR _this$[ebp]
  00032	c7 00 00 00 00
	00		 mov	 DWORD PTR [eax], OFFSET ??_7bad_alloc@std@@6B@
  00038	8b 45 f8	 mov	 eax, DWORD PTR _this$[ebp]
  0003b	5f		 pop	 edi
  0003c	5e		 pop	 esi
  0003d	5b		 pop	 ebx
  0003e	81 c4 cc 00 00
	00		 add	 esp, 204		; 000000ccH
  00044	3b ec		 cmp	 ebp, esp
  00046	e8 00 00 00 00	 call	 __RTC_CheckEsp
  0004b	8b e5		 mov	 esp, ebp
  0004d	5d		 pop	 ebp
  0004e	c2 04 00	 ret	 4
??0bad_alloc@std@@QAE@ABV01@@Z ENDP			; std::bad_alloc::bad_alloc
_TEXT	ENDS
; Function compile flags: /Odtp /RTCsu /ZI
;	COMDAT ??1bad_alloc@std@@UAE@XZ
_TEXT	SEGMENT
_this$ = -8						; size = 4
??1bad_alloc@std@@UAE@XZ PROC				; std::bad_alloc::~bad_alloc, COMDAT
; _this$ = ecx
  00000	55		 push	 ebp
  00001	8b ec		 mov	 ebp, esp
  00003	81 ec cc 00 00
	00		 sub	 esp, 204		; 000000ccH
  00009	53		 push	 ebx
  0000a	56		 push	 esi
  0000b	57		 push	 edi
  0000c	51		 push	 ecx
  0000d	8d bd 34 ff ff
	ff		 lea	 edi, DWORD PTR [ebp-204]
  00013	b9 33 00 00 00	 mov	 ecx, 51			; 00000033H
  00018	b8 cc cc cc cc	 mov	 eax, -858993460		; ccccccccH
  0001d	f3 ab		 rep stosd
  0001f	59		 pop	 ecx
  00020	89 4d f8	 mov	 DWORD PTR _this$[ebp], ecx
  00023	8b 4d f8	 mov	 ecx, DWORD PTR _this$[ebp]
  00026	e8 00 00 00 00	 call	 ??1exception@std@@UAE@XZ ; std::exception::~exception
  0002b	5f		 pop	 edi
  0002c	5e		 pop	 esi
  0002d	5b		 pop	 ebx
  0002e	81 c4 cc 00 00
	00		 add	 esp, 204		; 000000ccH
  00034	3b ec		 cmp	 ebp, esp
  00036	e8 00 00 00 00	 call	 __RTC_CheckEsp
  0003b	8b e5		 mov	 esp, ebp
  0003d	5d		 pop	 ebp
  0003e	c3		 ret	 0
??1bad_alloc@std@@UAE@XZ ENDP				; std::bad_alloc::~bad_alloc
_TEXT	ENDS
; Function compile flags: /Odtp /RTCsu /ZI
; File C:\Program Files (x86)\Microsoft Visual Studio\2019\Community\VC\Tools\MSVC\14.24.28314\include\vcruntime_exception.h
;	COMDAT ??0bad_alloc@std@@AAE@QBD@Z
_TEXT	SEGMENT
_this$ = -20						; size = 4
__$EHRec$ = -12						; size = 12
__Message$ = 8						; size = 4
??0bad_alloc@std@@AAE@QBD@Z PROC			; std::bad_alloc::bad_alloc, COMDAT
; _this$ = ecx

; 127  :     {

  00000	55		 push	 ebp
  00001	8b ec		 mov	 ebp, esp
  00003	6a ff		 push	 -1
  00005	68 00 00 00 00	 push	 __ehhandler$??0bad_alloc@std@@AAE@QBD@Z
  0000a	64 a1 00 00 00
	00		 mov	 eax, DWORD PTR fs:0
  00010	50		 push	 eax
  00011	81 ec cc 00 00
	00		 sub	 esp, 204		; 000000ccH
  00017	53		 push	 ebx
  00018	56		 push	 esi
  00019	57		 push	 edi
  0001a	51		 push	 ecx
  0001b	8d bd 28 ff ff
	ff		 lea	 edi, DWORD PTR [ebp-216]
  00021	b9 33 00 00 00	 mov	 ecx, 51			; 00000033H
  00026	b8 cc cc cc cc	 mov	 eax, -858993460		; ccccccccH
  0002b	f3 ab		 rep stosd
  0002d	59		 pop	 ecx
  0002e	a1 00 00 00 00	 mov	 eax, DWORD PTR ___security_cookie
  00033	33 c5		 xor	 eax, ebp
  00035	50		 push	 eax
  00036	8d 45 f4	 lea	 eax, DWORD PTR __$EHRec$[ebp]
  00039	64 a3 00 00 00
	00		 mov	 DWORD PTR fs:0, eax
  0003f	89 4d ec	 mov	 DWORD PTR _this$[ebp], ecx
  00042	b9 00 00 00 00	 mov	 ecx, OFFSET __CFCEF810_vcruntime_exception@h
  00047	e8 00 00 00 00	 call	 @__CheckForDebuggerJustMyCode@4

; 126  :         : exception(_Message, 1)

  0004c	6a 01		 push	 1
  0004e	8b 45 08	 mov	 eax, DWORD PTR __Message$[ebp]
  00051	50		 push	 eax
  00052	8b 4d ec	 mov	 ecx, DWORD PTR _this$[ebp]
  00055	e8 00 00 00 00	 call	 ??0exception@std@@QAE@QBDH@Z ; std::exception::exception

; 127  :     {

  0005a	8b 45 ec	 mov	 eax, DWORD PTR _this$[ebp]
  0005d	c7 00 00 00 00
	00		 mov	 DWORD PTR [eax], OFFSET ??_7bad_alloc@std@@6B@

; 128  :     }

  00063	8b 45 ec	 mov	 eax, DWORD PTR _this$[ebp]
  00066	8b 4d f4	 mov	 ecx, DWORD PTR __$EHRec$[ebp]
  00069	64 89 0d 00 00
	00 00		 mov	 DWORD PTR fs:0, ecx
  00070	59		 pop	 ecx
  00071	5f		 pop	 edi
  00072	5e		 pop	 esi
  00073	5b		 pop	 ebx
  00074	81 c4 d8 00 00
	00		 add	 esp, 216		; 000000d8H
  0007a	3b ec		 cmp	 ebp, esp
  0007c	e8 00 00 00 00	 call	 __RTC_CheckEsp
  00081	8b e5		 mov	 esp, ebp
  00083	5d		 pop	 ebp
  00084	c2 04 00	 ret	 4
_TEXT	ENDS
;	COMDAT text$x
text$x	SEGMENT
__ehhandler$??0bad_alloc@std@@AAE@QBD@Z:
  00000	8b 54 24 08	 mov	 edx, DWORD PTR [esp+8]
  00004	8d 42 0c	 lea	 eax, DWORD PTR [edx+12]
  00007	8b 8a 24 ff ff
	ff		 mov	 ecx, DWORD PTR [edx-220]
  0000d	33 c8		 xor	 ecx, eax
  0000f	e8 00 00 00 00	 call	 @__security_check_cookie@4
  00014	b8 00 00 00 00	 mov	 eax, OFFSET __ehfuncinfo$??0bad_alloc@std@@AAE@QBD@Z
  00019	e9 00 00 00 00	 jmp	 ___CxxFrameHandler3
text$x	ENDS
??0bad_alloc@std@@AAE@QBD@Z ENDP			; std::bad_alloc::bad_alloc
; Function compile flags: /Odtp /RTCsu /ZI
;	COMDAT ??_Gexception@std@@UAEPAXI@Z
_TEXT	SEGMENT
_this$ = -8						; size = 4
___flags$ = 8						; size = 4
??_Gexception@std@@UAEPAXI@Z PROC			; std::exception::`scalar deleting destructor', COMDAT
; _this$ = ecx
  00000	55		 push	 ebp
  00001	8b ec		 mov	 ebp, esp
  00003	81 ec cc 00 00
	00		 sub	 esp, 204		; 000000ccH
  00009	53		 push	 ebx
  0000a	56		 push	 esi
  0000b	57		 push	 edi
  0000c	51		 push	 ecx
  0000d	8d bd 34 ff ff
	ff		 lea	 edi, DWORD PTR [ebp-204]
  00013	b9 33 00 00 00	 mov	 ecx, 51			; 00000033H
  00018	b8 cc cc cc cc	 mov	 eax, -858993460		; ccccccccH
  0001d	f3 ab		 rep stosd
  0001f	59		 pop	 ecx
  00020	89 4d f8	 mov	 DWORD PTR _this$[ebp], ecx
  00023	8b 4d f8	 mov	 ecx, DWORD PTR _this$[ebp]
  00026	e8 00 00 00 00	 call	 ??1exception@std@@UAE@XZ ; std::exception::~exception
  0002b	8b 45 08	 mov	 eax, DWORD PTR ___flags$[ebp]
  0002e	83 e0 01	 and	 eax, 1
  00031	74 0e		 je	 SHORT $LN2@scalar
  00033	6a 0c		 push	 12			; 0000000cH
  00035	8b 45 f8	 mov	 eax, DWORD PTR _this$[ebp]
  00038	50		 push	 eax
  00039	e8 00 00 00 00	 call	 ??3@YAXPAXI@Z		; operator delete
  0003e	83 c4 08	 add	 esp, 8
$LN2@scalar:
  00041	8b 45 f8	 mov	 eax, DWORD PTR _this$[ebp]
  00044	5f		 pop	 edi
  00045	5e		 pop	 esi
  00046	5b		 pop	 ebx
  00047	81 c4 cc 00 00
	00		 add	 esp, 204		; 000000ccH
  0004d	3b ec		 cmp	 ebp, esp
  0004f	e8 00 00 00 00	 call	 __RTC_CheckEsp
  00054	8b e5		 mov	 esp, ebp
  00056	5d		 pop	 ebp
  00057	c2 04 00	 ret	 4
??_Gexception@std@@UAEPAXI@Z ENDP			; std::exception::`scalar deleting destructor'
_TEXT	ENDS
; Function compile flags: /Odtp /RTCsu /ZI
; File C:\Program Files (x86)\Microsoft Visual Studio\2019\Community\VC\Tools\MSVC\14.24.28314\include\vcruntime_exception.h
;	COMDAT ?what@exception@std@@UBEPBDXZ
_TEXT	SEGMENT
tv69 = -208						; size = 4
_this$ = -8						; size = 4
?what@exception@std@@UBEPBDXZ PROC			; std::exception::what, COMDAT
; _this$ = ecx

; 91   :     {

  00000	55		 push	 ebp
  00001	8b ec		 mov	 ebp, esp
  00003	81 ec d0 00 00
	00		 sub	 esp, 208		; 000000d0H
  00009	53		 push	 ebx
  0000a	56		 push	 esi
  0000b	57		 push	 edi
  0000c	51		 push	 ecx
  0000d	8d bd 30 ff ff
	ff		 lea	 edi, DWORD PTR [ebp-208]
  00013	b9 34 00 00 00	 mov	 ecx, 52			; 00000034H
  00018	b8 cc cc cc cc	 mov	 eax, -858993460		; ccccccccH
  0001d	f3 ab		 rep stosd
  0001f	59		 pop	 ecx
  00020	89 4d f8	 mov	 DWORD PTR _this$[ebp], ecx
  00023	b9 00 00 00 00	 mov	 ecx, OFFSET __CFCEF810_vcruntime_exception@h
  00028	e8 00 00 00 00	 call	 @__CheckForDebuggerJustMyCode@4

; 92   :         return _Data._What ? _Data._What : "Unknown exception";

  0002d	8b 45 f8	 mov	 eax, DWORD PTR _this$[ebp]
  00030	83 78 04 00	 cmp	 DWORD PTR [eax+4], 0
  00034	74 0e		 je	 SHORT $LN3@what
  00036	8b 4d f8	 mov	 ecx, DWORD PTR _this$[ebp]
  00039	8b 51 04	 mov	 edx, DWORD PTR [ecx+4]
  0003c	89 95 30 ff ff
	ff		 mov	 DWORD PTR tv69[ebp], edx
  00042	eb 0a		 jmp	 SHORT $LN4@what
$LN3@what:
  00044	c7 85 30 ff ff
	ff 00 00 00 00	 mov	 DWORD PTR tv69[ebp], OFFSET ??_C@_0BC@EOODALEL@Unknown?5exception@
$LN4@what:
  0004e	8b 85 30 ff ff
	ff		 mov	 eax, DWORD PTR tv69[ebp]

; 93   :     }

  00054	5f		 pop	 edi
  00055	5e		 pop	 esi
  00056	5b		 pop	 ebx
  00057	81 c4 d0 00 00
	00		 add	 esp, 208		; 000000d0H
  0005d	3b ec		 cmp	 ebp, esp
  0005f	e8 00 00 00 00	 call	 __RTC_CheckEsp
  00064	8b e5		 mov	 esp, ebp
  00066	5d		 pop	 ebp
  00067	c3		 ret	 0
?what@exception@std@@UBEPBDXZ ENDP			; std::exception::what
_TEXT	ENDS
; Function compile flags: /Odtp /RTCsu /ZI
; File C:\Program Files (x86)\Microsoft Visual Studio\2019\Community\VC\Tools\MSVC\14.24.28314\include\vcruntime_exception.h
;	COMDAT ??1exception@std@@UAE@XZ
_TEXT	SEGMENT
_this$ = -20						; size = 4
__$EHRec$ = -12						; size = 12
??1exception@std@@UAE@XZ PROC				; std::exception::~exception, COMDAT
; _this$ = ecx

; 86   :     {

  00000	55		 push	 ebp
  00001	8b ec		 mov	 ebp, esp
  00003	6a ff		 push	 -1
  00005	68 00 00 00 00	 push	 __ehhandler$??1exception@std@@UAE@XZ
  0000a	64 a1 00 00 00
	00		 mov	 eax, DWORD PTR fs:0
  00010	50		 push	 eax
  00011	81 ec cc 00 00
	00		 sub	 esp, 204		; 000000ccH
  00017	53		 push	 ebx
  00018	56		 push	 esi
  00019	57		 push	 edi
  0001a	51		 push	 ecx
  0001b	8d bd 28 ff ff
	ff		 lea	 edi, DWORD PTR [ebp-216]
  00021	b9 33 00 00 00	 mov	 ecx, 51			; 00000033H
  00026	b8 cc cc cc cc	 mov	 eax, -858993460		; ccccccccH
  0002b	f3 ab		 rep stosd
  0002d	59		 pop	 ecx
  0002e	a1 00 00 00 00	 mov	 eax, DWORD PTR ___security_cookie
  00033	33 c5		 xor	 eax, ebp
  00035	50		 push	 eax
  00036	8d 45 f4	 lea	 eax, DWORD PTR __$EHRec$[ebp]
  00039	64 a3 00 00 00
	00		 mov	 DWORD PTR fs:0, eax
  0003f	89 4d ec	 mov	 DWORD PTR _this$[ebp], ecx
  00042	b9 00 00 00 00	 mov	 ecx, OFFSET __CFCEF810_vcruntime_exception@h
  00047	e8 00 00 00 00	 call	 @__CheckForDebuggerJustMyCode@4
  0004c	8b 45 ec	 mov	 eax, DWORD PTR _this$[ebp]
  0004f	c7 00 00 00 00
	00		 mov	 DWORD PTR [eax], OFFSET ??_7exception@std@@6B@

; 87   :         __std_exception_destroy(&_Data);

  00055	8b 45 ec	 mov	 eax, DWORD PTR _this$[ebp]
  00058	83 c0 04	 add	 eax, 4
  0005b	50		 push	 eax
  0005c	e8 00 00 00 00	 call	 ___std_exception_destroy
  00061	83 c4 04	 add	 esp, 4

; 88   :     }

  00064	8b 4d f4	 mov	 ecx, DWORD PTR __$EHRec$[ebp]
  00067	64 89 0d 00 00
	00 00		 mov	 DWORD PTR fs:0, ecx
  0006e	59		 pop	 ecx
  0006f	5f		 pop	 edi
  00070	5e		 pop	 esi
  00071	5b		 pop	 ebx
  00072	81 c4 d8 00 00
	00		 add	 esp, 216		; 000000d8H
  00078	3b ec		 cmp	 ebp, esp
  0007a	e8 00 00 00 00	 call	 __RTC_CheckEsp
  0007f	8b e5		 mov	 esp, ebp
  00081	5d		 pop	 ebp
  00082	c3		 ret	 0
_TEXT	ENDS
;	COMDAT text$x
text$x	SEGMENT
__ehhandler$??1exception@std@@UAE@XZ:
  00000	8b 54 24 08	 mov	 edx, DWORD PTR [esp+8]
  00004	8d 42 0c	 lea	 eax, DWORD PTR [edx+12]
  00007	8b 8a 24 ff ff
	ff		 mov	 ecx, DWORD PTR [edx-220]
  0000d	33 c8		 xor	 ecx, eax
  0000f	e8 00 00 00 00	 call	 @__security_check_cookie@4
  00014	b8 00 00 00 00	 mov	 eax, OFFSET __ehfuncinfo$??1exception@std@@UAE@XZ
  00019	e9 00 00 00 00	 jmp	 ___CxxFrameHandler3
text$x	ENDS
??1exception@std@@UAE@XZ ENDP				; std::exception::~exception
; Function compile flags: /Odtp /RTCsu /ZI
; File C:\Program Files (x86)\Microsoft Visual Studio\2019\Community\VC\Tools\MSVC\14.24.28314\include\vcruntime_exception.h
;	COMDAT ??0exception@std@@QAE@ABV01@@Z
_TEXT	SEGMENT
_this$ = -20						; size = 4
__$EHRec$ = -12						; size = 12
__Other$ = 8						; size = 4
??0exception@std@@QAE@ABV01@@Z PROC			; std::exception::exception, COMDAT
; _this$ = ecx

; 69   :     {

  00000	55		 push	 ebp
  00001	8b ec		 mov	 ebp, esp
  00003	6a ff		 push	 -1
  00005	68 00 00 00 00	 push	 __ehhandler$??0exception@std@@QAE@ABV01@@Z
  0000a	64 a1 00 00 00
	00		 mov	 eax, DWORD PTR fs:0
  00010	50		 push	 eax
  00011	81 ec cc 00 00
	00		 sub	 esp, 204		; 000000ccH
  00017	53		 push	 ebx
  00018	56		 push	 esi
  00019	57		 push	 edi
  0001a	51		 push	 ecx
  0001b	8d bd 28 ff ff
	ff		 lea	 edi, DWORD PTR [ebp-216]
  00021	b9 33 00 00 00	 mov	 ecx, 51			; 00000033H
  00026	b8 cc cc cc cc	 mov	 eax, -858993460		; ccccccccH
  0002b	f3 ab		 rep stosd
  0002d	59		 pop	 ecx
  0002e	a1 00 00 00 00	 mov	 eax, DWORD PTR ___security_cookie
  00033	33 c5		 xor	 eax, ebp
  00035	50		 push	 eax
  00036	8d 45 f4	 lea	 eax, DWORD PTR __$EHRec$[ebp]
  00039	64 a3 00 00 00
	00		 mov	 DWORD PTR fs:0, eax
  0003f	89 4d ec	 mov	 DWORD PTR _this$[ebp], ecx
  00042	b9 00 00 00 00	 mov	 ecx, OFFSET __CFCEF810_vcruntime_exception@h
  00047	e8 00 00 00 00	 call	 @__CheckForDebuggerJustMyCode@4
  0004c	8b 45 ec	 mov	 eax, DWORD PTR _this$[ebp]
  0004f	c7 00 00 00 00
	00		 mov	 DWORD PTR [eax], OFFSET ??_7exception@std@@6B@

; 68   :         : _Data()

  00055	33 c0		 xor	 eax, eax
  00057	8b 4d ec	 mov	 ecx, DWORD PTR _this$[ebp]
  0005a	83 c1 04	 add	 ecx, 4
  0005d	89 01		 mov	 DWORD PTR [ecx], eax
  0005f	89 41 04	 mov	 DWORD PTR [ecx+4], eax

; 70   :         __std_exception_copy(&_Other._Data, &_Data);

  00062	8b 45 ec	 mov	 eax, DWORD PTR _this$[ebp]
  00065	83 c0 04	 add	 eax, 4
  00068	50		 push	 eax
  00069	8b 4d 08	 mov	 ecx, DWORD PTR __Other$[ebp]
  0006c	83 c1 04	 add	 ecx, 4
  0006f	51		 push	 ecx
  00070	e8 00 00 00 00	 call	 ___std_exception_copy
  00075	83 c4 08	 add	 esp, 8

; 71   :     }

  00078	8b 45 ec	 mov	 eax, DWORD PTR _this$[ebp]
  0007b	8b 4d f4	 mov	 ecx, DWORD PTR __$EHRec$[ebp]
  0007e	64 89 0d 00 00
	00 00		 mov	 DWORD PTR fs:0, ecx
  00085	59		 pop	 ecx
  00086	5f		 pop	 edi
  00087	5e		 pop	 esi
  00088	5b		 pop	 ebx
  00089	81 c4 d8 00 00
	00		 add	 esp, 216		; 000000d8H
  0008f	3b ec		 cmp	 ebp, esp
  00091	e8 00 00 00 00	 call	 __RTC_CheckEsp
  00096	8b e5		 mov	 esp, ebp
  00098	5d		 pop	 ebp
  00099	c2 04 00	 ret	 4
_TEXT	ENDS
;	COMDAT text$x
text$x	SEGMENT
__ehhandler$??0exception@std@@QAE@ABV01@@Z:
  00000	8b 54 24 08	 mov	 edx, DWORD PTR [esp+8]
  00004	8d 42 0c	 lea	 eax, DWORD PTR [edx+12]
  00007	8b 8a 24 ff ff
	ff		 mov	 ecx, DWORD PTR [edx-220]
  0000d	33 c8		 xor	 ecx, eax
  0000f	e8 00 00 00 00	 call	 @__security_check_cookie@4
  00014	b8 00 00 00 00	 mov	 eax, OFFSET __ehfuncinfo$??0exception@std@@QAE@ABV01@@Z
  00019	e9 00 00 00 00	 jmp	 ___CxxFrameHandler3
text$x	ENDS
??0exception@std@@QAE@ABV01@@Z ENDP			; std::exception::exception
; Function compile flags: /Odtp /RTCsu /ZI
; File C:\Program Files (x86)\Microsoft Visual Studio\2019\Community\VC\Tools\MSVC\14.24.28314\include\vcruntime_exception.h
;	COMDAT ??0exception@std@@QAE@QBDH@Z
_TEXT	SEGMENT
_this$ = -20						; size = 4
__$EHRec$ = -12						; size = 12
__Message$ = 8						; size = 4
___formal$ = 12						; size = 4
??0exception@std@@QAE@QBDH@Z PROC			; std::exception::exception, COMDAT
; _this$ = ecx

; 63   :     {

  00000	55		 push	 ebp
  00001	8b ec		 mov	 ebp, esp
  00003	6a ff		 push	 -1
  00005	68 00 00 00 00	 push	 __ehhandler$??0exception@std@@QAE@QBDH@Z
  0000a	64 a1 00 00 00
	00		 mov	 eax, DWORD PTR fs:0
  00010	50		 push	 eax
  00011	81 ec cc 00 00
	00		 sub	 esp, 204		; 000000ccH
  00017	53		 push	 ebx
  00018	56		 push	 esi
  00019	57		 push	 edi
  0001a	51		 push	 ecx
  0001b	8d bd 28 ff ff
	ff		 lea	 edi, DWORD PTR [ebp-216]
  00021	b9 33 00 00 00	 mov	 ecx, 51			; 00000033H
  00026	b8 cc cc cc cc	 mov	 eax, -858993460		; ccccccccH
  0002b	f3 ab		 rep stosd
  0002d	59		 pop	 ecx
  0002e	a1 00 00 00 00	 mov	 eax, DWORD PTR ___security_cookie
  00033	33 c5		 xor	 eax, ebp
  00035	50		 push	 eax
  00036	8d 45 f4	 lea	 eax, DWORD PTR __$EHRec$[ebp]
  00039	64 a3 00 00 00
	00		 mov	 DWORD PTR fs:0, eax
  0003f	89 4d ec	 mov	 DWORD PTR _this$[ebp], ecx
  00042	b9 00 00 00 00	 mov	 ecx, OFFSET __CFCEF810_vcruntime_exception@h
  00047	e8 00 00 00 00	 call	 @__CheckForDebuggerJustMyCode@4
  0004c	8b 45 ec	 mov	 eax, DWORD PTR _this$[ebp]
  0004f	c7 00 00 00 00
	00		 mov	 DWORD PTR [eax], OFFSET ??_7exception@std@@6B@

; 62   :         : _Data()

  00055	33 c0		 xor	 eax, eax
  00057	8b 4d ec	 mov	 ecx, DWORD PTR _this$[ebp]
  0005a	83 c1 04	 add	 ecx, 4
  0005d	89 01		 mov	 DWORD PTR [ecx], eax
  0005f	89 41 04	 mov	 DWORD PTR [ecx+4], eax

; 64   :         _Data._What = _Message;

  00062	8b 45 ec	 mov	 eax, DWORD PTR _this$[ebp]
  00065	8b 4d 08	 mov	 ecx, DWORD PTR __Message$[ebp]
  00068	89 48 04	 mov	 DWORD PTR [eax+4], ecx

; 65   :     }

  0006b	8b 45 ec	 mov	 eax, DWORD PTR _this$[ebp]
  0006e	8b 4d f4	 mov	 ecx, DWORD PTR __$EHRec$[ebp]
  00071	64 89 0d 00 00
	00 00		 mov	 DWORD PTR fs:0, ecx
  00078	59		 pop	 ecx
  00079	5f		 pop	 edi
  0007a	5e		 pop	 esi
  0007b	5b		 pop	 ebx
  0007c	81 c4 d8 00 00
	00		 add	 esp, 216		; 000000d8H
  00082	3b ec		 cmp	 ebp, esp
  00084	e8 00 00 00 00	 call	 __RTC_CheckEsp
  00089	8b e5		 mov	 esp, ebp
  0008b	5d		 pop	 ebp
  0008c	c2 08 00	 ret	 8
_TEXT	ENDS
;	COMDAT text$x
text$x	SEGMENT
__ehhandler$??0exception@std@@QAE@QBDH@Z:
  00000	8b 54 24 08	 mov	 edx, DWORD PTR [esp+8]
  00004	8d 42 0c	 lea	 eax, DWORD PTR [edx+12]
  00007	8b 8a 24 ff ff
	ff		 mov	 ecx, DWORD PTR [edx-220]
  0000d	33 c8		 xor	 ecx, eax
  0000f	e8 00 00 00 00	 call	 @__security_check_cookie@4
  00014	b8 00 00 00 00	 mov	 eax, OFFSET __ehfuncinfo$??0exception@std@@QAE@QBDH@Z
  00019	e9 00 00 00 00	 jmp	 ___CxxFrameHandler3
text$x	ENDS
??0exception@std@@QAE@QBDH@Z ENDP			; std::exception::exception
; Function compile flags: /Odtp /RTCsu /ZI
; File C:\Program Files (x86)\Windows Kits\10\Include\10.0.18362.0\ucrt\stdio.h
;	COMDAT _printf
_TEXT	SEGMENT
__ArgList$ = -20					; size = 4
__Result$ = -8						; size = 4
__Format$ = 8						; size = 4
_printf	PROC						; COMDAT

; 954  :     {

  00000	55		 push	 ebp
  00001	8b ec		 mov	 ebp, esp
  00003	81 ec e4 00 00
	00		 sub	 esp, 228		; 000000e4H
  00009	53		 push	 ebx
  0000a	56		 push	 esi
  0000b	57		 push	 edi
  0000c	8d bd 1c ff ff
	ff		 lea	 edi, DWORD PTR [ebp-228]
  00012	b9 39 00 00 00	 mov	 ecx, 57			; 00000039H
  00017	b8 cc cc cc cc	 mov	 eax, -858993460		; ccccccccH
  0001c	f3 ab		 rep stosd
  0001e	b9 00 00 00 00	 mov	 ecx, OFFSET __AD6A91B7_stdio@h
  00023	e8 00 00 00 00	 call	 @__CheckForDebuggerJustMyCode@4

; 955  :         int _Result;
; 956  :         va_list _ArgList;
; 957  :         __crt_va_start(_ArgList, _Format);

  00028	8d 45 0c	 lea	 eax, DWORD PTR __Format$[ebp+4]
  0002b	89 45 ec	 mov	 DWORD PTR __ArgList$[ebp], eax

; 958  :         _Result = _vfprintf_l(stdout, _Format, NULL, _ArgList);

  0002e	8b 45 ec	 mov	 eax, DWORD PTR __ArgList$[ebp]
  00031	50		 push	 eax
  00032	6a 00		 push	 0
  00034	8b 4d 08	 mov	 ecx, DWORD PTR __Format$[ebp]
  00037	51		 push	 ecx
  00038	8b f4		 mov	 esi, esp
  0003a	6a 01		 push	 1
  0003c	ff 15 00 00 00
	00		 call	 DWORD PTR __imp____acrt_iob_func
  00042	83 c4 04	 add	 esp, 4
  00045	3b f4		 cmp	 esi, esp
  00047	e8 00 00 00 00	 call	 __RTC_CheckEsp
  0004c	50		 push	 eax
  0004d	e8 00 00 00 00	 call	 __vfprintf_l
  00052	83 c4 10	 add	 esp, 16			; 00000010H
  00055	89 45 f8	 mov	 DWORD PTR __Result$[ebp], eax

; 959  :         __crt_va_end(_ArgList);

  00058	c7 45 ec 00 00
	00 00		 mov	 DWORD PTR __ArgList$[ebp], 0

; 960  :         return _Result;

  0005f	8b 45 f8	 mov	 eax, DWORD PTR __Result$[ebp]

; 961  :     }

  00062	5f		 pop	 edi
  00063	5e		 pop	 esi
  00064	5b		 pop	 ebx
  00065	81 c4 e4 00 00
	00		 add	 esp, 228		; 000000e4H
  0006b	3b ec		 cmp	 ebp, esp
  0006d	e8 00 00 00 00	 call	 __RTC_CheckEsp
  00072	8b e5		 mov	 esp, ebp
  00074	5d		 pop	 ebp
  00075	c3		 ret	 0
_printf	ENDP
_TEXT	ENDS
; Function compile flags: /Odtp /RTCsu /ZI
; File C:\Program Files (x86)\Windows Kits\10\Include\10.0.18362.0\ucrt\stdio.h
;	COMDAT __vfprintf_l
_TEXT	SEGMENT
__Stream$ = 8						; size = 4
__Format$ = 12						; size = 4
__Locale$ = 16						; size = 4
__ArgList$ = 20						; size = 4
__vfprintf_l PROC					; COMDAT

; 642  :     {

  00000	55		 push	 ebp
  00001	8b ec		 mov	 ebp, esp
  00003	81 ec c0 00 00
	00		 sub	 esp, 192		; 000000c0H
  00009	53		 push	 ebx
  0000a	56		 push	 esi
  0000b	57		 push	 edi
  0000c	8d bd 40 ff ff
	ff		 lea	 edi, DWORD PTR [ebp-192]
  00012	b9 30 00 00 00	 mov	 ecx, 48			; 00000030H
  00017	b8 cc cc cc cc	 mov	 eax, -858993460		; ccccccccH
  0001c	f3 ab		 rep stosd
  0001e	b9 00 00 00 00	 mov	 ecx, OFFSET __AD6A91B7_stdio@h
  00023	e8 00 00 00 00	 call	 @__CheckForDebuggerJustMyCode@4

; 643  :         return __stdio_common_vfprintf(_CRT_INTERNAL_LOCAL_PRINTF_OPTIONS, _Stream, _Format, _Locale, _ArgList);

  00028	8b f4		 mov	 esi, esp
  0002a	8b 45 14	 mov	 eax, DWORD PTR __ArgList$[ebp]
  0002d	50		 push	 eax
  0002e	8b 4d 10	 mov	 ecx, DWORD PTR __Locale$[ebp]
  00031	51		 push	 ecx
  00032	8b 55 0c	 mov	 edx, DWORD PTR __Format$[ebp]
  00035	52		 push	 edx
  00036	8b 45 08	 mov	 eax, DWORD PTR __Stream$[ebp]
  00039	50		 push	 eax
  0003a	e8 00 00 00 00	 call	 ___local_stdio_printf_options
  0003f	8b 48 04	 mov	 ecx, DWORD PTR [eax+4]
  00042	51		 push	 ecx
  00043	8b 10		 mov	 edx, DWORD PTR [eax]
  00045	52		 push	 edx
  00046	ff 15 00 00 00
	00		 call	 DWORD PTR __imp____stdio_common_vfprintf
  0004c	83 c4 18	 add	 esp, 24			; 00000018H
  0004f	3b f4		 cmp	 esi, esp
  00051	e8 00 00 00 00	 call	 __RTC_CheckEsp

; 644  :     }

  00056	5f		 pop	 edi
  00057	5e		 pop	 esi
  00058	5b		 pop	 ebx
  00059	81 c4 c0 00 00
	00		 add	 esp, 192		; 000000c0H
  0005f	3b ec		 cmp	 ebp, esp
  00061	e8 00 00 00 00	 call	 __RTC_CheckEsp
  00066	8b e5		 mov	 esp, ebp
  00068	5d		 pop	 ebp
  00069	c3		 ret	 0
__vfprintf_l ENDP
_TEXT	ENDS
; Function compile flags: /Odtp /RTCsu /ZI
; File C:\Program Files (x86)\Windows Kits\10\Include\10.0.18362.0\ucrt\corecrt_stdio_config.h
;	COMDAT ___local_stdio_printf_options
_TEXT	SEGMENT
___local_stdio_printf_options PROC			; COMDAT

; 86   :     {

  00000	55		 push	 ebp
  00001	8b ec		 mov	 ebp, esp
  00003	81 ec c0 00 00
	00		 sub	 esp, 192		; 000000c0H
  00009	53		 push	 ebx
  0000a	56		 push	 esi
  0000b	57		 push	 edi
  0000c	8d bd 40 ff ff
	ff		 lea	 edi, DWORD PTR [ebp-192]
  00012	b9 30 00 00 00	 mov	 ecx, 48			; 00000030H
  00017	b8 cc cc cc cc	 mov	 eax, -858993460		; ccccccccH
  0001c	f3 ab		 rep stosd
  0001e	b9 00 00 00 00	 mov	 ecx, OFFSET __F66CEB67_corecrt_stdio_config@h
  00023	e8 00 00 00 00	 call	 @__CheckForDebuggerJustMyCode@4

; 87   :         static unsigned __int64 _OptionsStorage;
; 88   :         return &_OptionsStorage;

  00028	b8 00 00 00 00	 mov	 eax, OFFSET ?_OptionsStorage@?1??__local_stdio_printf_options@@9@4_KA ; `__local_stdio_printf_options'::`2'::_OptionsStorage

; 89   :     }

  0002d	5f		 pop	 edi
  0002e	5e		 pop	 esi
  0002f	5b		 pop	 ebx
  00030	81 c4 c0 00 00
	00		 add	 esp, 192		; 000000c0H
  00036	3b ec		 cmp	 ebp, esp
  00038	e8 00 00 00 00	 call	 __RTC_CheckEsp
  0003d	8b e5		 mov	 esp, ebp
  0003f	5d		 pop	 ebp
  00040	c3		 ret	 0
___local_stdio_printf_options ENDP
_TEXT	ENDS
; Function compile flags: /Odtp /RTCsu /ZI
; File C:\Program Files (x86)\Microsoft Visual Studio\2019\Community\VC\Tools\MSVC\14.24.28314\include\vcruntime_new.h
;	COMDAT ??2@YAPAXIPAX@Z
_TEXT	SEGMENT
__$EHRec$ = -12						; size = 12
__Size$ = 8						; size = 4
__Where$ = 12						; size = 4
??2@YAPAXIPAX@Z PROC					; operator new, COMDAT

; 168  :     {

  00000	55		 push	 ebp
  00001	8b ec		 mov	 ebp, esp
  00003	6a ff		 push	 -1
  00005	68 00 00 00 00	 push	 __ehhandler$??2@YAPAXIPAX@Z
  0000a	64 a1 00 00 00
	00		 mov	 eax, DWORD PTR fs:0
  00010	50		 push	 eax
  00011	81 ec c0 00 00
	00		 sub	 esp, 192		; 000000c0H
  00017	53		 push	 ebx
  00018	56		 push	 esi
  00019	57		 push	 edi
  0001a	8d bd 34 ff ff
	ff		 lea	 edi, DWORD PTR [ebp-204]
  00020	b9 30 00 00 00	 mov	 ecx, 48			; 00000030H
  00025	b8 cc cc cc cc	 mov	 eax, -858993460		; ccccccccH
  0002a	f3 ab		 rep stosd
  0002c	a1 00 00 00 00	 mov	 eax, DWORD PTR ___security_cookie
  00031	33 c5		 xor	 eax, ebp
  00033	50		 push	 eax
  00034	8d 45 f4	 lea	 eax, DWORD PTR __$EHRec$[ebp]
  00037	64 a3 00 00 00
	00		 mov	 DWORD PTR fs:0, eax
  0003d	b9 00 00 00 00	 mov	 ecx, OFFSET __BD3EDE1B_vcruntime_new@h
  00042	e8 00 00 00 00	 call	 @__CheckForDebuggerJustMyCode@4

; 169  :         (void)_Size;
; 170  :         return _Where;

  00047	8b 45 0c	 mov	 eax, DWORD PTR __Where$[ebp]

; 171  :     }

  0004a	8b 4d f4	 mov	 ecx, DWORD PTR __$EHRec$[ebp]
  0004d	64 89 0d 00 00
	00 00		 mov	 DWORD PTR fs:0, ecx
  00054	59		 pop	 ecx
  00055	5f		 pop	 edi
  00056	5e		 pop	 esi
  00057	5b		 pop	 ebx
  00058	81 c4 cc 00 00
	00		 add	 esp, 204		; 000000ccH
  0005e	3b ec		 cmp	 ebp, esp
  00060	e8 00 00 00 00	 call	 __RTC_CheckEsp
  00065	8b e5		 mov	 esp, ebp
  00067	5d		 pop	 ebp
  00068	c3		 ret	 0
_TEXT	ENDS
;	COMDAT text$x
text$x	SEGMENT
__ehhandler$??2@YAPAXIPAX@Z:
  00000	8b 54 24 08	 mov	 edx, DWORD PTR [esp+8]
  00004	8d 42 0c	 lea	 eax, DWORD PTR [edx+12]
  00007	8b 8a 30 ff ff
	ff		 mov	 ecx, DWORD PTR [edx-208]
  0000d	33 c8		 xor	 ecx, eax
  0000f	e8 00 00 00 00	 call	 @__security_check_cookie@4
  00014	b8 00 00 00 00	 mov	 eax, OFFSET __ehfuncinfo$??2@YAPAXIPAX@Z
  00019	e9 00 00 00 00	 jmp	 ___CxxFrameHandler3
text$x	ENDS
??2@YAPAXIPAX@Z ENDP					; operator new
; Function compile flags: /Odtp /RTCsu /ZI
; File C:\Users\Vlad\LP\Laba1LP\Laba1LP.cpp
;	COMDAT ?__empty_global_delete@@YAXPAXI@Z
_TEXT	SEGMENT
___formal$ = 8						; size = 4
___formal$ = 12						; size = 4
?__empty_global_delete@@YAXPAXI@Z PROC			; __empty_global_delete, COMDAT

  00000	55		 push	 ebp
  00001	8b ec		 mov	 ebp, esp
  00003	81 ec c0 00 00
	00		 sub	 esp, 192		; 000000c0H
  00009	53		 push	 ebx
  0000a	56		 push	 esi
  0000b	57		 push	 edi
  0000c	8d bd 40 ff ff
	ff		 lea	 edi, DWORD PTR [ebp-192]
  00012	b9 30 00 00 00	 mov	 ecx, 48			; 00000030H
  00017	b8 cc cc cc cc	 mov	 eax, -858993460		; ccccccccH
  0001c	f3 ab		 rep stosd
  0001e	b9 00 00 00 00	 mov	 ecx, OFFSET __6EC763AE_Laba1LP@cpp
  00023	e8 00 00 00 00	 call	 @__CheckForDebuggerJustMyCode@4
  00028	5f		 pop	 edi
  00029	5e		 pop	 esi
  0002a	5b		 pop	 ebx
  0002b	81 c4 c0 00 00
	00		 add	 esp, 192		; 000000c0H
  00031	3b ec		 cmp	 ebp, esp
  00033	e8 00 00 00 00	 call	 __RTC_CheckEsp
  00038	8b e5		 mov	 esp, ebp
  0003a	5d		 pop	 ebp
  0003b	c3		 ret	 0
?__empty_global_delete@@YAXPAXI@Z ENDP			; __empty_global_delete
_TEXT	ENDS
; Function compile flags: /Odtp /RTCsu /ZI
; File C:\Users\Vlad\LP\Laba1LP\Laba1LP.cpp
;	COMDAT ?__empty_global_delete@@YAXPAX@Z
_TEXT	SEGMENT
___formal$ = 8						; size = 4
?__empty_global_delete@@YAXPAX@Z PROC			; __empty_global_delete, COMDAT

  00000	55		 push	 ebp
  00001	8b ec		 mov	 ebp, esp
  00003	81 ec c0 00 00
	00		 sub	 esp, 192		; 000000c0H
  00009	53		 push	 ebx
  0000a	56		 push	 esi
  0000b	57		 push	 edi
  0000c	8d bd 40 ff ff
	ff		 lea	 edi, DWORD PTR [ebp-192]
  00012	b9 30 00 00 00	 mov	 ecx, 48			; 00000030H
  00017	b8 cc cc cc cc	 mov	 eax, -858993460		; ccccccccH
  0001c	f3 ab		 rep stosd
  0001e	b9 00 00 00 00	 mov	 ecx, OFFSET __6EC763AE_Laba1LP@cpp
  00023	e8 00 00 00 00	 call	 @__CheckForDebuggerJustMyCode@4
  00028	5f		 pop	 edi
  00029	5e		 pop	 esi
  0002a	5b		 pop	 ebx
  0002b	81 c4 c0 00 00
	00		 add	 esp, 192		; 000000c0H
  00031	3b ec		 cmp	 ebp, esp
  00033	e8 00 00 00 00	 call	 __RTC_CheckEsp
  00038	8b e5		 mov	 esp, ebp
  0003a	5d		 pop	 ebp
  0003b	c3		 ret	 0
?__empty_global_delete@@YAXPAX@Z ENDP			; __empty_global_delete
_TEXT	ENDS
END
